 canvas

 Timestamp is 635dd743 (Sun Oct 30 01:45:39 2022)

 Preferred load address is 0000000180000000

 Start         Length     Name                   Class
 0001:00000000 00000640H .text                   CODE
 0001:00000640 00001e60H .text$di                CODE
 0001:000024a0 000577b0H .text$mn                CODE
 0001:00059c50 00000200H .text$mn$00             CODE
 0001:00059e50 00002990H .text$x                 CODE
 0001:0005c7e0 00000278H .text$yd                CODE
 0002:00000000 000009a0H .idata$5                DATA
 0002:000009a0 00000028H .00cfg                  DATA
 0002:000009c8 00000008H .CRT$XCA                DATA
 0002:000009d0 00000018H .CRT$XCC                DATA
 0002:000009e8 00000010H .CRT$XCL                DATA
 0002:000009f8 00000078H .CRT$XCU                DATA
 0002:00000a70 00000008H .CRT$XCZ                DATA
 0002:00000a78 00000008H .CRT$XIA                DATA
 0002:00000a80 00000028H .CRT$XIC                DATA
 0002:00000aa8 00000008H .CRT$XIZ                DATA
 0002:00000ab0 00000008H .CRT$XPA                DATA
 0002:00000ab8 00000010H .CRT$XPX                DATA
 0002:00000ac8 00000008H .CRT$XPXA               DATA
 0002:00000ad0 00000008H .CRT$XPZ                DATA
 0002:00000ad8 00000008H .CRT$XTA                DATA
 0002:00000ae0 00000010H .CRT$XTZ                DATA
 0002:00000ae8 00000000H .gehcont$y              DATA
 0002:00000ae8 00000000H .gfids$y                DATA
 0002:00000af0 00012510H .rdata                  DATA
 0002:00013000 00000000H .rdata$CastGuardVftablesA DATA
 0002:00013000 00000000H .rdata$CastGuardVftablesC DATA
 0002:00013000 0000075cH .rdata$r                DATA
 0002:0001375c 00000018H .rdata$voltmd           DATA
 0002:00013774 00000464H .rdata$zzzdbg           DATA
 0002:00013bd8 00000008H .rtc$IAA                DATA
 0002:00013be0 00000008H .rtc$IZZ                DATA
 0002:00013be8 00000008H .rtc$TAA                DATA
 0002:00013bf0 00000008H .rtc$TZZ                DATA
 0002:00013bf8 000060f0H .xdata                  DATA
 0002:00019ce8 0000037cH .xdata$x                DATA
 0002:0001a064 00000020H .didat$2                DATA
 0002:0001a084 00000024H .didat$3                DATA
 0002:0001a0a8 00000348H .didat$4                DATA
 0002:0001a3f0 00001c38H .didat$6                DATA
 0002:0001c028 00000348H .didat$7                DATA
 0002:0001c370 00000250H .edata                  DATA
 0002:0001c5c0 000000f0H .idata$2                DATA
 0002:0001c6b0 00000018H .idata$3                DATA
 0002:0001c6c8 000009a0H .idata$4                DATA
 0002:0001d068 00001a38H .idata$6                DATA
 0002:0001eaa0 000003c4H .idata$7                DATA
 0003:00000000 00000c80H .data                   DATA
 0003:00000c80 00000290H .data$r                 DATA
 0003:00000f10 00000120H .data$rs                DATA
 0003:00001030 00000350H .didat$5                DATA
 0003:00001380 000017a4H .bss                    DATA
 0004:00000000 00003dd4H .pdata                  DATA
 0005:00000000 000000f4H _RDATA                  DATA
 0006:00000000 00000060H .rsrc$01                DATA
 0006:00000060 00000180H .rsrc$02                DATA

  Address         Publics by Value              Rva+Base               Lib:Object

 0000:00000000       ___safe_se_handler_table   0000000000000000     <absolute>
 0000:00000000       __guard_longjmp_table      0000000000000000     <absolute>
 0000:00000000       __x64_code_ranges_to_entry_points 0000000000000000     <absolute>
 0000:00000000       __arm64x_redirection_metadata 0000000000000000     <absolute>
 0000:00000000       __guard_iat_table          0000000000000000     <absolute>
 0000:00000000       __guard_fids_count         0000000000000000     <absolute>
 0000:00000000       __arm64x_extra_rfe_table   0000000000000000     <absolute>
 0000:00000000       __guard_iat_count          0000000000000000     <absolute>
 0000:00000000       __guard_longjmp_count      0000000000000000     <absolute>
 0000:00000000       __dynamic_value_reloc_table 0000000000000000     <absolute>
 0000:00000000       __x64_code_ranges_to_entry_points_count 0000000000000000     <absolute>
 0000:00000000       __hybrid_code_map          0000000000000000     <absolute>
 0000:00000000       __hybrid_auxiliary_iat     0000000000000000     <absolute>
 0000:00000000       __arm64x_extra_rfe_table_size 0000000000000000     <absolute>
 0000:00000000       __hybrid_auxiliary_iat_copy 0000000000000000     <absolute>
 0000:00000000       ___safe_se_handler_count   0000000000000000     <absolute>
 0000:00000000       __AbsoluteZero             0000000000000000     <absolute>
 0000:00000000       __guard_check_icall_a64n_fptr 0000000000000000     <absolute>
 0000:00000000       __guard_eh_cont_count      0000000000000000     <absolute>
 0000:00000000       __guard_fids_table         0000000000000000     <absolute>
 0000:00000000       __arm64x_redirection_metadata_count 0000000000000000     <absolute>
 0000:00000000       __enclave_config           0000000000000000     <absolute>
 0000:00000000       __guard_eh_cont_table      0000000000000000     <absolute>
 0000:00000000       __arm64x_native_entrypoint 0000000000000000     <absolute>
 0000:00000000       __hybrid_code_map_count    0000000000000000     <absolute>
 0000:00000100       __guard_flags              0000000000000100     <absolute>
 0000:00000000       __ImageBase                0000000180000000     <linker-defined>
 0001:00000000       cairo_surface_destroy      0000000180001000     libcairo-2:D__a__temp_msys64_mingw64_lib_libcairo_2_lib_s01412.o
 0001:00000008       cairo_status_to_string     0000000180001008     libcairo-2:D__a__temp_msys64_mingw64_lib_libcairo_2_lib_s01403.o
 0001:00000010       cairo_surface_status       0000000180001010     libcairo-2:D__a__temp_msys64_mingw64_lib_libcairo_2_lib_s01445.o
 0001:00000018       cairo_image_surface_create 0000000180001018     libcairo-2:D__a__temp_msys64_mingw64_lib_libcairo_2_lib_s01204.o
 0001:00000020       cairo_image_surface_get_stride 0000000180001020     libcairo-2:D__a__temp_msys64_mingw64_lib_libcairo_2_lib_s01211.o
 0001:00000028       cairo_surface_finish       0000000180001028     libcairo-2:D__a__temp_msys64_mingw64_lib_libcairo_2_lib_s01413.o
 0001:00000030       cairo_image_surface_get_data 0000000180001030     libcairo-2:D__a__temp_msys64_mingw64_lib_libcairo_2_lib_s01208.o
 0001:00000038       cairo_pdf_surface_set_size 0000000180001038     libcairo-2:D__a__temp_msys64_mingw64_lib_libcairo_2_lib_s01286.o
 0001:00000040       cairo_pdf_surface_create_for_stream 0000000180001040     libcairo-2:D__a__temp_msys64_mingw64_lib_libcairo_2_lib_s01281.o
 0001:00000048       cairo_svg_surface_create_for_stream 0000000180001048     libcairo-2:D__a__temp_msys64_mingw64_lib_libcairo_2_lib_s01452.o
 0001:00000050       cairo_image_surface_get_format 0000000180001050     libcairo-2:D__a__temp_msys64_mingw64_lib_libcairo_2_lib_s01209.o
 0001:00000058       cairo_destroy              0000000180001058     libcairo-2:D__a__temp_msys64_mingw64_lib_libcairo_2_lib_s01116.o
 0001:00000060       cairo_image_surface_get_height 0000000180001060     libcairo-2:D__a__temp_msys64_mingw64_lib_libcairo_2_lib_s01210.o
 0001:00000068       cairo_surface_flush        0000000180001068     libcairo-2:D__a__temp_msys64_mingw64_lib_libcairo_2_lib_s01414.o
 0001:00000070       cairo_pdf_surface_set_metadata 0000000180001070     libcairo-2:D__a__temp_msys64_mingw64_lib_libcairo_2_lib_s01284.o
 0001:00000078       cairo_set_line_width       0000000180001078     libcairo-2:D__a__temp_msys64_mingw64_lib_libcairo_2_lib_s01387.o
 0001:00000080       cairo_image_surface_get_width 0000000180001080     libcairo-2:D__a__temp_msys64_mingw64_lib_libcairo_2_lib_s01212.o
 0001:00000088       cairo_create               0000000180001088     libcairo-2:D__a__temp_msys64_mingw64_lib_libcairo_2_lib_s01113.o
 0001:00000090       cairo_pattern_add_color_stop_rgba 0000000180001090     libcairo-2:D__a__temp_msys64_mingw64_lib_libcairo_2_lib_s01251.o
 0001:00000098       cairo_pattern_create_radial 0000000180001098     libcairo-2:D__a__temp_msys64_mingw64_lib_libcairo_2_lib_s01255.o
 0001:000000a0       cairo_pattern_create_linear 00000001800010a0     libcairo-2:D__a__temp_msys64_mingw64_lib_libcairo_2_lib_s01253.o
 0001:000000a8       cairo_pattern_destroy      00000001800010a8     libcairo-2:D__a__temp_msys64_mingw64_lib_libcairo_2_lib_s01259.o
 0001:000000b0       cairo_pattern_set_user_data 00000001800010b0     libcairo-2:D__a__temp_msys64_mingw64_lib_libcairo_2_lib_s01276.o
 0001:000000b8       cairo_matrix_init          00000001800010b8     libcairo-2:D__a__temp_msys64_mingw64_lib_libcairo_2_lib_s01219.o
 0001:000000c0       cairo_pattern_set_matrix   00000001800010c0     libcairo-2:D__a__temp_msys64_mingw64_lib_libcairo_2_lib_s01275.o
 0001:000000c8       cairo_pattern_get_user_data 00000001800010c8     libcairo-2:D__a__temp_msys64_mingw64_lib_libcairo_2_lib_s01271.o
 0001:000000d0       cairo_pattern_create_for_surface 00000001800010d0     libcairo-2:D__a__temp_msys64_mingw64_lib_libcairo_2_lib_s01252.o
 0001:000000d8       cairo_matrix_invert        00000001800010d8     libcairo-2:D__a__temp_msys64_mingw64_lib_libcairo_2_lib_s01224.o
 0001:000000e0       cairo_path_destroy         00000001800010e0     libcairo-2:D__a__temp_msys64_mingw64_lib_libcairo_2_lib_s01248.o
 0001:000000e8       cairo_in_fill              00000001800010e8     libcairo-2:D__a__temp_msys64_mingw64_lib_libcairo_2_lib_s01214.o
 0001:000000f0       cairo_set_operator         00000001800010f0     libcairo-2:D__a__temp_msys64_mingw64_lib_libcairo_2_lib_s01390.o
 0001:000000f8       cairo_pattern_get_linear_points 00000001800010f8     libcairo-2:D__a__temp_msys64_mingw64_lib_libcairo_2_lib_s01264.o
 0001:00000100       cairo_surface_mark_dirty_rectangle 0000000180001100     libcairo-2:D__a__temp_msys64_mingw64_lib_libcairo_2_lib_s01428.o
 0001:00000108       cairo_save                 0000000180001108     libcairo-2:D__a__temp_msys64_mingw64_lib_libcairo_2_lib_s01349.o
 0001:00000110       cairo_get_matrix           0000000180001110     libcairo-2:D__a__temp_msys64_mingw64_lib_libcairo_2_lib_s01189.o
 0001:00000118       cairo_arc_negative         0000000180001118     libcairo-2:D__a__temp_msys64_mingw64_lib_libcairo_2_lib_s01104.o
 0001:00000120       cairo_stroke_preserve      0000000180001120     libcairo-2:D__a__temp_msys64_mingw64_lib_libcairo_2_lib_s01406.o
 0001:00000128       cairo_rectangle            0000000180001128     libcairo-2:D__a__temp_msys64_mingw64_lib_libcairo_2_lib_s01317.o
 0001:00000130       cairo_set_line_join        0000000180001130     libcairo-2:D__a__temp_msys64_mingw64_lib_libcairo_2_lib_s01386.o
 0001:00000138       cairo_pattern_get_filter   0000000180001138     libcairo-2:D__a__temp_msys64_mingw64_lib_libcairo_2_lib_s01263.o
 0001:00000140       cairo_set_source_surface   0000000180001140     libcairo-2:D__a__temp_msys64_mingw64_lib_libcairo_2_lib_s01395.o
 0001:00000148       cairo_status               0000000180001148     libcairo-2:D__a__temp_msys64_mingw64_lib_libcairo_2_lib_s01402.o
 0001:00000150       cairo_fill                 0000000180001150     libcairo-2:D__a__temp_msys64_mingw64_lib_libcairo_2_lib_s01139.o
 0001:00000158       cairo_set_line_cap         0000000180001158     libcairo-2:D__a__temp_msys64_mingw64_lib_libcairo_2_lib_s01385.o
 0001:00000160       cairo_get_source           0000000180001160     libcairo-2:D__a__temp_msys64_mingw64_lib_libcairo_2_lib_s01194.o
 0001:00000168       cairo_mask_surface         0000000180001168     libcairo-2:D__a__temp_msys64_mingw64_lib_libcairo_2_lib_s01218.o
 0001:00000170       cairo_pattern_set_filter   0000000180001170     libcairo-2:D__a__temp_msys64_mingw64_lib_libcairo_2_lib_s01274.o
 0001:00000178       cairo_fill_extents         0000000180001178     libcairo-2:D__a__temp_msys64_mingw64_lib_libcairo_2_lib_s01140.o
 0001:00000180       cairo_show_page            0000000180001180     libcairo-2:D__a__temp_msys64_mingw64_lib_libcairo_2_lib_s01399.o
 0001:00000188       cairo_restore              0000000180001188     libcairo-2:D__a__temp_msys64_mingw64_lib_libcairo_2_lib_s01347.o
 0001:00000190       cairo_line_to              0000000180001190     libcairo-2:D__a__temp_msys64_mingw64_lib_libcairo_2_lib_s01216.o
 0001:00000198       cairo_set_fill_rule        0000000180001198     libcairo-2:D__a__temp_msys64_mingw64_lib_libcairo_2_lib_s01379.o
 0001:000001a0       cairo_paint                00000001800011a0     libcairo-2:D__a__temp_msys64_mingw64_lib_libcairo_2_lib_s01246.o
 0001:000001a8       cairo_push_group           00000001800011a8     libcairo-2:D__a__temp_msys64_mingw64_lib_libcairo_2_lib_s01302.o
 0001:000001b0       cairo_stroke               00000001800011b0     libcairo-2:D__a__temp_msys64_mingw64_lib_libcairo_2_lib_s01404.o
 0001:000001b8       cairo_move_to              00000001800011b8     libcairo-2:D__a__temp_msys64_mingw64_lib_libcairo_2_lib_s01243.o
 0001:000001c0       cairo_get_line_cap         00000001800011c0     libcairo-2:D__a__temp_msys64_mingw64_lib_libcairo_2_lib_s01186.o
 0001:000001c8       cairo_pattern_set_extend   00000001800011c8     libcairo-2:D__a__temp_msys64_mingw64_lib_libcairo_2_lib_s01273.o
 0001:000001d0       cairo_get_operator         00000001800011d0     libcairo-2:D__a__temp_msys64_mingw64_lib_libcairo_2_lib_s01191.o
 0001:000001d8       cairo_clip                 00000001800011d8     libcairo-2:D__a__temp_msys64_mingw64_lib_libcairo_2_lib_s01105.o
 0001:000001e0       cairo_get_antialias        00000001800011e0     libcairo-2:D__a__temp_msys64_mingw64_lib_libcairo_2_lib_s01176.o
 0001:000001e8       cairo_set_source_rgba      00000001800011e8     libcairo-2:D__a__temp_msys64_mingw64_lib_libcairo_2_lib_s01394.o
 0001:000001f0       cairo_copy_path_flat       00000001800011f0     libcairo-2:D__a__temp_msys64_mingw64_lib_libcairo_2_lib_s01112.o
 0001:000001f8       cairo_set_source           00000001800011f8     libcairo-2:D__a__temp_msys64_mingw64_lib_libcairo_2_lib_s01392.o
 0001:00000200       cairo_scale                0000000180001200     libcairo-2:D__a__temp_msys64_mingw64_lib_libcairo_2_lib_s01350.o
 0001:00000208       cairo_user_to_device_distance 0000000180001208     libcairo-2:D__a__temp_msys64_mingw64_lib_libcairo_2_lib_s01485.o
 0001:00000210       cairo_pattern_get_color_stop_count 0000000180001210     libcairo-2:D__a__temp_msys64_mingw64_lib_libcairo_2_lib_s01260.o
 0001:00000218       cairo_set_matrix           0000000180001218     libcairo-2:D__a__temp_msys64_mingw64_lib_libcairo_2_lib_s01388.o
 0001:00000220       cairo_surface_mark_dirty   0000000180001220     libcairo-2:D__a__temp_msys64_mingw64_lib_libcairo_2_lib_s01427.o
 0001:00000228       cairo_copy_path            0000000180001228     libcairo-2:D__a__temp_msys64_mingw64_lib_libcairo_2_lib_s01111.o
 0001:00000230       cairo_fill_preserve        0000000180001230     libcairo-2:D__a__temp_msys64_mingw64_lib_libcairo_2_lib_s01141.o
 0001:00000238       cairo_pattern_get_surface  0000000180001238     libcairo-2:D__a__temp_msys64_mingw64_lib_libcairo_2_lib_s01269.o
 0001:00000240       cairo_rotate               0000000180001240     libcairo-2:D__a__temp_msys64_mingw64_lib_libcairo_2_lib_s01348.o
 0001:00000248       cairo_stroke_extents       0000000180001248     libcairo-2:D__a__temp_msys64_mingw64_lib_libcairo_2_lib_s01405.o
 0001:00000250       cairo_pop_group_to_source  0000000180001250     libcairo-2:D__a__temp_msys64_mingw64_lib_libcairo_2_lib_s01290.o
 0001:00000258       cairo_get_dash             0000000180001258     libcairo-2:D__a__temp_msys64_mingw64_lib_libcairo_2_lib_s01178.o
 0001:00000260       cairo_get_miter_limit      0000000180001260     libcairo-2:D__a__temp_msys64_mingw64_lib_libcairo_2_lib_s01190.o
 0001:00000268       cairo_pattern_get_color_stop_rgba 0000000180001268     libcairo-2:D__a__temp_msys64_mingw64_lib_libcairo_2_lib_s01261.o
 0001:00000270       cairo_append_path          0000000180001270     libcairo-2:D__a__temp_msys64_mingw64_lib_libcairo_2_lib_s01102.o
 0001:00000278       cairo_new_path             0000000180001278     libcairo-2:D__a__temp_msys64_mingw64_lib_libcairo_2_lib_s01244.o
 0001:00000280       cairo_identity_matrix      0000000180001280     libcairo-2:D__a__temp_msys64_mingw64_lib_libcairo_2_lib_s01203.o
 0001:00000288       cairo_get_line_join        0000000180001288     libcairo-2:D__a__temp_msys64_mingw64_lib_libcairo_2_lib_s01187.o
 0001:00000290       cairo_in_stroke            0000000180001290     libcairo-2:D__a__temp_msys64_mingw64_lib_libcairo_2_lib_s01215.o
 0001:00000298       cairo_paint_with_alpha     0000000180001298     libcairo-2:D__a__temp_msys64_mingw64_lib_libcairo_2_lib_s01247.o
 0001:000002a0       cairo_set_antialias        00000001800012a0     libcairo-2:D__a__temp_msys64_mingw64_lib_libcairo_2_lib_s01377.o
 0001:000002a8       cairo_get_dash_count       00000001800012a8     libcairo-2:D__a__temp_msys64_mingw64_lib_libcairo_2_lib_s01179.o
 0001:000002b0       cairo_set_dash             00000001800012b0     libcairo-2:D__a__temp_msys64_mingw64_lib_libcairo_2_lib_s01378.o
 0001:000002b8       cairo_transform            00000001800012b8     libcairo-2:D__a__temp_msys64_mingw64_lib_libcairo_2_lib_s01471.o
 0001:000002c0       cairo_close_path           00000001800012c0     libcairo-2:D__a__temp_msys64_mingw64_lib_libcairo_2_lib_s01108.o
 0001:000002c8       cairo_arc                  00000001800012c8     libcairo-2:D__a__temp_msys64_mingw64_lib_libcairo_2_lib_s01103.o
 0001:000002d0       cairo_get_line_width       00000001800012d0     libcairo-2:D__a__temp_msys64_mingw64_lib_libcairo_2_lib_s01188.o
 0001:000002d8       cairo_pattern_get_type     00000001800012d8     libcairo-2:D__a__temp_msys64_mingw64_lib_libcairo_2_lib_s01270.o
 0001:000002e0       cairo_clip_preserve        00000001800012e0     libcairo-2:D__a__temp_msys64_mingw64_lib_libcairo_2_lib_s01107.o
 0001:000002e8       cairo_path_extents         00000001800012e8     libcairo-2:D__a__temp_msys64_mingw64_lib_libcairo_2_lib_s01249.o
 0001:000002f0       cairo_set_miter_limit      00000001800012f0     libcairo-2:D__a__temp_msys64_mingw64_lib_libcairo_2_lib_s01389.o
 0001:000002f8       cairo_get_current_point    00000001800012f8     libcairo-2:D__a__temp_msys64_mingw64_lib_libcairo_2_lib_s01177.o
 0001:00000300       cairo_translate            0000000180001300     libcairo-2:D__a__temp_msys64_mingw64_lib_libcairo_2_lib_s01472.o
 0001:00000308       cairo_pattern_get_radial_circles 0000000180001308     libcairo-2:D__a__temp_msys64_mingw64_lib_libcairo_2_lib_s01266.o
 0001:00000310       cairo_curve_to             0000000180001310     libcairo-2:D__a__temp_msys64_mingw64_lib_libcairo_2_lib_s01114.o
 0001:00000318       cairo_format_stride_for_width 0000000180001318     libcairo-2:D__a__temp_msys64_mingw64_lib_libcairo_2_lib_s01167.o
 0001:00000320       cairo_image_surface_create_from_png 0000000180001320     libcairo-2:D__a__temp_msys64_mingw64_lib_libcairo_2_lib_s01206.o
 0001:00000328       cairo_image_surface_create_from_png_stream 0000000180001328     libcairo-2:D__a__temp_msys64_mingw64_lib_libcairo_2_lib_s01207.o
 0001:00000330       cairo_image_surface_create_for_data 0000000180001330     libcairo-2:D__a__temp_msys64_mingw64_lib_libcairo_2_lib_s01205.o
 0001:00000338       cairo_surface_set_mime_data 0000000180001338     libcairo-2:D__a__temp_msys64_mingw64_lib_libcairo_2_lib_s01442.o
 0001:00000340       cairo_version_string       0000000180001340     libcairo-2:D__a__temp_msys64_mingw64_lib_libcairo_2_lib_s01487.o
 0001:00000350       png_destroy_write_struct   0000000180001350     libpng16-16:D__a__temp_msys64_mingw64_lib_libpng16_16_lib_s00019.o
 0001:00000358       png_set_bKGD               0000000180001358     libpng16-16:D__a__temp_msys64_mingw64_lib_libpng16_16_lib_s00155.o
 0001:00000360       png_set_write_user_transform_fn 0000000180001360     libpng16-16:D__a__temp_msys64_mingw64_lib_libpng16_16_lib_s00247.o
 0001:00000368       png_set_tRNS               0000000180001368     libpng16-16:D__a__temp_msys64_mingw64_lib_libpng16_16_lib_s00233.o
 0001:00000370       png_set_pHYs               0000000180001370     libpng16-16:D__a__temp_msys64_mingw64_lib_libpng16_16_lib_s00204.o
 0001:00000378       png_set_longjmp_fn         0000000180001378     libpng16-16:D__a__temp_msys64_mingw64_lib_libpng16_16_lib_s00198.o
 0001:00000380       png_malloc                 0000000180001380     libpng16-16:D__a__temp_msys64_mingw64_lib_libpng16_16_lib_s00129.o
 0001:00000388       png_get_io_ptr             0000000180001388     libpng16-16:D__a__temp_msys64_mingw64_lib_libpng16_16_lib_s00058.o
 0001:00000390       png_write_info             0000000180001390     libpng16-16:D__a__temp_msys64_mingw64_lib_libpng16_16_lib_s00260.o
 0001:00000398       png_set_packswap           0000000180001398     libpng16-16:D__a__temp_msys64_mingw64_lib_libpng16_16_lib_s00206.o
 0001:000003a0       png_write_image            00000001800013a0     libpng16-16:D__a__temp_msys64_mingw64_lib_libpng16_16_lib_s00259.o
 0001:000003a8       png_get_error_ptr          00000001800013a8     libpng16-16:D__a__temp_msys64_mingw64_lib_libpng16_16_lib_s00044.o
 0001:000003b0       png_set_packing            00000001800013b0     libpng16-16:D__a__temp_msys64_mingw64_lib_libpng16_16_lib_s00205.o
 0001:000003b8       png_set_PLTE               00000001800013b8     libpng16-16:D__a__temp_msys64_mingw64_lib_libpng16_16_lib_s00150.o
 0001:000003c0       png_set_filter             00000001800013c0     libpng16-16:D__a__temp_msys64_mingw64_lib_libpng16_16_lib_s00181.o
 0001:000003c8       png_data_freer             00000001800013c8     libpng16-16:D__a__temp_msys64_mingw64_lib_libpng16_16_lib_s00016.o
 0001:000003d0       png_set_compression_level  00000001800013d0     libpng16-16:D__a__temp_msys64_mingw64_lib_libpng16_16_lib_s00168.o
 0001:000003d8       png_set_IHDR               00000001800013d8     libpng16-16:D__a__temp_msys64_mingw64_lib_libpng16_16_lib_s00149.o
 0001:000003e0       png_set_write_fn           00000001800013e0     libpng16-16:D__a__temp_msys64_mingw64_lib_libpng16_16_lib_s00245.o
 0001:000003e8       png_create_info_struct     00000001800013e8     libpng16-16:D__a__temp_msys64_mingw64_lib_libpng16_16_lib_s00011.o
 0001:000003f0       png_set_filler             00000001800013f0     libpng16-16:D__a__temp_msys64_mingw64_lib_libpng16_16_lib_s00180.o
 0001:000003f8       png_write_end              00000001800013f8     libpng16-16:D__a__temp_msys64_mingw64_lib_libpng16_16_lib_s00255.o
 0001:00000400       png_error                  0000000180001400     libpng16-16:D__a__temp_msys64_mingw64_lib_libpng16_16_lib_s00020.o
 0001:00000408       png_create_write_struct_2  0000000180001408     libpng16-16:D__a__temp_msys64_mingw64_lib_libpng16_16_lib_s00015.o
 0001:00000410       jpeg_simple_progression    0000000180001410     libjpeg-8:D__a__temp_msys64_mingw64_lib_libjpeg_8_lib_s00091.o
 0001:00000418       jpeg_set_quality           0000000180001418     libjpeg-8:D__a__temp_msys64_mingw64_lib_libjpeg_8_lib_s00090.o
 0001:00000420       jpeg_CreateCompress        0000000180001420     libjpeg-8:D__a__temp_msys64_mingw64_lib_libjpeg_8_lib_s00029.o
 0001:00000428       jpeg_std_error             0000000180001428     libjpeg-8:D__a__temp_msys64_mingw64_lib_libjpeg_8_lib_s00096.o
 0001:00000430       jpeg_destroy_compress      0000000180001430     libjpeg-8:D__a__temp_msys64_mingw64_lib_libjpeg_8_lib_s00046.o
 0001:00000438       jpeg_set_defaults          0000000180001438     libjpeg-8:D__a__temp_msys64_mingw64_lib_libjpeg_8_lib_s00087.o
 0001:00000440       jpeg_finish_compress       0000000180001440     libjpeg-8:D__a__temp_msys64_mingw64_lib_libjpeg_8_lib_s00052.o
 0001:00000448       jpeg_write_scanlines       0000000180001448     libjpeg-8:D__a__temp_msys64_mingw64_lib_libjpeg_8_lib_s00106.o
 0001:00000450       jpeg_start_compress        0000000180001450     libjpeg-8:D__a__temp_msys64_mingw64_lib_libjpeg_8_lib_s00093.o
 0001:00000458       jpeg_CreateDecompress      0000000180001458     libjpeg-8:D__a__temp_msys64_mingw64_lib_libjpeg_8_lib_s00030.o
 0001:00000460       jpeg_destroy_decompress    0000000180001460     libjpeg-8:D__a__temp_msys64_mingw64_lib_libjpeg_8_lib_s00047.o
 0001:00000468       jpeg_read_header           0000000180001468     libjpeg-8:D__a__temp_msys64_mingw64_lib_libjpeg_8_lib_s00080.o
 0001:00000470       jpeg_start_decompress      0000000180001470     libjpeg-8:D__a__temp_msys64_mingw64_lib_libjpeg_8_lib_s00094.o
 0001:00000478       jpeg_stdio_src             0000000180001478     libjpeg-8:D__a__temp_msys64_mingw64_lib_libjpeg_8_lib_s00098.o
 0001:00000480       jpeg_finish_decompress     0000000180001480     libjpeg-8:D__a__temp_msys64_mingw64_lib_libjpeg_8_lib_s00053.o
 0001:00000488       jpeg_abort_decompress      0000000180001488     libjpeg-8:D__a__temp_msys64_mingw64_lib_libjpeg_8_lib_s00033.o
 0001:00000490       jpeg_mem_src               0000000180001490     libjpeg-8:D__a__temp_msys64_mingw64_lib_libjpeg_8_lib_s00074.o
 0001:00000498       jpeg_read_scanlines        0000000180001498     libjpeg-8:D__a__temp_msys64_mingw64_lib_libjpeg_8_lib_s00083.o
 0001:000004a0       pango_font_description_better_match 00000001800014a0     libpango-1.0-0:D__a__temp_msys64_mingw64_lib_libpango_1_0_0_lib_s00141.o
 0001:000004a8       pango_font_description_set_style 00000001800014a8     libpango-1.0-0:D__a__temp_msys64_mingw64_lib_libpango_1_0_0_lib_s00168.o
 0001:000004b0       pango_font_description_set_weight 00000001800014b0     libpango-1.0-0:D__a__temp_msys64_mingw64_lib_libpango_1_0_0_lib_s00172.o
 0001:000004b8       pango_font_description_equal 00000001800014b8     libpango-1.0-0:D__a__temp_msys64_mingw64_lib_libpango_1_0_0_lib_s00144.o
 0001:000004c0       pango_font_description_new 00000001800014c0     libpango-1.0-0:D__a__temp_msys64_mingw64_lib_libpango_1_0_0_lib_s00161.o
 0001:000004c8       pango_font_description_free 00000001800014c8     libpango-1.0-0:D__a__temp_msys64_mingw64_lib_libpango_1_0_0_lib_s00145.o
 0001:000004d0       pango_font_description_get_family 00000001800014d0     libpango-1.0-0:D__a__temp_msys64_mingw64_lib_libpango_1_0_0_lib_s00147.o
 0001:000004d8       pango_font_description_set_family 00000001800014d8     libpango-1.0-0:D__a__temp_msys64_mingw64_lib_libpango_1_0_0_lib_s00163.o
 0001:000004e0       pango_font_description_copy 00000001800014e0     libpango-1.0-0:D__a__temp_msys64_mingw64_lib_libpango_1_0_0_lib_s00142.o
 0001:000004e8       pango_layout_get_font_description 00000001800014e8     libpango-1.0-0:D__a__temp_msys64_mingw64_lib_libpango_1_0_0_lib_s00305.o
 0001:000004f0       pango_context_get_metrics  00000001800014f0     libpango-1.0-0:D__a__temp_msys64_mingw64_lib_libpango_1_0_0_lib_s00102.o
 0001:000004f8       pango_layout_set_font_description 00000001800014f8     libpango-1.0-0:D__a__temp_msys64_mingw64_lib_libpango_1_0_0_lib_s00378.o
 0001:00000500       pango_layout_get_context   0000000180001500     libpango-1.0-0:D__a__temp_msys64_mingw64_lib_libpango_1_0_0_lib_s00300.o
 0001:00000508       pango_layout_get_extents   0000000180001508     libpango-1.0-0:D__a__temp_msys64_mingw64_lib_libpango_1_0_0_lib_s00304.o
 0001:00000510       pango_layout_line_get_extents 0000000180001510     libpango-1.0-0:D__a__temp_msys64_mingw64_lib_libpango_1_0_0_lib_s00357.o
 0001:00000518       pango_font_description_from_string 0000000180001518     libpango-1.0-0:D__a__temp_msys64_mingw64_lib_libpango_1_0_0_lib_s00146.o
 0001:00000520       pango_layout_get_pixel_extents 0000000180001520     libpango-1.0-0:D__a__temp_msys64_mingw64_lib_libpango_1_0_0_lib_s00319.o
 0001:00000528       pango_font_description_set_absolute_size 0000000180001528     libpango-1.0-0:D__a__temp_msys64_mingw64_lib_libpango_1_0_0_lib_s00162.o
 0001:00000530       pango_context_get_language 0000000180001530     libpango-1.0-0:D__a__temp_msys64_mingw64_lib_libpango_1_0_0_lib_s00100.o
 0001:00000538       pango_font_metrics_unref   0000000180001538     libpango-1.0-0:D__a__temp_msys64_mingw64_lib_libpango_1_0_0_lib_s00223.o
 0001:00000540       pango_layout_get_baseline  0000000180001540     libpango-1.0-0:D__a__temp_msys64_mingw64_lib_libpango_1_0_0_lib_s00297.o
 0001:00000548       pango_layout_set_text      0000000180001548     libpango-1.0-0:D__a__temp_msys64_mingw64_lib_libpango_1_0_0_lib_s00389.o
 0001:00000550       pango_layout_get_line      0000000180001550     libpango-1.0-0:D__a__temp_msys64_mingw64_lib_libpango_1_0_0_lib_s00311.o
 0001:00000558       pango_font_metrics_get_ascent 0000000180001558     libpango-1.0-0:D__a__temp_msys64_mingw64_lib_libpango_1_0_0_lib_s00213.o
 0001:00000560       pango_font_description_set_stretch 0000000180001560     libpango-1.0-0:D__a__temp_msys64_mingw64_lib_libpango_1_0_0_lib_s00167.o
 0001:00000568       pango_font_description_set_family_static 0000000180001568     libpango-1.0-0:D__a__temp_msys64_mingw64_lib_libpango_1_0_0_lib_s00164.o
 0001:00000570       pango_cairo_show_layout    0000000180001570     libpangocairo-1.0-0:D__a__temp_msys64_mingw64_lib_libpangocairo_1_0_0_lib_s00029.o
 0001:00000578       pango_cairo_update_layout  0000000180001578     libpangocairo-1.0-0:D__a__temp_msys64_mingw64_lib_libpangocairo_1_0_0_lib_s00032.o
 0001:00000580       pango_cairo_layout_path    0000000180001580     libpangocairo-1.0-0:D__a__temp_msys64_mingw64_lib_libpangocairo_1_0_0_lib_s00024.o
 0001:00000588       pango_cairo_create_layout  0000000180001588     libpangocairo-1.0-0:D__a__temp_msys64_mingw64_lib_libpangocairo_1_0_0_lib_s00007.o
 0001:00000590       pango_cairo_font_map_set_default 0000000180001590     libpangocairo-1.0-0:D__a__temp_msys64_mingw64_lib_libpangocairo_1_0_0_lib_s00020.o
 0001:000005a0       g_object_unref             00000001800015a0     libgobject-2.0-0:D__a__temp_msys64_mingw64_lib_libgobject_2_0_0_lib_s00172.o
 0001:000005b0       g_iconv_open               00000001800015b0     libglib-2.0-0:D__a__temp_msys64_mingw64_lib_libglib_2_0_0_lib_s00539.o
 0001:000005b8       g_iconv                    00000001800015b8     libglib-2.0-0:D__a__temp_msys64_mingw64_lib_libglib_2_0_0_lib_s00537.o
 0001:000005c0       DGifOpen                   00000001800015c0     libgif-7:D__a__temp_msys64_mingw64_lib_libgif_7_lib_s00014.o
 0001:000005c8       DGifSlurp                  00000001800015c8     libgif-7:D__a__temp_msys64_mingw64_lib_libgif_7_lib_s00018.o
 0001:000005d0       DGifCloseFile              00000001800015d0     libgif-7:D__a__temp_msys64_mingw64_lib_libgif_7_lib_s00000.o
 0001:000005e0       FT_Get_Sfnt_Table          00000001800015e0     libfreetype-6:D__a__temp_msys64_mingw64_lib_libfreetype_6_lib_s00092.o
 0001:000005e8       FT_Done_FreeType           00000001800015e8     libfreetype-6:D__a__temp_msys64_mingw64_lib_libfreetype_6_lib_s00035.o
 0001:000005f0       FT_Done_Face               00000001800015f0     libfreetype-6:D__a__temp_msys64_mingw64_lib_libfreetype_6_lib_s00034.o
 0001:000005f8       FT_Get_Sfnt_Name_Count     00000001800015f8     libfreetype-6:D__a__temp_msys64_mingw64_lib_libfreetype_6_lib_s00091.o
 0001:00000600       FT_Init_FreeType           0000000180001600     libfreetype-6:D__a__temp_msys64_mingw64_lib_libfreetype_6_lib_s00113.o
 0001:00000608       FT_Open_Face               0000000180001608     libfreetype-6:D__a__temp_msys64_mingw64_lib_libfreetype_6_lib_s00139.o
 0001:00000610       FT_Get_Sfnt_Name           0000000180001610     libfreetype-6:D__a__temp_msys64_mingw64_lib_libfreetype_6_lib_s00090.o
 0001:00000620       rsvg_handle_render_cairo   0000000180001620     librsvg-2-2:D__a__temp_msys64_mingw64_lib_librsvg_2_2_lib_s00029.o
 0001:00000628       rsvg_handle_new_from_data  0000000180001628     librsvg-2-2:D__a__temp_msys64_mingw64_lib_librsvg_2_2_lib_s00023.o
 0001:00000630       rsvg_handle_get_dimensions 0000000180001630     librsvg-2-2:D__a__temp_msys64_mingw64_lib_librsvg_2_2_lib_s00008.o
 0001:000024a0       ?what@exception@stdext@@UEBAPEBDXZ 00000001800034a0 f i Backend.obj
 0001:000024c0       ?_Raise@exception@stdext@@QEBAXXZ 00000001800034c0 f i Backend.obj
 0001:00002500       ?_Unlock@?$basic_streambuf@DU?$char_traits@D@std@@@std@@UEAAXXZ 0000000180003500 f i Canvas.obj
 0001:00002500       ?_Lock@?$basic_streambuf@DU?$char_traits@D@std@@@std@@UEAAXXZ 0000000180003500 f i Canvas.obj
 0001:00002500       ?imbue@?$basic_streambuf@DU?$char_traits@D@std@@@std@@MEAAXAEBVlocale@2@@Z 0000000180003500 f i Canvas.obj
 0001:00002500       ?stream_pdf_free@@YAXPEADPEAX@Z 0000000180003500 f i Canvas.obj
 0001:00002500       ?_Doraise@exception@stdext@@MEBAXXZ 0000000180003500 f i Backend.obj
 0001:00002500       ?init_closure_destination@@YAXPEAUjpeg_compress_struct@@@Z 0000000180003500 f i Canvas.obj
 0001:00002500       _guard_check_icall_nop     0000000180003500 f i LIBCMT:guard_support.obj
 0001:00002510       ??_Eexception@stdext@@UEAAPEAXI@Z 0000000180003510 f i * CIL library *:* CIL module *
 0001:00002510       ??_Ebad_array_new_length@stdext@@UEAAPEAXI@Z 0000000180003510 f i * CIL library *:* CIL module *
 0001:00002510       ??_Gruntime_error@std@@UEAAPEAXI@Z 0000000180003510 f i Canvas.obj
 0001:00002510       ??_Gexception@stdext@@UEAAPEAXI@Z 0000000180003510 f i Backend.obj
 0001:00002510       ??_Gbad_array_new_length@stdext@@UEAAPEAXI@Z 0000000180003510 f i Backend.obj
 0001:00002510       ??_Eruntime_error@std@@UEAAPEAXI@Z 0000000180003510 f i * CIL library *:* CIL module *
 0001:00002540       ?_Doraise@system_error@std@@MEBAXXZ 0000000180003540 f i Canvas.obj
 0001:00002540       ?_Doraise@failure@ios_base@std@@MEBAXXZ 0000000180003540 f i Canvas.obj
 0001:00002540       ?_Doraise@bad_alloc@stdext@@MEBAXXZ 0000000180003540 f i Backend.obj
 0001:00002540       ?_Doraise@runtime_error@std@@MEBAXXZ 0000000180003540 f i Canvas.obj
 0001:00002560       ??0bad_array_new_length@stdext@@QEAA@XZ 0000000180003560 f i Backend.obj
 0001:00002580       ??1runtime_error@std@@UEAA@XZ 0000000180003580 f i Canvas.obj
 0001:00002580       ??1failure@ios_base@std@@UEAA@XZ 0000000180003580 f i Canvas.obj
 0001:00002580       ??1bad_array_new_length@stdext@@UEAA@XZ 0000000180003580 f i Backend.obj
 0001:00002590       ?_Throw_bad_array_new_length@std@@YAXXZ 0000000180003590 f i Backend.obj
 0001:000025b0       ?_Xlen_string@std@@YAXXZ   00000001800035b0 f i Backend.obj
 0001:000025d0       ??1ObjectWrap@Nan@@UEAA@XZ 00000001800035d0 f i Backend.obj
 0001:00002610       ?Wrap@ObjectWrap@Nan@@IEAAXV?$Local@VObject@v8@@@v8@@@Z 0000000180003610 f i Backend.obj
 0001:000026e0       ?Ref@ObjectWrap@Nan@@MEAAXXZ 00000001800036e0 f i Backend.obj
 0001:00002720       ?Unref@ObjectWrap@Nan@@MEAAXXZ 0000000180003720 f i Backend.obj
 0001:000027d0       ?WeakCallback@ObjectWrap@Nan@@CAXAEBV?$WeakCallbackInfo@VObjectWrap@Nan@@@v8@@@Z 00000001800037d0 f i Backend.obj
 0001:00002830       ??_EObjectWrap@Nan@@UEAAPEAXI@Z 0000000180003830 f i * CIL library *:* CIL module *
 0001:00002830       ??_GObjectWrap@Nan@@UEAAPEAXI@Z 0000000180003830 f i Backend.obj
 0001:00002890       ?getFormat@Backend@@UEAA?AW4_cairo_format@@XZ 0000000180003890 f i Backend.obj
 0001:00002890       ?overflow@?$basic_streambuf@DU?$char_traits@D@std@@@std@@MEAAHH@Z 0000000180003890 f i Canvas.obj
 0001:00002890       ?pbackfail@?$basic_streambuf@DU?$char_traits@D@std@@@std@@MEAAHH@Z 0000000180003890 f i Canvas.obj
 0001:00002890       ?underflow@?$basic_streambuf@DU?$char_traits@D@std@@@std@@MEAAHXZ 0000000180003890 f i Canvas.obj
 0001:000028a0       ??0Backend@@IEAA@V?$basic_string@DU?$char_traits@D@std@@V?$allocator@D@2@@std@@HH@Z 00000001800038a0 f   Backend.obj
 0001:00002980       ??_GBackend@@UEAAPEAXI@Z   0000000180003980 f i Backend.obj
 0001:00002980       ??_EBackend@@UEAAPEAXI@Z   0000000180003980 f i * CIL library *:* CIL module *
 0001:000029c0       ??1Backend@@UEAA@XZ        00000001800039c0 f   Backend.obj
 0001:00002a80       ?init@Backend@@KAXAEBV?$FunctionCallbackInfo@VValue@v8@@@Nan@@@Z 0000000180003a80 f   Backend.obj
 0001:00002bf0       ?recreateSurface@Backend@@UEAAPEAU_cairo_surface@@XZ 0000000180003bf0 f   Backend.obj
 0001:00002c10       ?getSurface@Backend@@QEAAPEAU_cairo_surface@@XZ 0000000180003c10 f   Backend.obj
 0001:00002c40       ?destroySurface@Backend@@UEAAXXZ 0000000180003c40 f   Backend.obj
 0001:00002c70       ?getName@Backend@@QEAA?AV?$basic_string@DU?$char_traits@D@std@@V?$allocator@D@2@@std@@XZ 0000000180003c70 f   Backend.obj
 0001:00002c90       ?getWidth@Backend@@QEAAHXZ 0000000180003c90 f   Backend.obj
 0001:00002ca0       ?setWidth@Backend@@UEAAXH@Z 0000000180003ca0 f   Backend.obj
 0001:00002cb0       ?getHeight@Backend@@QEAAHXZ 0000000180003cb0 f   Backend.obj
 0001:00002cc0       ?setHeight@Backend@@UEAAXH@Z 0000000180003cc0 f   Backend.obj
 0001:00002cd0       ??1?$pair@$$CBV?$basic_string@DU?$char_traits@D@std@@V?$allocator@D@2@@std@@W4_cairo_operator@@@std@@QEAA@XZ 0000000180003cd0 f i CanvasRenderingContext2d.obj
 0001:00002cd0       ??1?$pair@$$CBV?$basic_string@DU?$char_traits@D@std@@V?$allocator@D@2@@std@@I@std@@QEAA@XZ 0000000180003cd0 f i color.obj
 0001:00002cd0       ??1?$pair@$$CBV?$basic_string@DU?$char_traits@D@std@@V?$allocator@D@2@@std@@W4text_align_t@@@std@@QEAA@XZ 0000000180003cd0 f i CanvasRenderingContext2d.obj
 0001:00002cd0       ??1?$basic_string@DU?$char_traits@D@std@@V?$allocator@D@2@@std@@QEAA@XZ 0000000180003cd0 f i Backend.obj
 0001:00002cd0       ??1?$pair@$$CBV?$basic_string@DU?$char_traits@D@std@@V?$allocator@D@2@@std@@W4text_baseline_t@@@std@@QEAA@XZ 0000000180003cd0 f i CanvasRenderingContext2d.obj
 0001:00002d30       ??0?$basic_string@DU?$char_traits@D@std@@V?$allocator@D@2@@std@@QEAA@AEBV01@@Z 0000000180003d30 f i Backend.obj
 0001:00002e10       ??$?HDU?$char_traits@D@std@@V?$allocator@D@1@@std@@YA?AV?$basic_string@DU?$char_traits@D@std@@V?$allocator@D@2@@0@QEBDAEBV10@@Z 0000000180003e10 f i Backend.obj
 0001:00002f60       ??$?HDU?$char_traits@D@std@@V?$allocator@D@1@@std@@YA?AV?$basic_string@DU?$char_traits@D@std@@V?$allocator@D@2@@0@$$QEAV10@QEBD@Z 0000000180003f60 f i Backend.obj
 0001:00002fc0       ?append@?$basic_string@DU?$char_traits@D@std@@V?$allocator@D@2@@std@@QEAAAEAV12@QEBD_K@Z 0000000180003fc0 f i Backend.obj
 0001:00003040       ??$_Reallocate_grow_by@V<lambda_65e615be2a453ca0576c979606f46740>@@PEBD_K@?$basic_string@DU?$char_traits@D@std@@V?$allocator@D@2@@std@@AEAAAEAV01@_KV<lambda_65e615be2a453ca0576c979606f46740>@@PEBD_K@Z 0000000180004040 f i Backend.obj
 0001:000032b0       ?New@?$Factory@VFunctionTemplate@v8@@@imp@Nan@@SA?AV?$Local@VFunctionTemplate@v8@@@v8@@P6AXAEBV?$FunctionCallbackInfo@VValue@v8@@@3@@ZV?$Local@VValue@v8@@@5@V?$Local@VSignature@v8@@@5@@Z 00000001800042b0 f i ImageBackend.obj
 0001:00003470       ?AdjustExternalMemory@Nan@@YAHH@Z 0000000180004470 f i ImageBackend.obj
 0001:000034f0       ??1EscapableHandleScope@Nan@@QEAA@XZ 00000001800044f0 f i Canvas.obj
 0001:000034f0       ??1HandleScope@Nan@@QEAA@XZ 00000001800044f0 f i ImageBackend.obj
 0001:00003500       ??0ImageBackend@@QEAA@HH@Z 0000000180004500 f   ImageBackend.obj
 0001:00003580       ??_GImageBackend@@UEAAPEAXI@Z 0000000180004580 f i ImageBackend.obj
 0001:00003580       ??_EImageBackend@@UEAAPEAXI@Z 0000000180004580 f i * CIL library *:* CIL module *
 0001:000035c0       ?createSurface@ImageBackend@@EEAAPEAU_cairo_surface@@XZ 00000001800045c0 f   ImageBackend.obj
 0001:00003670       ?destroySurface@ImageBackend@@EEAAXXZ 0000000180004670 f   ImageBackend.obj
 0001:000036e0       ?getFormat@ImageBackend@@UEAA?AW4_cairo_format@@XZ 00000001800046e0 f   ImageBackend.obj
 0001:000036f0       ?Initialize@ImageBackend@@SAXV?$Local@VObject@v8@@@v8@@@Z 00000001800046f0 f   ImageBackend.obj
 0001:00003900       ?New@ImageBackend@@SAXAEBV?$FunctionCallbackInfo@VValue@v8@@@Nan@@@Z 0000000180004900 f   ImageBackend.obj
 0001:00003900       ?New@PdfBackend@@SAXAEBV?$FunctionCallbackInfo@VValue@v8@@@Nan@@@Z 0000000180004900 f   PdfBackend.obj
 0001:00003900       ?New@SvgBackend@@SAXAEBV?$FunctionCallbackInfo@VValue@v8@@@Nan@@@Z 0000000180004900 f   SvgBackend.obj
 0001:00003910       ??0?$basic_string@DU?$char_traits@D@std@@V?$allocator@D@2@@std@@QEAA@QEBD@Z 0000000180004910 f i ImageBackend.obj
 0001:00003950       ?assign@?$basic_string@DU?$char_traits@D@std@@V?$allocator@D@2@@std@@QEAAAEAV12@QEBD@Z 0000000180004950 f i ImageBackend.obj
 0001:00003970       ?assign@?$basic_string@DU?$char_traits@D@std@@V?$allocator@D@2@@std@@QEAAAEAV12@QEBD_K@Z 0000000180004970 f i ImageBackend.obj
 0001:00003ad0       ?backend@Canvas@@QEAAPEAVBackend@@XZ 0000000180004ad0 f i PdfBackend.obj
 0001:00003ae0       ?surface@Canvas@@QEAAPEAU_cairo_surface@@XZ 0000000180004ae0 f i PdfBackend.obj
 0001:00003b10       ?data@Canvas@@QEAAPEAEXZ   0000000180004b10 f i PdfBackend.obj
 0001:00003b40       ?stride@Canvas@@QEAAHXZ    0000000180004b40 f i PdfBackend.obj
 0001:00003b70       ?nBytes@Canvas@@QEAA_KXZ   0000000180004b70 f i PdfBackend.obj
 0001:00003bb0       ?getWidth@Canvas@@QEAAHXZ  0000000180004bb0 f i PdfBackend.obj
 0001:00003bc0       ?getHeight@Canvas@@QEAAHXZ 0000000180004bc0 f i PdfBackend.obj
 0001:00003bd0       ?writeVec@Closure@@SA?AW4_cairo_status@@PEAXPEBEI@Z 0000000180004bd0 f i PdfBackend.obj
 0001:00003c00       ??1Closure@@QEAA@XZ        0000000180004c00 f i PdfBackend.obj
 0001:00003c80       ??0PdfBackend@@QEAA@HH@Z   0000000180004c80 f   PdfBackend.obj
 0001:00003d50       ??_GPdfBackend@@UEAAPEAXI@Z 0000000180004d50 f i PdfBackend.obj
 0001:00003d50       ??_EPdfBackend@@UEAAPEAXI@Z 0000000180004d50 f i * CIL library *:* CIL module *
 0001:00003de0       ?createSurface@PdfBackend@@EEAAPEAU_cairo_surface@@XZ 0000000180004de0 f   PdfBackend.obj
 0001:00003e50       ?recreateSurface@PdfBackend@@EEAAPEAU_cairo_surface@@XZ 0000000180004e50 f   PdfBackend.obj
 0001:00003e80       ?Initialize@PdfBackend@@SAXV?$Local@VObject@v8@@@v8@@@Z 0000000180004e80 f   PdfBackend.obj
 0001:00004090       ??$_Insert_range@PEBE@?$vector@EV?$allocator@E@std@@@std@@AEAAXV?$_Vector_const_iterator@V?$_Vector_val@U?$_Simple_types@E@std@@@std@@@1@PEBE1Uforward_iterator_tag@1@@Z 0000000180005090 f i PdfBackend.obj
 0001:00004290       ?_Xlength@?$vector@EV?$allocator@E@std@@@std@@CAXXZ 0000000180005290 f i PdfBackend.obj
 0001:00004290       ?_Xlength@?$vector@VFontFace@@V?$allocator@VFontFace@@@std@@@std@@CAXXZ 0000000180005290 f i Canvas.obj
 0001:00004290       ?_Xlength@?$vector@NV?$allocator@N@std@@@std@@CAXXZ 0000000180005290 f i CanvasRenderingContext2d.obj
 0001:000042b0       ?_Change_array@?$vector@EV?$allocator@E@std@@@std@@AEAAXQEAE_K1@Z 00000001800052b0 f i PdfBackend.obj
 0001:00004340       ??0SvgBackend@@QEAA@HH@Z   0000000180005340 f   SvgBackend.obj
 0001:00004410       ??_ESvgBackend@@UEAAPEAXI@Z 0000000180005410 f i * CIL library *:* CIL module *
 0001:00004410       ??_GSvgBackend@@UEAAPEAXI@Z 0000000180005410 f i SvgBackend.obj
 0001:000044b0       ?createSurface@SvgBackend@@EEAAPEAU_cairo_surface@@XZ 00000001800054b0 f   SvgBackend.obj
 0001:00004540       ?recreateSurface@SvgBackend@@EEAAPEAU_cairo_surface@@XZ 0000000180005540 f   SvgBackend.obj
 0001:000045a0       ?Initialize@SvgBackend@@SAXV?$Local@VObject@v8@@@v8@@@Z 00000001800055a0 f   SvgBackend.obj
 0001:000047b0       ??1Parser@BMPParser@@QEAA@XZ 00000001800057b0 f   BMPParser.obj
 0001:00004880       ?parse@Parser@BMPParser@@QEAAXPEAEH0@Z 0000000180005880 f   BMPParser.obj
 0001:00007350       ?getErrMsg@Parser@BMPParser@@QEBA?AV?$basic_string@DU?$char_traits@D@std@@V?$allocator@D@2@@std@@XZ 0000000180008350 f   BMPParser.obj
 0001:00007600       ?getStr@Parser@BMPParser@@AEAA?AV?$basic_string@DU?$char_traits@D@std@@V?$allocator@D@2@@std@@H_N@Z 0000000180008600 f   BMPParser.obj
 0001:000078e0       ?skip@Parser@BMPParser@@AEAAXH@Z 00000001800088e0 f i BMPParser.obj
 0001:00007a00       ?calcMaskShift@Parser@BMPParser@@AEAAXAEAI0AEAN@Z 0000000180008a00 f   BMPParser.obj
 0001:00007b80       ?setOp@Parser@BMPParser@@AEAAXV?$basic_string@DU?$char_traits@D@std@@V?$allocator@D@2@@std@@@Z 0000000180008b80 f   BMPParser.obj
 0001:00007c30       ?setErrUnsupported@Parser@BMPParser@@AEAAXV?$basic_string@DU?$char_traits@D@std@@V?$allocator@D@2@@std@@@Z 0000000180008c30 f   BMPParser.obj
 0001:00007d80       ?setErrUnknown@Parser@BMPParser@@AEAAXV?$basic_string@DU?$char_traits@D@std@@V?$allocator@D@2@@std@@@Z 0000000180008d80 f   BMPParser.obj
 0001:00007ed0       ?setErr@Parser@BMPParser@@AEAAXV?$basic_string@DU?$char_traits@D@std@@V?$allocator@D@2@@std@@@Z 0000000180008ed0 f   BMPParser.obj
 0001:00007f90       ?assign@?$basic_string@DU?$char_traits@D@std@@V?$allocator@D@2@@std@@QEAAAEAV12@_KD@Z 0000000180008f90 f i BMPParser.obj
 0001:00008100       ??$?HDU?$char_traits@D@std@@V?$allocator@D@1@@std@@YA?AV?$basic_string@DU?$char_traits@D@std@@V?$allocator@D@2@@0@AEBV10@QEBD@Z 0000000180009100 f i BMPParser.obj
 0001:00008250       ??$?9DU?$char_traits@D@std@@V?$allocator@D@1@@std@@YA_NAEBV?$basic_string@DU?$char_traits@D@std@@V?$allocator@D@2@@0@QEBD@Z 0000000180009250 f i BMPParser.obj
 0001:000082a0       ??$get@I$00@Parser@BMPParser@@AEAAIXZ 00000001800092a0 f i BMPParser.obj
 0001:000082a0       ??$get@H$00@Parser@BMPParser@@AEAAHXZ 00000001800092a0 f i BMPParser.obj
 0001:000083c0       ??$get@G$00@Parser@BMPParser@@AEAAGXZ 00000001800093c0 f i BMPParser.obj
 0001:000084f0       ??$get@E$0A@@Parser@BMPParser@@AEAAEXZ 00000001800094f0 f i BMPParser.obj
 0001:00008500       ??$get@E$00@Parser@BMPParser@@AEAAEPEAE@Z 0000000180009500 f i BMPParser.obj
 0001:00008610       ??$get@G$0A@@Parser@BMPParser@@AEAAGXZ 0000000180009610 f i BMPParser.obj
 0001:00008620       ??$get@I$0A@@Parser@BMPParser@@AEAAIXZ 0000000180009620 f i BMPParser.obj
 0001:00008630       ??$_Reallocate_grow_by@V<lambda_319d5e083f45f90dcdce5dce53cbb275>@@D@?$basic_string@DU?$char_traits@D@std@@V?$allocator@D@2@@std@@AEAAAEAV01@_KV<lambda_319d5e083f45f90dcdce5dce53cbb275>@@D@Z 0000000180009630 f i BMPParser.obj
 0001:000087a0       ??$_Reallocate_grow_by@V<lambda_f3a66ab6a0570788f31503db83886f49>@@_KPEBD_K@?$basic_string@DU?$char_traits@D@std@@V?$allocator@D@2@@std@@AEAAAEAV01@_KV<lambda_f3a66ab6a0570788f31503db83886f49>@@_KPEBD2@Z 00000001800097a0 f i BMPParser.obj
 0001:00008b00       ??1AsyncResource@Nan@@QEAA@XZ 0000000180009b00 f i Canvas.obj
 0001:00008b30       ?ThrowError@Nan@@YAXPEBD@Z 0000000180009b30 f i Canvas.obj
 0001:00008bc0       ?ThrowTypeError@Nan@@YAXPEBD@Z 0000000180009bc0 f i Canvas.obj
 0001:00008c50       ??0Utf8String@Nan@@QEAA@V?$Local@VValue@v8@@@v8@@@Z 0000000180009c50 f i Canvas.obj
 0001:00008d80       ??1Utf8String@Nan@@QEAA@XZ 0000000180009d80 f i Canvas.obj
 0001:00008da0       ?SetPrototypeMethod@Nan@@YAXV?$Local@VFunctionTemplate@v8@@@v8@@PEBDP6AXAEBV?$FunctionCallbackInfo@VValue@v8@@@1@@ZV?$Local@VValue@v8@@@3@@Z 0000000180009da0 f i Canvas.obj
 0001:00008e90       ?SetAccessor@Nan@@YAXV?$Local@VObjectTemplate@v8@@@v8@@V?$Local@VString@v8@@@3@P6AX1AEBV?$PropertyCallbackInfo@VValue@v8@@@1@@ZP6AX1V?$Local@VValue@v8@@@3@AEBV?$PropertyCallbackInfo@X@1@@Z4W4AccessControl@3@W4PropertyAttribute@3@@Z 0000000180009e90 f i Canvas.obj
 0001:00009050       ??0JpegClosure@@QEAA@PEAVCanvas@@@Z 000000018000a050 f i Canvas.obj
 0001:000090d0       ??1JpegClosure@@QEAA@XZ    000000018000a0d0 f i Canvas.obj
 0001:000092a0       ?setjmp_wrapper@@YA_NPEAUpng_struct_def@@@Z 000000018000a2a0 f   Canvas.obj
 0001:000097d0       ?default_error_condition@error_category@std@@UEBA?AVerror_condition@2@H@Z 000000018000a7d0 f i Canvas.obj
 0001:000097e0       ?equivalent@error_category@std@@UEBA_NHAEBVerror_condition@2@@Z 000000018000a7e0 f i Canvas.obj
 0001:00009820       ?equivalent@error_category@std@@UEBA_NAEBVerror_code@2@H@Z 000000018000a820 f i Canvas.obj
 0001:00009840       ?make_error_code@std@@YA?AVerror_code@1@W4io_errc@1@@Z 000000018000a840 f i Canvas.obj
 0001:00009860       ??_Gfailure@ios_base@std@@UEAAPEAXI@Z 000000018000a860 f i Canvas.obj
 0001:00009860       ??_G_System_error@std@@UEAAPEAXI@Z 000000018000a860 f i Canvas.obj
 0001:00009860       ??_E_System_error@std@@UEAAPEAXI@Z 000000018000a860 f i * CIL library *:* CIL module *
 0001:00009860       ??_Efailure@ios_base@std@@UEAAPEAXI@Z 000000018000a860 f i * CIL library *:* CIL module *
 0001:00009860       ??_Esystem_error@std@@UEAAPEAXI@Z 000000018000a860 f i * CIL library *:* CIL module *
 0001:00009860       ??_Gsystem_error@std@@UEAAPEAXI@Z 000000018000a860 f i Canvas.obj
 0001:00009890       ??0system_error@std@@QEAA@Verror_code@1@PEBD@Z 000000018000a890 f i Canvas.obj
 0001:00009aa0       ?name@_Iostream_error_category2@std@@UEBAPEBDXZ 000000018000aaa0 f i Canvas.obj
 0001:00009ab0       ?message@_Iostream_error_category2@std@@UEBA?AV?$basic_string@DU?$char_traits@D@std@@V?$allocator@D@2@@2@H@Z 000000018000aab0 f i Canvas.obj
 0001:00009b30       ??_E_Iostream_error_category2@std@@UEAAPEAXI@Z 000000018000ab30 f i * CIL library *:* CIL module *
 0001:00009b30       ??_G_Iostream_error_category2@std@@UEAAPEAXI@Z 000000018000ab30 f i Canvas.obj
 0001:00009b60       ??_G_Facet_base@std@@UEAAPEAXI@Z 000000018000ab60 f i Canvas.obj
 0001:00009b60       ??_E_Facet_base@std@@UEAAPEAXI@Z 000000018000ab60 f i * CIL library *:* CIL module *
 0001:00009b90       ?_Incref@facet@locale@std@@UEAAXXZ 000000018000ab90 f i Canvas.obj
 0001:00009ba0       ?_Decref@facet@locale@std@@UEAAPEAV_Facet_base@3@XZ 000000018000aba0 f i Canvas.obj
 0001:00009bb0       ??1locale@std@@QEAA@XZ     000000018000abb0 f i Canvas.obj
 0001:00009be0       ?_Getcat@?$ctype@D@std@@SA_KPEAPEBVfacet@locale@2@PEBV42@@Z 000000018000abe0 f i Canvas.obj
 0001:00009d70       ?do_tolower@?$ctype@D@std@@MEBADD@Z 000000018000ad70 f i Canvas.obj
 0001:00009d80       ?do_tolower@?$ctype@D@std@@MEBAPEBDPEADPEBD@Z 000000018000ad80 f i Canvas.obj
 0001:00009dd0       ?do_toupper@?$ctype@D@std@@MEBADD@Z 000000018000add0 f i Canvas.obj
 0001:00009de0       ?do_toupper@?$ctype@D@std@@MEBAPEBDPEADPEBD@Z 000000018000ade0 f i Canvas.obj
 0001:00009e30       ?do_narrow@?$ctype@D@std@@MEBADDD@Z 000000018000ae30 f i Canvas.obj
 0001:00009e30       ?do_widen@?$ctype@D@std@@MEBADD@Z 000000018000ae30 f i Canvas.obj
 0001:00009e40       ?do_widen@?$ctype@D@std@@MEBAPEBDPEBD0PEAD@Z 000000018000ae40 f i Canvas.obj
 0001:00009e60       ?do_narrow@?$ctype@D@std@@MEBAPEBDPEBD0DPEAD@Z 000000018000ae60 f i Canvas.obj
 0001:00009e80       ??_G?$ctype@D@std@@MEAAPEAXI@Z 000000018000ae80 f i Canvas.obj
 0001:00009e80       ??_E?$ctype@D@std@@MEAAPEAXI@Z 000000018000ae80 f i * CIL library *:* CIL module *
 0001:00009ef0       ??0failure@ios_base@std@@QEAA@PEBDAEBVerror_code@2@@Z 000000018000aef0 f i Canvas.obj
 0001:00009f30       ??_Eios_base@std@@UEAAPEAXI@Z 000000018000af30 f i * CIL library *:* CIL module *
 0001:00009f30       ??_Gios_base@std@@UEAAPEAXI@Z 000000018000af30 f i Canvas.obj
 0001:00009f70       ?empty_closure_output_buffer@@YAEPEAUjpeg_compress_struct@@@Z 000000018000af70 f   Canvas.obj
 0001:0000a200       ?term_closure_destination@@YAXPEAUjpeg_compress_struct@@@Z 000000018000b200 f   Canvas.obj
 0001:0000a550       ?encode_jpeg@@YAXUjpeg_compress_struct@@PEAU_cairo_surface@@H_NHH@Z 000000018000b550 f   Canvas.obj
 0001:0000a740       ?write_to_jpeg_buffer@@YAXPEAU_cairo_surface@@PEAUJpegClosure@@@Z 000000018000b740 f   Canvas.obj
 0001:0000a880       ?Initialize@Canvas@@SAXV?$Local@VObject@v8@@@v8@@@Z 000000018000b880 f   Canvas.obj
 0001:0000b180       ?New@Canvas@@SAXAEBV?$FunctionCallbackInfo@VValue@v8@@@Nan@@@Z 000000018000c180 f   Canvas.obj
 0001:0000b810       ?GetType@Canvas@@SAXV?$Local@VString@v8@@@v8@@AEBV?$PropertyCallbackInfo@VValue@v8@@@Nan@@@Z 000000018000c810 f   Canvas.obj
 0001:0000b8e0       ?GetStride@Canvas@@SAXV?$Local@VString@v8@@@v8@@AEBV?$PropertyCallbackInfo@VValue@v8@@@Nan@@@Z 000000018000c8e0 f   Canvas.obj
 0001:0000b9d0       ?GetWidth@Canvas@@SAXV?$Local@VString@v8@@@v8@@AEBV?$PropertyCallbackInfo@VValue@v8@@@Nan@@@Z 000000018000c9d0 f   Canvas.obj
 0001:0000baa0       ?SetWidth@Canvas@@SAXV?$Local@VString@v8@@@v8@@V?$Local@VValue@v8@@@3@AEBV?$PropertyCallbackInfo@X@Nan@@@Z 000000018000caa0 f   Canvas.obj
 0001:0000bbd0       ?GetHeight@Canvas@@SAXV?$Local@VString@v8@@@v8@@AEBV?$PropertyCallbackInfo@VValue@v8@@@Nan@@@Z 000000018000cbd0 f   Canvas.obj
 0001:0000bca0       ?SetHeight@Canvas@@SAXV?$Local@VString@v8@@@v8@@V?$Local@VValue@v8@@@3@AEBV?$PropertyCallbackInfo@X@Nan@@@Z 000000018000cca0 f   Canvas.obj
 0001:0000bdd0       ?ToPngBufferAsync@Canvas@@SAXPEAUuv_work_s@@@Z 000000018000cdd0 f   Canvas.obj
 0001:0000be60       ?ToJpegBufferAsync@Canvas@@SAXPEAUuv_work_s@@@Z 000000018000ce60 f   Canvas.obj
 0001:0000bea0       ?ToBufferAsyncAfter@Canvas@@SAXPEAUuv_work_s@@@Z 000000018000cea0 f   Canvas.obj
 0001:0000cfd0       ?ToBuffer@Canvas@@SAXAEBV?$FunctionCallbackInfo@VValue@v8@@@Nan@@@Z 000000018000dfd0 f   Canvas.obj
 0001:0000dd00       ??1PngClosure@@QEAA@XZ     000000018000ed00 f i Canvas.obj
 0001:0000dd10       ??1TryCatch@Nan@@QEAA@XZ   000000018000ed10 f i Canvas.obj
 0001:0000dfb0       ?StreamPNGSync@Canvas@@SAXAEBV?$FunctionCallbackInfo@VValue@v8@@@Nan@@@Z 000000018000efb0 f   Canvas.obj
 0001:0000e620       ?StreamPDFSync@Canvas@@SAXAEBV?$FunctionCallbackInfo@VValue@v8@@@Nan@@@Z 000000018000f620 f   Canvas.obj
 0001:0000ea30       ?StreamJPEGSync@Canvas@@SAXAEBV?$FunctionCallbackInfo@VValue@v8@@@Nan@@@Z 000000018000fa30 f   Canvas.obj
 0001:0000edb0       ?RegisterFont@Canvas@@SAXAEBV?$FunctionCallbackInfo@VValue@v8@@@Nan@@@Z 000000018000fdb0 f   Canvas.obj
 0001:0000f4c0       ?DeregisterAllFonts@Canvas@@SAXAEBV?$FunctionCallbackInfo@VValue@v8@@@Nan@@@Z 00000001800104c0 f   Canvas.obj
 0001:0000f620       ??_GCanvas@@EEAAPEAXI@Z    0000000180010620 f i Canvas.obj
 0001:0000f620       ??_ECanvas@@EEAAPEAXI@Z    0000000180010620 f i * CIL library *:* CIL module *
 0001:0000f6a0       ?GetStyleFromCSSString@Canvas@@SA?AW4PangoStyle@@PEBD@Z 00000001800106a0 f   Canvas.obj
 0001:0000f730       ?GetWeightFromCSSString@Canvas@@SA?AW4PangoWeight@@PEBD@Z 0000000180010730 f   Canvas.obj
 0001:0000f940       ?ResolveFontDescription@Canvas@@SAPEAU_PangoFontDescription@@PEBU2@@Z 0000000180010940 f   Canvas.obj
 0001:00010640       ??_D?$basic_istringstream@DU?$char_traits@D@std@@V?$allocator@D@2@@std@@QEAAXXZ 0000000180011640 f i Canvas.obj
 0001:000106e0       ??1?$unordered_set@V?$basic_string@DU?$char_traits@D@std@@V?$allocator@D@2@@std@@U?$hash@V?$basic_string@DU?$char_traits@D@std@@V?$allocator@D@2@@std@@@2@U?$equal_to@V?$basic_string@DU?$char_traits@D@std@@V?$allocator@D@2@@std@@@2@V?$allocator@V?$basic_string@DU?$char_traits@D@std@@V?$allocator@D@2@@std@@@2@@std@@QEAA@XZ 00000001800116e0 f i Canvas.obj
 0001:000106f0       ??1?$_Hash@V?$_Uset_traits@V?$basic_string@DU?$char_traits@D@std@@V?$allocator@D@2@@std@@V?$_Uhash_compare@V?$basic_string@DU?$char_traits@D@std@@V?$allocator@D@2@@std@@U?$hash@V?$basic_string@DU?$char_traits@D@std@@V?$allocator@D@2@@std@@@2@U?$equal_to@V?$basic_string@DU?$char_traits@D@std@@V?$allocator@D@2@@std@@@2@@2@V?$allocator@V?$basic_string@DU?$char_traits@D@std@@V?$allocator@D@2@@std@@@2@$0A@@std@@@std@@QEAA@XZ 00000001800116f0 f i Canvas.obj
 0001:00010760       ?resurface@Canvas@@QEAAXV?$Local@VObject@v8@@@v8@@@Z 0000000180011760 f   Canvas.obj
 0001:000109c0       ??1?$_Hash_vec@V?$allocator@V?$_List_unchecked_const_iterator@V?$_List_val@U?$_List_simple_types@V?$basic_string@DU?$char_traits@D@std@@V?$allocator@D@2@@std@@@std@@@std@@U_Iterator_base0@2@@std@@@std@@@std@@QEAA@XZ 00000001800119c0 f i Canvas.obj
 0001:00010a20       ??1?$list@V?$basic_string@DU?$char_traits@D@std@@V?$allocator@D@2@@std@@V?$allocator@V?$basic_string@DU?$char_traits@D@std@@V?$allocator@D@2@@std@@@2@@std@@QEAA@XZ 0000000180011a20 f i Canvas.obj
 0001:00010a50       ?seekpos@?$basic_stringbuf@DU?$char_traits@D@std@@V?$allocator@D@2@@std@@MEAA?AV?$fpos@U_Mbstatet@@@2@V32@H@Z 0000000180011a50 f i Canvas.obj
 0001:00010b40       ?seekoff@?$basic_stringbuf@DU?$char_traits@D@std@@V?$allocator@D@2@@std@@MEAA?AV?$fpos@U_Mbstatet@@@2@_JHH@Z 0000000180011b40 f i Canvas.obj
 0001:00010ca0       ?underflow@?$basic_stringbuf@DU?$char_traits@D@std@@V?$allocator@D@2@@std@@MEAAHXZ 0000000180011ca0 f i Canvas.obj
 0001:00010d10       ?pbackfail@?$basic_stringbuf@DU?$char_traits@D@std@@V?$allocator@D@2@@std@@MEAAHH@Z 0000000180011d10 f i Canvas.obj
 0001:00010d70       ?overflow@?$basic_stringbuf@DU?$char_traits@D@std@@V?$allocator@D@2@@std@@MEAAHH@Z 0000000180011d70 f i Canvas.obj
 0001:00010f80       ??1?$basic_stringbuf@DU?$char_traits@D@std@@V?$allocator@D@2@@std@@UEAA@XZ 0000000180011f80 f i Canvas.obj
 0001:00011080       ?sync@?$basic_streambuf@DU?$char_traits@D@std@@@std@@MEAAHXZ 0000000180012080 f i Canvas.obj
 0001:00011080       ?showmanyc@?$basic_streambuf@DU?$char_traits@D@std@@@std@@MEAA_JXZ 0000000180012080 f i Canvas.obj
 0001:00011090       ?setbuf@?$basic_streambuf@DU?$char_traits@D@std@@@std@@MEAAPEAV12@PEAD_J@Z 0000000180012090 f i Canvas.obj
 0001:000110a0       ?seekoff@?$basic_streambuf@DU?$char_traits@D@std@@@std@@MEAA?AV?$fpos@U_Mbstatet@@@2@_JHH@Z 00000001800120a0 f i Canvas.obj
 0001:000110a0       ?seekpos@?$basic_streambuf@DU?$char_traits@D@std@@@std@@MEAA?AV?$fpos@U_Mbstatet@@@2@V32@H@Z 00000001800120a0 f i Canvas.obj
 0001:000110c0       ?xsputn@?$basic_streambuf@DU?$char_traits@D@std@@@std@@MEAA_JPEBD_J@Z 00000001800120c0 f i Canvas.obj
 0001:00011180       ?xsgetn@?$basic_streambuf@DU?$char_traits@D@std@@@std@@MEAA_JPEAD_J@Z 0000000180012180 f i Canvas.obj
 0001:00011230       ?uflow@?$basic_streambuf@DU?$char_traits@D@std@@@std@@MEAAHXZ 0000000180012230 f i Canvas.obj
 0001:00011270       ??1?$basic_streambuf@DU?$char_traits@D@std@@@std@@UEAA@XZ 0000000180012270 f i Canvas.obj
 0001:000112d0       ??0?$basic_istringstream@DU?$char_traits@D@std@@V?$allocator@D@2@@std@@QEAA@AEBV?$basic_string@DU?$char_traits@D@std@@V?$allocator@D@2@@1@H@Z 00000001800122d0 f i Canvas.obj
 0001:000114a0       ??1?$basic_istream@DU?$char_traits@D@std@@@std@@UEAA@XZ 00000001800124a0 f i Canvas.obj
 0001:000114d0       ??1?$basic_ios@DU?$char_traits@D@std@@@std@@UEAA@XZ 00000001800124d0 f i Canvas.obj
 0001:000114f0       ??1?$_Yarn@D@std@@QEAA@XZ  00000001800124f0 f i Canvas.obj
 0001:000114f0       ??1?$_Yarn@_W@std@@QEAA@XZ 00000001800124f0 f i Canvas.obj
 0001:00011520       ??_G?$basic_stringbuf@DU?$char_traits@D@std@@V?$allocator@D@2@@std@@UEAAPEAXI@Z 0000000180012520 f i Canvas.obj
 0001:00011520       ??_E?$basic_stringbuf@DU?$char_traits@D@std@@V?$allocator@D@2@@std@@UEAAPEAXI@Z 0000000180012520 f i * CIL library *:* CIL module *
 0001:00011560       ??_G?$basic_streambuf@DU?$char_traits@D@std@@@std@@UEAAPEAXI@Z 0000000180012560 f i Canvas.obj
 0001:00011560       ??_E?$basic_streambuf@DU?$char_traits@D@std@@@std@@UEAAPEAXI@Z 0000000180012560 f i * CIL library *:* CIL module *
 0001:000115e0       ??_E?$basic_istringstream@DU?$char_traits@D@std@@V?$allocator@D@2@@std@@UEAAPEAXI@Z 00000001800125e0 f i * CIL library *:* CIL module *
 0001:000115e0       ??_G?$basic_istringstream@DU?$char_traits@D@std@@V?$allocator@D@2@@std@@UEAAPEAXI@Z 00000001800125e0 f i Canvas.obj
 0001:00011620       ??_G?$basic_istream@DU?$char_traits@D@std@@@std@@UEAAPEAXI@Z 0000000180012620 f i Canvas.obj
 0001:00011620       ??_E?$basic_istream@DU?$char_traits@D@std@@@std@@UEAAPEAXI@Z 0000000180012620 f i * CIL library *:* CIL module *
 0001:00011690       ??_G?$basic_ios@DU?$char_traits@D@std@@@std@@UEAAPEAXI@Z 0000000180012690 f i Canvas.obj
 0001:00011690       ??_E?$basic_ios@DU?$char_traits@D@std@@@std@@UEAAPEAXI@Z 0000000180012690 f i * CIL library *:* CIL module *
 0001:000116d0       ?_Pnavail@?$basic_streambuf@DU?$char_traits@D@std@@@std@@IEBA_JXZ 00000001800126d0 f i Canvas.obj
 0001:000116f0       ?_Gnavail@?$basic_streambuf@DU?$char_traits@D@std@@@std@@IEBA_JXZ 00000001800126f0 f i Canvas.obj
 0001:00011710       ??0?$basic_istream@DU?$char_traits@D@std@@@std@@QEAA@PEAV?$basic_streambuf@DU?$char_traits@D@std@@@1@_N@Z 0000000180012710 f i Canvas.obj
 0001:00011870       ?_Assign_grow@?$_Hash_vec@V?$allocator@V?$_List_unchecked_const_iterator@V?$_List_val@U?$_List_simple_types@V?$basic_string@DU?$char_traits@D@std@@V?$allocator@D@2@@std@@@std@@@std@@U_Iterator_base0@2@@std@@@std@@@std@@QEAAX_KV?$_List_unchecked_const_iterator@V?$_List_val@U?$_List_simple_types@V?$basic_string@DU?$char_traits@D@std@@V?$allocator@D@2@@std@@@std@@@std@@U_Iterator_base0@2@@2@@Z 0000000180012870 f i Canvas.obj
 0001:000119c0       ??$New@VString@v8@@V?$basic_string@DU?$char_traits@D@std@@V?$allocator@D@2@@std@@@Nan@@YA?AV?$MaybeLocal@VString@v8@@@v8@@V?$basic_string@DU?$char_traits@D@std@@V?$allocator@D@2@@std@@@Z 00000001800129c0 f i Canvas.obj
 0001:00011ab0       ??$use_facet@V?$ctype@D@std@@@std@@YAAEBV?$ctype@D@0@AEBVlocale@0@@Z 0000000180012ab0 f i Canvas.obj
 0001:00011bc0       ??$SetMethod@VFunctionTemplate@v8@@VLocal@2@@Nan@@YAXV?$Local@VFunctionTemplate@v8@@@v8@@PEBDP6AXAEBV?$FunctionCallbackInfo@VValue@v8@@@0@@ZV?$Local@VValue@v8@@@2@@Z 0000000180012bc0 f i Canvas.obj
 0001:00011c90       ??$Unwrap@VCanvas@@@ObjectWrap@Nan@@SAPEAVCanvas@@V?$Local@VObject@v8@@@v8@@@Z 0000000180012c90 f i Canvas.obj
 0001:00011c90       ??$Unwrap@VImage@@@ObjectWrap@Nan@@SAPEAVImage@@V?$Local@VObject@v8@@@v8@@@Z 0000000180012c90 f i CanvasPattern.obj
 0001:00011c90       ??$Unwrap@VPattern@@@ObjectWrap@Nan@@SAPEAVPattern@@V?$Local@VObject@v8@@@v8@@@Z 0000000180012c90 f i CanvasPattern.obj
 0001:00011c90       ??$Unwrap@VGradient@@@ObjectWrap@Nan@@SAPEAVGradient@@V?$Local@VObject@v8@@@v8@@@Z 0000000180012c90 f i CanvasGradient.obj
 0001:00011c90       ??$Unwrap@VContext2d@@@ObjectWrap@Nan@@SAPEAVContext2d@@V?$Local@VObject@v8@@@v8@@@Z 0000000180012c90 f i Canvas.obj
 0001:00011c90       ??$Unwrap@VImageData@@@ObjectWrap@Nan@@SAPEAVImageData@@V?$Local@VObject@v8@@@v8@@@Z 0000000180012c90 f i CanvasRenderingContext2d.obj
 0001:00011d20       ??$emplace@V?$basic_string@DU?$char_traits@D@std@@V?$allocator@D@2@@std@@@?$_Hash@V?$_Uset_traits@V?$basic_string@DU?$char_traits@D@std@@V?$allocator@D@2@@std@@V?$_Uhash_compare@V?$basic_string@DU?$char_traits@D@std@@V?$allocator@D@2@@std@@U?$hash@V?$basic_string@DU?$char_traits@D@std@@V?$allocator@D@2@@std@@@2@U?$equal_to@V?$basic_string@DU?$char_traits@D@std@@V?$allocator@D@2@@std@@@2@@2@V?$allocator@V?$basic_string@DU?$char_traits@D@std@@V?$allocator@D@2@@std@@@2@$0A@@std@@@std@@QEAA?AU?$pair@V?$_List_const_iterator@V?$_List_val@U?$_List_simple_types@V?$basic_string@DU?$char_traits@D@std@@V?$allocator@D@2@@std@@@std@@@std@@@std@@_N@1@$$QEAV?$basic_string@DU?$char_traits@D@std@@V?$allocator@D@2@@1@@Z 0000000180012d20 f i Canvas.obj
 0001:00012080       ??$_Emplace_reallocate@AEBVFontFace@@@?$vector@VFontFace@@V?$allocator@VFontFace@@@std@@@std@@QEAAPEAVFontFace@@QEAV2@AEBV2@@Z 0000000180013080 f i Canvas.obj
 0001:000122f0       ??$_Free_non_head@V?$allocator@U?$_List_node@V?$basic_string@DU?$char_traits@D@std@@V?$allocator@D@2@@std@@PEAX@std@@@std@@@?$_List_node@V?$basic_string@DU?$char_traits@D@std@@V?$allocator@D@2@@std@@PEAX@std@@SAXAEAV?$allocator@U?$_List_node@V?$basic_string@DU?$char_traits@D@std@@V?$allocator@D@2@@std@@PEAX@std@@@1@PEAU01@@Z 00000001800132f0 f i Canvas.obj
 0001:00012390       ??1?$_List_node_emplace_op2@V?$allocator@U?$_List_node@V?$basic_string@DU?$char_traits@D@std@@V?$allocator@D@2@@std@@PEAX@std@@@std@@@std@@QEAA@XZ 0000000180013390 f i Canvas.obj
 0001:00012420       ??1?$unique_ptr@V_Facet_base@std@@U?$default_delete@V_Facet_base@std@@@2@@std@@QEAA@XZ 0000000180013420 f i Canvas.obj
 0001:00012440       ??1?$_Alloc_construct_ptr@V?$allocator@U?$_List_node@V?$basic_string@DU?$char_traits@D@std@@V?$allocator@D@2@@std@@PEAX@std@@@std@@@std@@QEAA@XZ 0000000180013440 f i Canvas.obj
 0001:00012460       ?_Forced_rehash@?$_Hash@V?$_Uset_traits@V?$basic_string@DU?$char_traits@D@std@@V?$allocator@D@2@@std@@V?$_Uhash_compare@V?$basic_string@DU?$char_traits@D@std@@V?$allocator@D@2@@std@@U?$hash@V?$basic_string@DU?$char_traits@D@std@@V?$allocator@D@2@@std@@@2@U?$equal_to@V?$basic_string@DU?$char_traits@D@std@@V?$allocator@D@2@@std@@@2@@2@V?$allocator@V?$basic_string@DU?$char_traits@D@std@@V?$allocator@D@2@@std@@@2@$0A@@std@@@std@@IEAAX_K@Z 0000000180013460 f i Canvas.obj
 0001:000126e0       ??$getline@DU?$char_traits@D@std@@V?$allocator@D@2@@std@@YAAEAV?$basic_istream@DU?$char_traits@D@std@@@0@$$QEAV10@AEAV?$basic_string@DU?$char_traits@D@std@@V?$allocator@D@2@@0@D@Z 00000001800136e0 f i Canvas.obj
 0001:00012a10       ??$_Uninitialized_move@PEAVFontFace@@V?$allocator@VFontFace@@@std@@@std@@YAPEAVFontFace@@QEAV1@0PEAV1@AEAV?$allocator@VFontFace@@@0@@Z 0000000180013a10 f i Canvas.obj
 0001:00012ab0       ??1sentry@?$basic_istream@DU?$char_traits@D@std@@@std@@QEAA@XZ 0000000180013ab0 f i Canvas.obj
 0001:00012ae0       ??1_Sentry_base@?$basic_ostream@DU?$char_traits@D@std@@@std@@QEAA@XZ 0000000180013ae0 f i Canvas.obj
 0001:00012ae0       ??1_Sentry_base@?$basic_istream@DU?$char_traits@D@std@@@std@@QEAA@XZ 0000000180013ae0 f i Canvas.obj
 0001:00012b10       ?flush@?$basic_ostream@DU?$char_traits@D@std@@@std@@QEAAAEAV12@XZ 0000000180013b10 f i Canvas.obj
 0001:00012ca0       ??1sentry@?$basic_ostream@DU?$char_traits@D@std@@@std@@QEAA@XZ 0000000180013ca0 f i Canvas.obj
 0001:00012d58       ??_E?$basic_istream@DU?$char_traits@D@std@@@std@@$4PPPPPPPM@A@EAAPEAXI@Z 0000000180013d58 f i Canvas.obj
 0001:00012d64       ??_E?$basic_istringstream@DU?$char_traits@D@std@@V?$allocator@D@2@@std@@$4PPPPPPPM@A@EAAPEAXI@Z 0000000180013d64 f i Canvas.obj
 0001:00012d70       ?New@Gradient@@SAXAEBV?$FunctionCallbackInfo@VValue@v8@@@Nan@@@Z 0000000180013d70 f   CanvasGradient.obj
 0001:000133c0       ?AddColorStop@Gradient@@SAXAEBV?$FunctionCallbackInfo@VValue@v8@@@Nan@@@Z 00000001800143c0 f   CanvasGradient.obj
 0001:00013630       ??_EGradient@@EEAAPEAXI@Z  0000000180014630 f i * CIL library *:* CIL module *
 0001:00013630       ??_GGradient@@EEAAPEAXI@Z  0000000180014630 f i CanvasGradient.obj
 0001:000136b0       ?Initialize@Pattern@@SAXV?$Local@VObject@v8@@@v8@@@Z 00000001800146b0 f   CanvasPattern.obj
 0001:00013910       ?SaveExternalModules@Pattern@@SAXAEBV?$FunctionCallbackInfo@VValue@v8@@@Nan@@@Z 0000000180014910 f   CanvasPattern.obj
 0001:000139a0       ?New@Pattern@@SAXAEBV?$FunctionCallbackInfo@VValue@v8@@@Nan@@@Z 00000001800149a0 f   CanvasPattern.obj
 0001:00013d10       ?SetTransform@Pattern@@SAXAEBV?$FunctionCallbackInfo@VValue@v8@@@Nan@@@Z 0000000180014d10 f   CanvasPattern.obj
 0001:000144e0       ??_EPattern@@EEAAPEAXI@Z   00000001800154e0 f i * CIL library *:* CIL module *
 0001:000144e0       ??_GPattern@@EEAAPEAXI@Z   00000001800154e0 f i CanvasPattern.obj
 0001:00014560       ??$New@VFunction@v8@@@Nan@@YA?AV?$Local@VFunction@v8@@@v8@@P6AXAEBV?$FunctionCallbackInfo@VValue@v8@@@0@@ZV?$Local@VValue@v8@@@2@@Z 0000000180015560 f i CanvasPattern.obj
 0001:00014700       ?_Throw_tree_length_error@std@@YAXXZ 0000000180015700 f i CanvasRenderingContext2d.obj
 0001:00014850       ?Initialize@Context2d@@SAXV?$Local@VObject@v8@@@v8@@@Z 0000000180015850 f   CanvasRenderingContext2d.obj
 0001:00015640       ??$emplace@$$V@?$stack@Ucanvas_state_t@@V?$deque@Ucanvas_state_t@@V?$allocator@Ucanvas_state_t@@@std@@@std@@@std@@QEAA?A_TXZ 0000000180016640 f i CanvasRenderingContext2d.obj
 0001:00015760       ??_EContext2d@@EEAAPEAXI@Z 0000000180016760 f i * CIL library *:* CIL module *
 0001:00015760       ??_GContext2d@@EEAAPEAXI@Z 0000000180016760 f i CanvasRenderingContext2d.obj
 0001:00015830       ??1?$stack@Ucanvas_state_t@@V?$deque@Ucanvas_state_t@@V?$allocator@Ucanvas_state_t@@@std@@@std@@@std@@QEAA@XZ 0000000180016830 f i CanvasRenderingContext2d.obj
 0001:00015840       ?save@Context2d@@QEAAXXZ   0000000180016840 f   CanvasRenderingContext2d.obj
 0001:00015a90       ?create_transparent_gradient@@YAPEAU_cairo_pattern@@PEAU1@M@Z 0000000180016a90 f   CanvasRenderingContext2d.obj
 0001:00015c20       ?create_transparent_pattern@@YAPEAU_cairo_pattern@@PEAU1@M@Z 0000000180016c20 f   CanvasRenderingContext2d.obj
 0001:00015cf0       ?setFillRule@Context2d@@QEAAXV?$Local@VValue@v8@@@v8@@@Z 0000000180016cf0 f i CanvasRenderingContext2d.obj
 0001:00015dc0       ?fill@Context2d@@QEAAX_N@Z 0000000180016dc0 f   CanvasRenderingContext2d.obj
 0001:00016160       ?stroke@Context2d@@QEAAX_N@Z 0000000180017160 f   CanvasRenderingContext2d.obj
 0001:000163b0       ?shadow@Context2d@@QEAAXP6AXPEAU_cairo@@@Z@Z 00000001800173b0 f   CanvasRenderingContext2d.obj
 0001:00016850       ?blur@Context2d@@QEAAXPEAU_cairo_surface@@H@Z 0000000180017850 f   CanvasRenderingContext2d.obj
 0001:00016dc0       ?New@Context2d@@SAXAEBV?$FunctionCallbackInfo@VValue@v8@@@Nan@@@Z 0000000180017dc0 f   CanvasRenderingContext2d.obj
 0001:00017480       ?SaveExternalModules@Context2d@@SAXAEBV?$FunctionCallbackInfo@VValue@v8@@@Nan@@@Z 0000000180018480 f   CanvasRenderingContext2d.obj
 0001:00017590       ?GetFormat@Context2d@@SAXV?$Local@VString@v8@@@v8@@AEBV?$PropertyCallbackInfo@VValue@v8@@@Nan@@@Z 0000000180018590 f   CanvasRenderingContext2d.obj
 0001:00017820       ?AddPage@Context2d@@SAXAEBV?$FunctionCallbackInfo@VValue@v8@@@Nan@@@Z 0000000180018820 f   CanvasRenderingContext2d.obj
 0001:00017a80       ?PutImageData@Context2d@@SAXAEBV?$FunctionCallbackInfo@VValue@v8@@@Nan@@@Z 0000000180018a80 f   CanvasRenderingContext2d.obj
 0001:00018560       ?GetImageData@Context2d@@SAXAEBV?$FunctionCallbackInfo@VValue@v8@@@Nan@@@Z 0000000180019560 f   CanvasRenderingContext2d.obj
 0001:00019100       ?CreateImageData@Context2d@@SAXAEBV?$FunctionCallbackInfo@VValue@v8@@@Nan@@@Z 000000018001a100 f   CanvasRenderingContext2d.obj
 0001:00019770       ?DrawImage@Context2d@@SAXAEBV?$FunctionCallbackInfo@VValue@v8@@@Nan@@@Z 000000018001a770 f   CanvasRenderingContext2d.obj
 0001:0001a0a0       ?GetGlobalAlpha@Context2d@@SAXV?$Local@VString@v8@@@v8@@AEBV?$PropertyCallbackInfo@VValue@v8@@@Nan@@@Z 000000018001b0a0 f   CanvasRenderingContext2d.obj
 0001:0001a170       ?SetGlobalAlpha@Context2d@@SAXV?$Local@VString@v8@@@v8@@V?$Local@VValue@v8@@@3@AEBV?$PropertyCallbackInfo@X@Nan@@@Z 000000018001b170 f   CanvasRenderingContext2d.obj
 0001:0001a290       ?GetGlobalCompositeOperation@Context2d@@SAXV?$Local@VString@v8@@@v8@@AEBV?$PropertyCallbackInfo@VValue@v8@@@Nan@@@Z 000000018001b290 f   CanvasRenderingContext2d.obj
 0001:0001a530       ?SetPatternQuality@Context2d@@SAXV?$Local@VString@v8@@@v8@@V?$Local@VValue@v8@@@3@AEBV?$PropertyCallbackInfo@X@Nan@@@Z 000000018001b530 f   CanvasRenderingContext2d.obj
 0001:0001a750       ?GetPatternQuality@Context2d@@SAXV?$Local@VString@v8@@@v8@@AEBV?$PropertyCallbackInfo@VValue@v8@@@Nan@@@Z 000000018001b750 f   CanvasRenderingContext2d.obj
 0001:0001a870       ?SetImageSmoothingEnabled@Context2d@@SAXV?$Local@VString@v8@@@v8@@V?$Local@VValue@v8@@@3@AEBV?$PropertyCallbackInfo@X@Nan@@@Z 000000018001b870 f   CanvasRenderingContext2d.obj
 0001:0001a960       ?GetImageSmoothingEnabled@Context2d@@SAXV?$Local@VString@v8@@@v8@@AEBV?$PropertyCallbackInfo@VValue@v8@@@Nan@@@Z 000000018001b960 f   CanvasRenderingContext2d.obj
 0001:0001aa20       ?SetGlobalCompositeOperation@Context2d@@SAXV?$Local@VString@v8@@@v8@@V?$Local@VValue@v8@@@3@AEBV?$PropertyCallbackInfo@X@Nan@@@Z 000000018001ba20 f   CanvasRenderingContext2d.obj
 0001:0001b580       ??1?$_Tree@V?$_Tmap_traits@V?$basic_string@DU?$char_traits@D@std@@V?$allocator@D@2@@std@@IU?$less@V?$basic_string@DU?$char_traits@D@std@@V?$allocator@D@2@@std@@@2@V?$allocator@U?$pair@$$CBV?$basic_string@DU?$char_traits@D@std@@V?$allocator@D@2@@std@@I@std@@@2@$0A@@std@@@std@@QEAA@XZ 000000018001c580 f i color.obj
 0001:0001b580       ??1?$_Tree@V?$_Tmap_traits@V?$basic_string@DU?$char_traits@D@std@@V?$allocator@D@2@@std@@W4text_align_t@@U?$less@V?$basic_string@DU?$char_traits@D@std@@V?$allocator@D@2@@std@@@2@V?$allocator@U?$pair@$$CBV?$basic_string@DU?$char_traits@D@std@@V?$allocator@D@2@@std@@W4text_align_t@@@std@@@2@$0A@@std@@@std@@QEAA@XZ 000000018001c580 f i CanvasRenderingContext2d.obj
 0001:0001b580       ??1?$map@V?$basic_string@DU?$char_traits@D@std@@V?$allocator@D@2@@std@@W4text_align_t@@U?$less@V?$basic_string@DU?$char_traits@D@std@@V?$allocator@D@2@@std@@@2@V?$allocator@U?$pair@$$CBV?$basic_string@DU?$char_traits@D@std@@V?$allocator@D@2@@std@@W4text_align_t@@@std@@@2@@std@@QEAA@XZ 000000018001c580 f i CanvasRenderingContext2d.obj
 0001:0001b580       ??1?$map@V?$basic_string@DU?$char_traits@D@std@@V?$allocator@D@2@@std@@W4_cairo_operator@@U?$less@V?$basic_string@DU?$char_traits@D@std@@V?$allocator@D@2@@std@@@2@V?$allocator@U?$pair@$$CBV?$basic_string@DU?$char_traits@D@std@@V?$allocator@D@2@@std@@W4_cairo_operator@@@std@@@2@@std@@QEAA@XZ 000000018001c580 f i CanvasRenderingContext2d.obj
 0001:0001b580       ??1?$map@V?$basic_string@DU?$char_traits@D@std@@V?$allocator@D@2@@std@@W4text_baseline_t@@U?$less@V?$basic_string@DU?$char_traits@D@std@@V?$allocator@D@2@@std@@@2@V?$allocator@U?$pair@$$CBV?$basic_string@DU?$char_traits@D@std@@V?$allocator@D@2@@std@@W4text_baseline_t@@@std@@@2@@std@@QEAA@XZ 000000018001c580 f i CanvasRenderingContext2d.obj
 0001:0001b580       ??1?$_Tree@V?$_Tmap_traits@V?$basic_string@DU?$char_traits@D@std@@V?$allocator@D@2@@std@@W4text_baseline_t@@U?$less@V?$basic_string@DU?$char_traits@D@std@@V?$allocator@D@2@@std@@@2@V?$allocator@U?$pair@$$CBV?$basic_string@DU?$char_traits@D@std@@V?$allocator@D@2@@std@@W4text_baseline_t@@@std@@@2@$0A@@std@@@std@@QEAA@XZ 000000018001c580 f i CanvasRenderingContext2d.obj
 0001:0001b580       ??1?$_Tree@V?$_Tmap_traits@V?$basic_string@DU?$char_traits@D@std@@V?$allocator@D@2@@std@@W4_cairo_operator@@U?$less@V?$basic_string@DU?$char_traits@D@std@@V?$allocator@D@2@@std@@@2@V?$allocator@U?$pair@$$CBV?$basic_string@DU?$char_traits@D@std@@V?$allocator@D@2@@std@@W4_cairo_operator@@@std@@@2@$0A@@std@@@std@@QEAA@XZ 000000018001c580 f i CanvasRenderingContext2d.obj
 0001:0001b5b0       ?GetShadowOffsetX@Context2d@@SAXV?$Local@VString@v8@@@v8@@AEBV?$PropertyCallbackInfo@VValue@v8@@@Nan@@@Z 000000018001c5b0 f   CanvasRenderingContext2d.obj
 0001:0001b670       ?SetShadowOffsetX@Context2d@@SAXV?$Local@VString@v8@@@v8@@V?$Local@VValue@v8@@@3@AEBV?$PropertyCallbackInfo@X@Nan@@@Z 000000018001c670 f   CanvasRenderingContext2d.obj
 0001:0001b760       ?GetShadowOffsetY@Context2d@@SAXV?$Local@VString@v8@@@v8@@AEBV?$PropertyCallbackInfo@VValue@v8@@@Nan@@@Z 000000018001c760 f   CanvasRenderingContext2d.obj
 0001:0001b820       ?SetShadowOffsetY@Context2d@@SAXV?$Local@VString@v8@@@v8@@V?$Local@VValue@v8@@@3@AEBV?$PropertyCallbackInfo@X@Nan@@@Z 000000018001c820 f   CanvasRenderingContext2d.obj
 0001:0001b910       ?GetShadowBlur@Context2d@@SAXV?$Local@VString@v8@@@v8@@AEBV?$PropertyCallbackInfo@VValue@v8@@@Nan@@@Z 000000018001c910 f   CanvasRenderingContext2d.obj
 0001:0001b9e0       ?SetShadowBlur@Context2d@@SAXV?$Local@VString@v8@@@v8@@V?$Local@VValue@v8@@@3@AEBV?$PropertyCallbackInfo@X@Nan@@@Z 000000018001c9e0 f   CanvasRenderingContext2d.obj
 0001:0001bae0       ?GetAntiAlias@Context2d@@SAXV?$Local@VString@v8@@@v8@@AEBV?$PropertyCallbackInfo@VValue@v8@@@Nan@@@Z 000000018001cae0 f   CanvasRenderingContext2d.obj
 0001:0001bbf0       ?SetAntiAlias@Context2d@@SAXV?$Local@VString@v8@@@v8@@V?$Local@VValue@v8@@@3@AEBV?$PropertyCallbackInfo@X@Nan@@@Z 000000018001cbf0 f   CanvasRenderingContext2d.obj
 0001:0001bde0       ?GetTextDrawingMode@Context2d@@SAXV?$Local@VString@v8@@@v8@@AEBV?$PropertyCallbackInfo@VValue@v8@@@Nan@@@Z 000000018001cde0 f   CanvasRenderingContext2d.obj
 0001:0001bee0       ?SetTextDrawingMode@Context2d@@SAXV?$Local@VString@v8@@@v8@@V?$Local@VValue@v8@@@3@AEBV?$PropertyCallbackInfo@X@Nan@@@Z 000000018001cee0 f   CanvasRenderingContext2d.obj
 0001:0001c080       ?GetQuality@Context2d@@SAXV?$Local@VString@v8@@@v8@@AEBV?$PropertyCallbackInfo@VValue@v8@@@Nan@@@Z 000000018001d080 f   CanvasRenderingContext2d.obj
 0001:0001c1b0       ?SetQuality@Context2d@@SAXV?$Local@VString@v8@@@v8@@V?$Local@VValue@v8@@@3@AEBV?$PropertyCallbackInfo@X@Nan@@@Z 000000018001d1b0 f   CanvasRenderingContext2d.obj
 0001:0001c390       ?get_current_transform@@YA?AV?$Local@VObject@v8@@@v8@@PEAVContext2d@@@Z 000000018001d390 f   CanvasRenderingContext2d.obj
 0001:0001c5a0       ?parse_matrix_from_object@@YAXAEAU_cairo_matrix@@V?$Local@VObject@v8@@@v8@@@Z 000000018001d5a0 f   CanvasRenderingContext2d.obj
 0001:0001cc30       ?GetCurrentTransform@Context2d@@SAXV?$Local@VString@v8@@@v8@@AEBV?$PropertyCallbackInfo@VValue@v8@@@Nan@@@Z 000000018001dc30 f   CanvasRenderingContext2d.obj
 0001:0001cce0       ?SetCurrentTransform@Context2d@@SAXV?$Local@VString@v8@@@v8@@V?$Local@VValue@v8@@@3@AEBV?$PropertyCallbackInfo@X@Nan@@@Z 000000018001dce0 f   CanvasRenderingContext2d.obj
 0001:0001ce80       ?GetFillStyle@Context2d@@SAXV?$Local@VString@v8@@@v8@@AEBV?$PropertyCallbackInfo@VValue@v8@@@Nan@@@Z 000000018001de80 f   CanvasRenderingContext2d.obj
 0001:0001cfc0       ?SetFillStyle@Context2d@@SAXV?$Local@VString@v8@@@v8@@V?$Local@VValue@v8@@@3@AEBV?$PropertyCallbackInfo@X@Nan@@@Z 000000018001dfc0 f   CanvasRenderingContext2d.obj
 0001:0001d320       ?GetStrokeStyle@Context2d@@SAXV?$Local@VString@v8@@@v8@@AEBV?$PropertyCallbackInfo@VValue@v8@@@Nan@@@Z 000000018001e320 f   CanvasRenderingContext2d.obj
 0001:0001d470       ?SetStrokeStyle@Context2d@@SAXV?$Local@VString@v8@@@v8@@V?$Local@VValue@v8@@@3@AEBV?$PropertyCallbackInfo@X@Nan@@@Z 000000018001e470 f   CanvasRenderingContext2d.obj
 0001:0001d7d0       ?GetMiterLimit@Context2d@@SAXV?$Local@VString@v8@@@v8@@AEBV?$PropertyCallbackInfo@VValue@v8@@@Nan@@@Z 000000018001e7d0 f   CanvasRenderingContext2d.obj
 0001:0001d8a0       ?SetMiterLimit@Context2d@@SAXV?$Local@VString@v8@@@v8@@V?$Local@VValue@v8@@@3@AEBV?$PropertyCallbackInfo@X@Nan@@@Z 000000018001e8a0 f   CanvasRenderingContext2d.obj
 0001:0001d9a0       ?GetLineWidth@Context2d@@SAXV?$Local@VString@v8@@@v8@@AEBV?$PropertyCallbackInfo@VValue@v8@@@Nan@@@Z 000000018001e9a0 f   CanvasRenderingContext2d.obj
 0001:0001da70       ?SetLineWidth@Context2d@@SAXV?$Local@VString@v8@@@v8@@V?$Local@VValue@v8@@@3@AEBV?$PropertyCallbackInfo@X@Nan@@@Z 000000018001ea70 f   CanvasRenderingContext2d.obj
 0001:0001db80       ?GetLineJoin@Context2d@@SAXV?$Local@VString@v8@@@v8@@AEBV?$PropertyCallbackInfo@VValue@v8@@@Nan@@@Z 000000018001eb80 f   CanvasRenderingContext2d.obj
 0001:0001dc80       ?SetLineJoin@Context2d@@SAXV?$Local@VString@v8@@@v8@@V?$Local@VValue@v8@@@3@AEBV?$PropertyCallbackInfo@X@Nan@@@Z 000000018001ec80 f   CanvasRenderingContext2d.obj
 0001:0001de20       ?GetLineCap@Context2d@@SAXV?$Local@VString@v8@@@v8@@AEBV?$PropertyCallbackInfo@VValue@v8@@@Nan@@@Z 000000018001ee20 f   CanvasRenderingContext2d.obj
 0001:0001df20       ?SetLineCap@Context2d@@SAXV?$Local@VString@v8@@@v8@@V?$Local@VValue@v8@@@3@AEBV?$PropertyCallbackInfo@X@Nan@@@Z 000000018001ef20 f   CanvasRenderingContext2d.obj
 0001:0001e0c0       ?IsPointInPath@Context2d@@SAXAEBV?$FunctionCallbackInfo@VValue@v8@@@Nan@@@Z 000000018001f0c0 f   CanvasRenderingContext2d.obj
 0001:0001e300       ?SetShadowColor@Context2d@@SAXV?$Local@VString@v8@@@v8@@V?$Local@VValue@v8@@@3@AEBV?$PropertyCallbackInfo@X@Nan@@@Z 000000018001f300 f   CanvasRenderingContext2d.obj
 0001:0001e4b0       ?GetShadowColor@Context2d@@SAXV?$Local@VString@v8@@@v8@@AEBV?$PropertyCallbackInfo@VValue@v8@@@Nan@@@Z 000000018001f4b0 f   CanvasRenderingContext2d.obj
 0001:0001e5d0       ?CreatePattern@Context2d@@SAXAEBV?$FunctionCallbackInfo@VValue@v8@@@Nan@@@Z 000000018001f5d0 f   CanvasRenderingContext2d.obj
 0001:0001e800       ?CreateLinearGradient@Context2d@@SAXAEBV?$FunctionCallbackInfo@VValue@v8@@@Nan@@@Z 000000018001f800 f   CanvasRenderingContext2d.obj
 0001:0001ea10       ?CreateRadialGradient@Context2d@@SAXAEBV?$FunctionCallbackInfo@VValue@v8@@@Nan@@@Z 000000018001fa10 f   CanvasRenderingContext2d.obj
 0001:0001ec70       ?BezierCurveTo@Context2d@@SAXAEBV?$FunctionCallbackInfo@VValue@v8@@@Nan@@@Z 000000018001fc70 f   CanvasRenderingContext2d.obj
 0001:0001ed00       ?QuadraticCurveTo@Context2d@@SAXAEBV?$FunctionCallbackInfo@VValue@v8@@@Nan@@@Z 000000018001fd00 f   CanvasRenderingContext2d.obj
 0001:0001ee60       ?Save@Context2d@@SAXAEBV?$FunctionCallbackInfo@VValue@v8@@@Nan@@@Z 000000018001fe60 f   CanvasRenderingContext2d.obj
 0001:0001ee80       ?Restore@Context2d@@SAXAEBV?$FunctionCallbackInfo@VValue@v8@@@Nan@@@Z 000000018001fe80 f   CanvasRenderingContext2d.obj
 0001:0001ef40       ?BeginPath@Context2d@@SAXAEBV?$FunctionCallbackInfo@VValue@v8@@@Nan@@@Z 000000018001ff40 f   CanvasRenderingContext2d.obj
 0001:0001ef70       ?ClosePath@Context2d@@SAXAEBV?$FunctionCallbackInfo@VValue@v8@@@Nan@@@Z 000000018001ff70 f   CanvasRenderingContext2d.obj
 0001:0001efa0       ?Rotate@Context2d@@SAXAEBV?$FunctionCallbackInfo@VValue@v8@@@Nan@@@Z 000000018001ffa0 f   CanvasRenderingContext2d.obj
 0001:0001eff0       ?Transform@Context2d@@SAXAEBV?$FunctionCallbackInfo@VValue@v8@@@Nan@@@Z 000000018001fff0 f   CanvasRenderingContext2d.obj
 0001:0001f0a0       ?GetTransform@Context2d@@SAXAEBV?$FunctionCallbackInfo@VValue@v8@@@Nan@@@Z 00000001800200a0 f   CanvasRenderingContext2d.obj
 0001:0001f100       ?ResetTransform@Context2d@@SAXAEBV?$FunctionCallbackInfo@VValue@v8@@@Nan@@@Z 0000000180020100 f   CanvasRenderingContext2d.obj
 0001:0001f130       ?SetTransform@Context2d@@SAXAEBV?$FunctionCallbackInfo@VValue@v8@@@Nan@@@Z 0000000180020130 f   CanvasRenderingContext2d.obj
 0001:0001f2a0       ?Translate@Context2d@@SAXAEBV?$FunctionCallbackInfo@VValue@v8@@@Nan@@@Z 00000001800202a0 f   CanvasRenderingContext2d.obj
 0001:0001f2f0       ?Scale@Context2d@@SAXAEBV?$FunctionCallbackInfo@VValue@v8@@@Nan@@@Z 00000001800202f0 f   CanvasRenderingContext2d.obj
 0001:0001f340       ?Clip@Context2d@@SAXAEBV?$FunctionCallbackInfo@VValue@v8@@@Nan@@@Z 0000000180020340 f   CanvasRenderingContext2d.obj
 0001:0001f3a0       ?Fill@Context2d@@SAXAEBV?$FunctionCallbackInfo@VValue@v8@@@Nan@@@Z 00000001800203a0 f   CanvasRenderingContext2d.obj
 0001:0001f400       ?Stroke@Context2d@@SAXAEBV?$FunctionCallbackInfo@VValue@v8@@@Nan@@@Z 0000000180020400 f   CanvasRenderingContext2d.obj
 0001:0001f430       ?paintText@@YAXAEBV?$FunctionCallbackInfo@VValue@v8@@@Nan@@_N@Z 0000000180020430 f   CanvasRenderingContext2d.obj
 0001:0001f700       ?FillText@Context2d@@SAXAEBV?$FunctionCallbackInfo@VValue@v8@@@Nan@@@Z 0000000180020700 f   CanvasRenderingContext2d.obj
 0001:0001f710       ?StrokeText@Context2d@@SAXAEBV?$FunctionCallbackInfo@VValue@v8@@@Nan@@@Z 0000000180020710 f   CanvasRenderingContext2d.obj
 0001:0001f720       ?getBaselineAdjustment@@YANPEAU_PangoLayout@@F@Z 0000000180020720 f i CanvasRenderingContext2d.obj
 0001:0001f7d0       ?setTextPath@Context2d@@QEAAXNN@Z 00000001800207d0 f   CanvasRenderingContext2d.obj
 0001:0001f8d0       ?LineTo@Context2d@@SAXAEBV?$FunctionCallbackInfo@VValue@v8@@@Nan@@@Z 00000001800208d0 f   CanvasRenderingContext2d.obj
 0001:0001f920       ?MoveTo@Context2d@@SAXAEBV?$FunctionCallbackInfo@VValue@v8@@@Nan@@@Z 0000000180020920 f   CanvasRenderingContext2d.obj
 0001:0001f970       ?GetFont@Context2d@@SAXV?$Local@VString@v8@@@v8@@AEBV?$PropertyCallbackInfo@VValue@v8@@@Nan@@@Z 0000000180020970 f   CanvasRenderingContext2d.obj
 0001:0001fa70       ?SetFont@Context2d@@SAXV?$Local@VString@v8@@@v8@@V?$Local@VValue@v8@@@3@AEBV?$PropertyCallbackInfo@X@Nan@@@Z 0000000180020a70 f   CanvasRenderingContext2d.obj
 0001:00020390       ?GetTextBaseline@Context2d@@SAXV?$Local@VString@v8@@@v8@@AEBV?$PropertyCallbackInfo@VValue@v8@@@Nan@@@Z 0000000180021390 f   CanvasRenderingContext2d.obj
 0001:000204d0       ?SetTextBaseline@Context2d@@SAXV?$Local@VString@v8@@@v8@@V?$Local@VValue@v8@@@3@AEBV?$PropertyCallbackInfo@X@Nan@@@Z 00000001800214d0 f   CanvasRenderingContext2d.obj
 0001:00020a20       ?GetTextAlign@Context2d@@SAXV?$Local@VString@v8@@@v8@@AEBV?$PropertyCallbackInfo@VValue@v8@@@Nan@@@Z 0000000180021a20 f   CanvasRenderingContext2d.obj
 0001:00020b40       ?SetTextAlign@Context2d@@SAXV?$Local@VString@v8@@@v8@@V?$Local@VValue@v8@@@3@AEBV?$PropertyCallbackInfo@X@Nan@@@Z 0000000180021b40 f   CanvasRenderingContext2d.obj
 0001:00021050       ?MeasureText@Context2d@@SAXAEBV?$FunctionCallbackInfo@VValue@v8@@@Nan@@@Z 0000000180022050 f   CanvasRenderingContext2d.obj
 0001:00021910       ?SetLineDash@Context2d@@SAXAEBV?$FunctionCallbackInfo@VValue@v8@@@Nan@@@Z 0000000180022910 f   CanvasRenderingContext2d.obj
 0001:00021c20       ?GetLineDash@Context2d@@SAXAEBV?$FunctionCallbackInfo@VValue@v8@@@Nan@@@Z 0000000180022c20 f   CanvasRenderingContext2d.obj
 0001:00021ec0       ?SetLineDashOffset@Context2d@@SAXV?$Local@VString@v8@@@v8@@V?$Local@VValue@v8@@@3@AEBV?$PropertyCallbackInfo@X@Nan@@@Z 0000000180022ec0 f   CanvasRenderingContext2d.obj
 0001:000220b0       ?GetLineDashOffset@Context2d@@SAXV?$Local@VString@v8@@@v8@@AEBV?$PropertyCallbackInfo@VValue@v8@@@Nan@@@Z 00000001800230b0 f   CanvasRenderingContext2d.obj
 0001:00022180       ?FillRect@Context2d@@SAXAEBV?$FunctionCallbackInfo@VValue@v8@@@Nan@@@Z 0000000180023180 f   CanvasRenderingContext2d.obj
 0001:00022280       ?StrokeRect@Context2d@@SAXAEBV?$FunctionCallbackInfo@VValue@v8@@@Nan@@@Z 0000000180023280 f   CanvasRenderingContext2d.obj
 0001:00022380       ?ClearRect@Context2d@@SAXAEBV?$FunctionCallbackInfo@VValue@v8@@@Nan@@@Z 0000000180023380 f   CanvasRenderingContext2d.obj
 0001:000224a0       ?Rect@Context2d@@SAXAEBV?$FunctionCallbackInfo@VValue@v8@@@Nan@@@Z 00000001800234a0 f   CanvasRenderingContext2d.obj
 0001:00022af0       ?RoundRect@Context2d@@SAXAEBV?$FunctionCallbackInfo@VValue@v8@@@Nan@@@Z 0000000180023af0 f   CanvasRenderingContext2d.obj
 0001:000233a0       ?Arc@Context2d@@SAXAEBV?$FunctionCallbackInfo@VValue@v8@@@Nan@@@Z 00000001800243a0 f   CanvasRenderingContext2d.obj
 0001:00023660       ?ArcTo@Context2d@@SAXAEBV?$FunctionCallbackInfo@VValue@v8@@@Nan@@@Z 0000000180024660 f   CanvasRenderingContext2d.obj
 0001:00023c20       ?Ellipse@Context2d@@SAXAEBV?$FunctionCallbackInfo@VValue@v8@@@Nan@@@Z 0000000180024c20 f   CanvasRenderingContext2d.obj
 0001:00023e60       ??1?$vector@NV?$allocator@N@std@@@std@@QEAA@XZ 0000000180024e60 f i CanvasRenderingContext2d.obj
 0001:00023ec0       ??1?$deque@Ucanvas_state_t@@V?$allocator@Ucanvas_state_t@@@std@@@std@@QEAA@XZ 0000000180024ec0 f i CanvasRenderingContext2d.obj
 0001:00023fc0       ?_Growmap@?$deque@Ucanvas_state_t@@V?$allocator@Ucanvas_state_t@@@std@@@std@@AEAAX_K@Z 0000000180024fc0 f i CanvasRenderingContext2d.obj
 0001:000241a0       ?_Xlen@?$deque@Ucanvas_state_t@@V?$allocator@Ucanvas_state_t@@@std@@@std@@AEBAXXZ 00000001800251a0 f i CanvasRenderingContext2d.obj
 0001:000241c0       ??$_Erase_tree@V?$allocator@U?$_Tree_node@U?$pair@$$CBV?$basic_string@DU?$char_traits@D@std@@V?$allocator@D@2@@std@@W4_cairo_operator@@@std@@PEAX@std@@@std@@@?$_Tree_val@U?$_Tree_simple_types@U?$pair@$$CBV?$basic_string@DU?$char_traits@D@std@@V?$allocator@D@2@@std@@W4_cairo_operator@@@std@@@std@@@std@@QEAAXAEAV?$allocator@U?$_Tree_node@U?$pair@$$CBV?$basic_string@DU?$char_traits@D@std@@V?$allocator@D@2@@std@@W4_cairo_operator@@@std@@PEAX@std@@@1@PEAU?$_Tree_node@U?$pair@$$CBV?$basic_string@DU?$char_traits@D@std@@V?$allocator@D@2@@std@@W4_cairo_operator@@@std@@PEAX@1@@Z 00000001800251c0 f i CanvasRenderingContext2d.obj
 0001:000241c0       ??$_Erase_tree@V?$allocator@U?$_Tree_node@U?$pair@$$CBV?$basic_string@DU?$char_traits@D@std@@V?$allocator@D@2@@std@@I@std@@PEAX@std@@@std@@@?$_Tree_val@U?$_Tree_simple_types@U?$pair@$$CBV?$basic_string@DU?$char_traits@D@std@@V?$allocator@D@2@@std@@I@std@@@std@@@std@@QEAAXAEAV?$allocator@U?$_Tree_node@U?$pair@$$CBV?$basic_string@DU?$char_traits@D@std@@V?$allocator@D@2@@std@@I@std@@PEAX@std@@@1@PEAU?$_Tree_node@U?$pair@$$CBV?$basic_string@DU?$char_traits@D@std@@V?$allocator@D@2@@std@@I@std@@PEAX@1@@Z 00000001800251c0 f i color.obj
 0001:000241c0       ??$_Erase_tree@V?$allocator@U?$_Tree_node@U?$pair@$$CBV?$basic_string@DU?$char_traits@D@std@@V?$allocator@D@2@@std@@W4text_baseline_t@@@std@@PEAX@std@@@std@@@?$_Tree_val@U?$_Tree_simple_types@U?$pair@$$CBV?$basic_string@DU?$char_traits@D@std@@V?$allocator@D@2@@std@@W4text_baseline_t@@@std@@@std@@@std@@QEAAXAEAV?$allocator@U?$_Tree_node@U?$pair@$$CBV?$basic_string@DU?$char_traits@D@std@@V?$allocator@D@2@@std@@W4text_baseline_t@@@std@@PEAX@std@@@1@PEAU?$_Tree_node@U?$pair@$$CBV?$basic_string@DU?$char_traits@D@std@@V?$allocator@D@2@@std@@W4text_baseline_t@@@std@@PEAX@1@@Z 00000001800251c0 f i CanvasRenderingContext2d.obj
 0001:000241c0       ??$_Erase_tree@V?$allocator@U?$_Tree_node@U?$pair@$$CBV?$basic_string@DU?$char_traits@D@std@@V?$allocator@D@2@@std@@W4text_align_t@@@std@@PEAX@std@@@std@@@?$_Tree_val@U?$_Tree_simple_types@U?$pair@$$CBV?$basic_string@DU?$char_traits@D@std@@V?$allocator@D@2@@std@@W4text_align_t@@@std@@@std@@@std@@QEAAXAEAV?$allocator@U?$_Tree_node@U?$pair@$$CBV?$basic_string@DU?$char_traits@D@std@@V?$allocator@D@2@@std@@W4text_align_t@@@std@@PEAX@std@@@1@PEAU?$_Tree_node@U?$pair@$$CBV?$basic_string@DU?$char_traits@D@std@@V?$allocator@D@2@@std@@W4text_align_t@@@std@@PEAX@1@@Z 00000001800251c0 f i CanvasRenderingContext2d.obj
 0001:00024280       ?_Insert_node@?$_Tree_val@U?$_Tree_simple_types@U?$pair@$$CBV?$basic_string@DU?$char_traits@D@std@@V?$allocator@D@2@@std@@I@std@@@std@@@std@@QEAAPEAU?$_Tree_node@U?$pair@$$CBV?$basic_string@DU?$char_traits@D@std@@V?$allocator@D@2@@std@@I@std@@PEAX@2@U?$_Tree_id@PEAU?$_Tree_node@U?$pair@$$CBV?$basic_string@DU?$char_traits@D@std@@V?$allocator@D@2@@std@@I@std@@PEAX@std@@@2@QEAU32@@Z 0000000180025280 f i color.obj
 0001:00024280       ?_Insert_node@?$_Tree_val@U?$_Tree_simple_types@U?$pair@$$CBV?$basic_string@DU?$char_traits@D@std@@V?$allocator@D@2@@std@@W4_cairo_operator@@@std@@@std@@@std@@QEAAPEAU?$_Tree_node@U?$pair@$$CBV?$basic_string@DU?$char_traits@D@std@@V?$allocator@D@2@@std@@W4_cairo_operator@@@std@@PEAX@2@U?$_Tree_id@PEAU?$_Tree_node@U?$pair@$$CBV?$basic_string@DU?$char_traits@D@std@@V?$allocator@D@2@@std@@W4_cairo_operator@@@std@@PEAX@std@@@2@QEAU32@@Z 0000000180025280 f i CanvasRenderingContext2d.obj
 0001:00024280       ?_Insert_node@?$_Tree_val@U?$_Tree_simple_types@U?$pair@$$CBV?$basic_string@DU?$char_traits@D@std@@V?$allocator@D@2@@std@@W4text_baseline_t@@@std@@@std@@@std@@QEAAPEAU?$_Tree_node@U?$pair@$$CBV?$basic_string@DU?$char_traits@D@std@@V?$allocator@D@2@@std@@W4text_baseline_t@@@std@@PEAX@2@U?$_Tree_id@PEAU?$_Tree_node@U?$pair@$$CBV?$basic_string@DU?$char_traits@D@std@@V?$allocator@D@2@@std@@W4text_baseline_t@@@std@@PEAX@std@@@2@QEAU32@@Z 0000000180025280 f i CanvasRenderingContext2d.obj
 0001:00024280       ?_Insert_node@?$_Tree_val@U?$_Tree_simple_types@U?$pair@$$CBV?$basic_string@DU?$char_traits@D@std@@V?$allocator@D@2@@std@@W4text_align_t@@@std@@@std@@@std@@QEAAPEAU?$_Tree_node@U?$pair@$$CBV?$basic_string@DU?$char_traits@D@std@@V?$allocator@D@2@@std@@W4text_align_t@@@std@@PEAX@2@U?$_Tree_id@PEAU?$_Tree_node@U?$pair@$$CBV?$basic_string@DU?$char_traits@D@std@@V?$allocator@D@2@@std@@W4text_align_t@@@std@@PEAX@std@@@2@QEAU32@@Z 0000000180025280 f i CanvasRenderingContext2d.obj
 0001:00024500       ??1?$_Tree_temp_node_alloc@V?$allocator@U?$_Tree_node@U?$pair@$$CBV?$basic_string@DU?$char_traits@D@std@@V?$allocator@D@2@@std@@W4text_align_t@@@std@@PEAX@std@@@std@@@std@@QEAA@XZ 0000000180025500 f i CanvasRenderingContext2d.obj
 0001:00024500       ??1?$_Alloc_construct_ptr@V?$allocator@U?$_Tree_node@U?$pair@$$CBV?$basic_string@DU?$char_traits@D@std@@V?$allocator@D@2@@std@@W4_cairo_operator@@@std@@PEAX@std@@@std@@@std@@QEAA@XZ 0000000180025500 f i CanvasRenderingContext2d.obj
 0001:00024500       ??1?$_Alloc_construct_ptr@V?$allocator@U?$_Tree_node@U?$pair@$$CBV?$basic_string@DU?$char_traits@D@std@@V?$allocator@D@2@@std@@W4text_align_t@@@std@@PEAX@std@@@std@@@std@@QEAA@XZ 0000000180025500 f i CanvasRenderingContext2d.obj
 0001:00024500       ??1?$_Tree_temp_node_alloc@V?$allocator@U?$_Tree_node@U?$pair@$$CBV?$basic_string@DU?$char_traits@D@std@@V?$allocator@D@2@@std@@W4text_baseline_t@@@std@@PEAX@std@@@std@@@std@@QEAA@XZ 0000000180025500 f i CanvasRenderingContext2d.obj
 0001:00024500       ??1?$_Alloc_construct_ptr@V?$allocator@U?$_Tree_node@U?$pair@$$CBV?$basic_string@DU?$char_traits@D@std@@V?$allocator@D@2@@std@@W4text_baseline_t@@@std@@PEAX@std@@@std@@@std@@QEAA@XZ 0000000180025500 f i CanvasRenderingContext2d.obj
 0001:00024500       ??1?$_Tree_temp_node_alloc@V?$allocator@U?$_Tree_node@U?$pair@$$CBV?$basic_string@DU?$char_traits@D@std@@V?$allocator@D@2@@std@@I@std@@PEAX@std@@@std@@@std@@QEAA@XZ 0000000180025500 f i color.obj
 0001:00024500       ??1?$_Tree_temp_node_alloc@V?$allocator@U?$_Tree_node@U?$pair@$$CBV?$basic_string@DU?$char_traits@D@std@@V?$allocator@D@2@@std@@W4_cairo_operator@@@std@@PEAX@std@@@std@@@std@@QEAA@XZ 0000000180025500 f i CanvasRenderingContext2d.obj
 0001:00024500       ??1?$_Alloc_construct_ptr@V?$allocator@U?$_Tree_node@U?$pair@$$CBV?$basic_string@DU?$char_traits@D@std@@V?$allocator@D@2@@std@@I@std@@PEAX@std@@@std@@@std@@QEAA@XZ 0000000180025500 f i color.obj
 0001:00024520       ??$_Find_hint@V?$basic_string@DU?$char_traits@D@std@@V?$allocator@D@2@@std@@@?$_Tree@V?$_Tmap_traits@V?$basic_string@DU?$char_traits@D@std@@V?$allocator@D@2@@std@@W4_cairo_operator@@U?$less@V?$basic_string@DU?$char_traits@D@std@@V?$allocator@D@2@@std@@@2@V?$allocator@U?$pair@$$CBV?$basic_string@DU?$char_traits@D@std@@V?$allocator@D@2@@std@@W4_cairo_operator@@@std@@@2@$0A@@std@@@std@@IEBA?AU?$_Tree_find_hint_result@PEAU?$_Tree_node@U?$pair@$$CBV?$basic_string@DU?$char_traits@D@std@@V?$allocator@D@2@@std@@W4_cairo_operator@@@std@@PEAX@std@@@1@QEAU?$_Tree_node@U?$pair@$$CBV?$basic_string@DU?$char_traits@D@std@@V?$allocator@D@2@@std@@W4_cairo_operator@@@std@@PEAX@1@AEBV?$basic_string@DU?$char_traits@D@std@@V?$allocator@D@2@@1@@Z 0000000180025520 f i CanvasRenderingContext2d.obj
 0001:00024520       ??$_Find_hint@V?$basic_string@DU?$char_traits@D@std@@V?$allocator@D@2@@std@@@?$_Tree@V?$_Tmap_traits@V?$basic_string@DU?$char_traits@D@std@@V?$allocator@D@2@@std@@W4text_align_t@@U?$less@V?$basic_string@DU?$char_traits@D@std@@V?$allocator@D@2@@std@@@2@V?$allocator@U?$pair@$$CBV?$basic_string@DU?$char_traits@D@std@@V?$allocator@D@2@@std@@W4text_align_t@@@std@@@2@$0A@@std@@@std@@IEBA?AU?$_Tree_find_hint_result@PEAU?$_Tree_node@U?$pair@$$CBV?$basic_string@DU?$char_traits@D@std@@V?$allocator@D@2@@std@@W4text_align_t@@@std@@PEAX@std@@@1@QEAU?$_Tree_node@U?$pair@$$CBV?$basic_string@DU?$char_traits@D@std@@V?$allocator@D@2@@std@@W4text_align_t@@@std@@PEAX@1@AEBV?$basic_string@DU?$char_traits@D@std@@V?$allocator@D@2@@1@@Z 0000000180025520 f i CanvasRenderingContext2d.obj
 0001:00024520       ??$_Find_hint@V?$basic_string@DU?$char_traits@D@std@@V?$allocator@D@2@@std@@@?$_Tree@V?$_Tmap_traits@V?$basic_string@DU?$char_traits@D@std@@V?$allocator@D@2@@std@@W4text_baseline_t@@U?$less@V?$basic_string@DU?$char_traits@D@std@@V?$allocator@D@2@@std@@@2@V?$allocator@U?$pair@$$CBV?$basic_string@DU?$char_traits@D@std@@V?$allocator@D@2@@std@@W4text_baseline_t@@@std@@@2@$0A@@std@@@std@@IEBA?AU?$_Tree_find_hint_result@PEAU?$_Tree_node@U?$pair@$$CBV?$basic_string@DU?$char_traits@D@std@@V?$allocator@D@2@@std@@W4text_baseline_t@@@std@@PEAX@std@@@1@QEAU?$_Tree_node@U?$pair@$$CBV?$basic_string@DU?$char_traits@D@std@@V?$allocator@D@2@@std@@W4text_baseline_t@@@std@@PEAX@1@AEBV?$basic_string@DU?$char_traits@D@std@@V?$allocator@D@2@@1@@Z 0000000180025520 f i CanvasRenderingContext2d.obj
 0001:00024960       ?init_destination@JpegClosure@@SAXPEAUjpeg_compress_struct@@@Z 0000000180025960 f   closure.obj
 0001:000249a0       ?empty_output_buffer@JpegClosure@@SAEPEAUjpeg_compress_struct@@@Z 00000001800259a0 f   closure.obj
 0001:00024a50       ?term_destination@JpegClosure@@SAXPEAUjpeg_compress_struct@@@Z 0000000180025a50 f   closure.obj
 0001:00024a70       ?resize@?$vector@EV?$allocator@E@std@@@std@@QEAAX_K@Z 0000000180025a70 f i closure.obj
 0001:00024bc0       __local_stdio_printf_options 0000000180025bc0 f i color.obj
 0001:00024bd0       snprintf                   0000000180025bd0 f i color.obj
 0001:00024cc0       ?rgba_to_string@@YAXUrgba_t@@PEAD_K@Z 0000000180025cc0 f   color.obj
 0001:00025b30       ?rgba_from_string@@YAHPEBDPEAF@Z 0000000180026b30 f   color.obj
 0001:00025d80       ??0?$map@V?$basic_string@DU?$char_traits@D@std@@V?$allocator@D@2@@std@@IU?$less@V?$basic_string@DU?$char_traits@D@std@@V?$allocator@D@2@@std@@@2@V?$allocator@U?$pair@$$CBV?$basic_string@DU?$char_traits@D@std@@V?$allocator@D@2@@std@@I@std@@@2@@std@@QEAA@V?$initializer_list@U?$pair@$$CBV?$basic_string@DU?$char_traits@D@std@@V?$allocator@D@2@@std@@I@std@@@1@@Z 0000000180026d80 f i color.obj
 0001:000260d0       ??$?0AEAY0M@$$CBDI$0A@@?$pair@$$CBV?$basic_string@DU?$char_traits@D@std@@V?$allocator@D@2@@std@@I@std@@QEAA@AEAY0M@$$CBD$$QEAI@Z 00000001800270d0 f i color.obj
 0001:000260d0       ??$?0AEAY09$$CBDI$0A@@?$pair@$$CBV?$basic_string@DU?$char_traits@D@std@@V?$allocator@D@2@@std@@I@std@@QEAA@AEAY09$$CBD$$QEAI@Z 00000001800270d0 f i color.obj
 0001:000260d0       ??$?0AEAY03$$CBDI$0A@@?$pair@$$CBV?$basic_string@DU?$char_traits@D@std@@V?$allocator@D@2@@std@@I@std@@QEAA@AEAY03$$CBD$$QEAI@Z 00000001800270d0 f i color.obj
 0001:000260d0       ??$?0AEAY04$$CBDI$0A@@?$pair@$$CBV?$basic_string@DU?$char_traits@D@std@@V?$allocator@D@2@@std@@I@std@@QEAA@AEAY04$$CBD$$QEAI@Z 00000001800270d0 f i color.obj
 0001:000260d0       ??$?0AEAY0O@$$CBDH$0A@@?$pair@$$CBV?$basic_string@DU?$char_traits@D@std@@V?$allocator@D@2@@std@@I@std@@QEAA@AEAY0O@$$CBD$$QEAH@Z 00000001800270d0 f i color.obj
 0001:000260d0       ??$?0AEAY0L@$$CBDI$0A@@?$pair@$$CBV?$basic_string@DU?$char_traits@D@std@@V?$allocator@D@2@@std@@I@std@@QEAA@AEAY0L@$$CBD$$QEAI@Z 00000001800270d0 f i color.obj
 0001:000260d0       ??$?0AEAY0O@$$CBDI$0A@@?$pair@$$CBV?$basic_string@DU?$char_traits@D@std@@V?$allocator@D@2@@std@@I@std@@QEAA@AEAY0O@$$CBD$$QEAI@Z 00000001800270d0 f i color.obj
 0001:000260d0       ??$?0AEAY0BA@$$CBDH$0A@@?$pair@$$CBV?$basic_string@DU?$char_traits@D@std@@V?$allocator@D@2@@std@@I@std@@QEAA@AEAY0BA@$$CBD$$QEAH@Z 00000001800270d0 f i color.obj
 0001:000260d0       ??$?0AEAY0M@$$CBDH$0A@@?$pair@$$CBV?$basic_string@DU?$char_traits@D@std@@V?$allocator@D@2@@std@@I@std@@QEAA@AEAY0M@$$CBD$$QEAH@Z 00000001800270d0 f i color.obj
 0001:000260d0       ??$?0AEAY05$$CBDI$0A@@?$pair@$$CBV?$basic_string@DU?$char_traits@D@std@@V?$allocator@D@2@@std@@I@std@@QEAA@AEAY05$$CBD$$QEAI@Z 00000001800270d0 f i color.obj
 0001:000260d0       ??$?0AEAY08$$CBDH$0A@@?$pair@$$CBV?$basic_string@DU?$char_traits@D@std@@V?$allocator@D@2@@std@@I@std@@QEAA@AEAY08$$CBD$$QEAH@Z 00000001800270d0 f i color.obj
 0001:000260d0       ??$?0AEAY09$$CBDH$0A@@?$pair@$$CBV?$basic_string@DU?$char_traits@D@std@@V?$allocator@D@2@@std@@I@std@@QEAA@AEAY09$$CBD$$QEAH@Z 00000001800270d0 f i color.obj
 0001:000260d0       ??$?0AEAY06$$CBDI$0A@@?$pair@$$CBV?$basic_string@DU?$char_traits@D@std@@V?$allocator@D@2@@std@@I@std@@QEAA@AEAY06$$CBD$$QEAI@Z 00000001800270d0 f i color.obj
 0001:000260d0       ??$?0AEAY0P@$$CBDH$0A@@?$pair@$$CBV?$basic_string@DU?$char_traits@D@std@@V?$allocator@D@2@@std@@I@std@@QEAA@AEAY0P@$$CBD$$QEAH@Z 00000001800270d0 f i color.obj
 0001:000260d0       ??$?0AEAY08$$CBDI$0A@@?$pair@$$CBV?$basic_string@DU?$char_traits@D@std@@V?$allocator@D@2@@std@@I@std@@QEAA@AEAY08$$CBD$$QEAI@Z 00000001800270d0 f i color.obj
 0001:000260d0       ??$?0AEAY04$$CBDH$0A@@?$pair@$$CBV?$basic_string@DU?$char_traits@D@std@@V?$allocator@D@2@@std@@I@std@@QEAA@AEAY04$$CBD$$QEAH@Z 00000001800270d0 f i color.obj
 0001:000260d0       ??$?0AEAY0N@$$CBDI$0A@@?$pair@$$CBV?$basic_string@DU?$char_traits@D@std@@V?$allocator@D@2@@std@@I@std@@QEAA@AEAY0N@$$CBD$$QEAI@Z 00000001800270d0 f i color.obj
 0001:000260d0       ??$?0AEAY0L@$$CBDH$0A@@?$pair@$$CBV?$basic_string@DU?$char_traits@D@std@@V?$allocator@D@2@@std@@I@std@@QEAA@AEAY0L@$$CBD$$QEAH@Z 00000001800270d0 f i color.obj
 0001:000260d0       ??$?0AEAY07$$CBDI$0A@@?$pair@$$CBV?$basic_string@DU?$char_traits@D@std@@V?$allocator@D@2@@std@@I@std@@QEAA@AEAY07$$CBD$$QEAI@Z 00000001800270d0 f i color.obj
 0001:00026130       ??$?0AEAY0BB@$$CBDH$0A@@?$pair@$$CBV?$basic_string@DU?$char_traits@D@std@@V?$allocator@D@2@@std@@I@std@@QEAA@AEAY0BB@$$CBD$$QEAH@Z 0000000180027130 f i color.obj
 0001:00026180       ??$?0AEAY0BC@$$CBDH$0A@@?$pair@$$CBV?$basic_string@DU?$char_traits@D@std@@V?$allocator@D@2@@std@@I@std@@QEAA@AEAY0BC@$$CBD$$QEAH@Z 0000000180027180 f i color.obj
 0001:000261d0       ??$?0AEAY0BA@$$CBDI$0A@@?$pair@$$CBV?$basic_string@DU?$char_traits@D@std@@V?$allocator@D@2@@std@@I@std@@QEAA@AEAY0BA@$$CBD$$QEAI@Z 00000001800271d0 f i color.obj
 0001:00026220       ??$?0AEAY0N@$$CBDH$0A@@?$pair@$$CBV?$basic_string@DU?$char_traits@D@std@@V?$allocator@D@2@@std@@I@std@@QEAA@AEAY0N@$$CBD$$QEAH@Z 0000000180027220 f i color.obj
 0001:00026270       ??$_Find_hint@V?$basic_string@DU?$char_traits@D@std@@V?$allocator@D@2@@std@@@?$_Tree@V?$_Tmap_traits@V?$basic_string@DU?$char_traits@D@std@@V?$allocator@D@2@@std@@IU?$less@V?$basic_string@DU?$char_traits@D@std@@V?$allocator@D@2@@std@@@2@V?$allocator@U?$pair@$$CBV?$basic_string@DU?$char_traits@D@std@@V?$allocator@D@2@@std@@I@std@@@2@$0A@@std@@@std@@IEBA?AU?$_Tree_find_hint_result@PEAU?$_Tree_node@U?$pair@$$CBV?$basic_string@DU?$char_traits@D@std@@V?$allocator@D@2@@std@@I@std@@PEAX@std@@@1@QEAU?$_Tree_node@U?$pair@$$CBV?$basic_string@DU?$char_traits@D@std@@V?$allocator@D@2@@std@@I@std@@PEAX@1@AEBV?$basic_string@DU?$char_traits@D@std@@V?$allocator@D@2@@1@@Z 0000000180027270 f i color.obj
 0001:000266c0       ?Export@Nan@@YAXV?$Local@VObject@v8@@@v8@@PEBDP6AXAEBV?$FunctionCallbackInfo@VValue@v8@@@1@@Z@Z 00000001800276c0 f i Image.obj
 0001:00026820       ?Initialize@Image@@SAXV?$Local@VObject@v8@@@v8@@@Z 0000000180027820 f   Image.obj
 0001:00026cd0       ?New@Image@@SAXAEBV?$FunctionCallbackInfo@VValue@v8@@@Nan@@@Z 0000000180027cd0 f   Image.obj
 0001:00026f70       ?GetComplete@Image@@SAXV?$Local@VString@v8@@@v8@@AEBV?$PropertyCallbackInfo@VValue@v8@@@Nan@@@Z 0000000180027f70 f   Image.obj
 0001:00026fb0       ?GetDataMode@Image@@SAXV?$Local@VString@v8@@@v8@@AEBV?$PropertyCallbackInfo@VValue@v8@@@Nan@@@Z 0000000180027fb0 f   Image.obj
 0001:00027080       ?SetDataMode@Image@@SAXV?$Local@VString@v8@@@v8@@V?$Local@VValue@v8@@@3@AEBV?$PropertyCallbackInfo@X@Nan@@@Z 0000000180028080 f   Image.obj
 0001:00027170       ?GetNaturalWidth@Image@@SAXV?$Local@VString@v8@@@v8@@AEBV?$PropertyCallbackInfo@VValue@v8@@@Nan@@@Z 0000000180028170 f   Image.obj
 0001:00027230       ?GetWidth@Image@@SAXV?$Local@VString@v8@@@v8@@AEBV?$PropertyCallbackInfo@VValue@v8@@@Nan@@@Z 0000000180028230 f   Image.obj
 0001:000272f0       ?SetWidth@Image@@SAXV?$Local@VString@v8@@@v8@@V?$Local@VValue@v8@@@3@AEBV?$PropertyCallbackInfo@X@Nan@@@Z 00000001800282f0 f   Image.obj
 0001:000273e0       ?GetNaturalHeight@Image@@SAXV?$Local@VString@v8@@@v8@@AEBV?$PropertyCallbackInfo@VValue@v8@@@Nan@@@Z 00000001800283e0 f   Image.obj
 0001:000274a0       ?GetHeight@Image@@SAXV?$Local@VString@v8@@@v8@@AEBV?$PropertyCallbackInfo@VValue@v8@@@Nan@@@Z 00000001800284a0 f   Image.obj
 0001:00027560       ?SetHeight@Image@@SAXV?$Local@VString@v8@@@v8@@V?$Local@VValue@v8@@@3@AEBV?$PropertyCallbackInfo@X@Nan@@@Z 0000000180028560 f   Image.obj
 0001:00027650       ?GetSource@Image@@SAXAEBV?$FunctionCallbackInfo@VValue@v8@@@Nan@@@Z 0000000180028650 f   Image.obj
 0001:00027740       ?clearData@Image@@QEAAXXZ  0000000180028740 f   Image.obj
 0001:000277d0       ?SetSource@Image@@SAXAEBV?$FunctionCallbackInfo@VValue@v8@@@Nan@@@Z 00000001800287d0 f   Image.obj
 0001:00027e40       ??1CanvasError@@QEAA@XZ    0000000180028e40 f i Image.obj
 0001:00027f40       ?loadFromBuffer@Image@@QEAA?AW4_cairo_status@@PEAEI@Z 0000000180028f40 f   Image.obj
 0001:00028140       ?readPNG@Image@@SA?AW4_cairo_status@@PEAXPEAEI@Z 0000000180029140 f   Image.obj
 0001:00028180       ??_GImage@@EEAAPEAXI@Z     0000000180029180 f i Image.obj
 0001:00028180       ??_EImage@@EEAAPEAXI@Z     0000000180029180 f i * CIL library *:* CIL module *
 0001:00028200       ?surface@Image@@QEAAPEAU_cairo_surface@@XZ 0000000180029200 f   Image.obj
 0001:00028300       ?loadSurface@Image@@QEAA?AW4_cairo_status@@XZ 0000000180029300 f   Image.obj
 0001:00028730       ?read_gif_from_memory@@YAHPEAUGifFileType@@PEAEH@Z 0000000180029730 f   Image.obj
 0001:00028780       ?loadGIFFromBuffer@Image@@QEAA?AW4_cairo_status@@PEAEI@Z 0000000180029780 f   Image.obj
 0001:00028d10       ?jpegToARGB@Image@@QEAAXPEAUjpeg_decompress_struct@@PEAE1V?$function@$$A6AIPEAE@Z@std@@@Z 0000000180029d10 f   Image.obj
 0001:00028e00       ??1?$function@$$A6AIPEAE@Z@std@@QEAA@XZ 0000000180029e00 f i Image.obj
 0001:00028e30       ?decodeJPEGIntoSurface@Image@@QEAA?AW4_cairo_status@@PEAUjpeg_decompress_struct@@@Z 0000000180029e30 f   Image.obj
 0001:00029010       ?decodeJPEGBufferIntoMimeSurface@Image@@QEAA?AW4_cairo_status@@PEAEI@Z 000000018002a010 f   Image.obj
 0001:000291c0       ?clearMimeData@@YAXPEAX@Z  000000018002a1c0 f   Image.obj
 0001:000291f0       ?assignDataAsMime@Image@@QEAA?AW4_cairo_status@@PEAEHPEBD@Z 000000018002a1f0 f   Image.obj
 0001:000292f0       ?loadJPEGFromBuffer@Image@@QEAA?AW4_cairo_status@@PEAEI@Z 000000018002a2f0 f   Image.obj
 0001:000293f0       ?loadJPEG@Image@@QEAA?AW4_cairo_status@@PEAU_iobuf@@@Z 000000018002a3f0 f   Image.obj
 0001:00029510       ?loadSVGFromBuffer@Image@@QEAA?AW4_cairo_status@@PEAEI@Z 000000018002a510 f   Image.obj
 0001:000295d0       ?renderSVGToSurface@Image@@QEAA?AW4_cairo_status@@XZ 000000018002a5d0 f   Image.obj
 0001:00029700       ?loadBMPFromBuffer@Image@@QEAA?AW4_cairo_status@@PEAEI@Z 000000018002a700 f   Image.obj
 0001:000299f0       ?isSVG@Image@@SAHPEAEI@Z   000000018002a9f0 f   Image.obj
 0001:00029a70       ?isBMP@Image@@SAHPEAEI@Z   000000018002aa70 f   Image.obj
 0001:00029dd0       ??_EImageData@@UEAAPEAXI@Z 000000018002add0 f i * CIL library *:* CIL module *
 0001:00029dd0       ??_GImageData@@UEAAPEAXI@Z 000000018002add0 f i ImageData.obj
 0001:00029e30       ?Initialize@ImageData@@SAXV?$Local@VObject@v8@@@v8@@@Z 000000018002ae30 f   ImageData.obj
 0001:0002a090       ?New@ImageData@@SAXAEBV?$FunctionCallbackInfo@VValue@v8@@@Nan@@@Z 000000018002b090 f   ImageData.obj
 0001:0002aa10       ?GetWidth@ImageData@@SAXV?$Local@VString@v8@@@v8@@AEBV?$PropertyCallbackInfo@VValue@v8@@@Nan@@@Z 000000018002ba10 f   ImageData.obj
 0001:0002aad0       ?GetHeight@ImageData@@SAXV?$Local@VString@v8@@@v8@@AEBV?$PropertyCallbackInfo@VValue@v8@@@Nan@@@Z 000000018002bad0 f   ImageData.obj
 0001:0002ab90       ?init@@YAXV?$Local@VObject@v8@@@v8@@@Z 000000018002bb90 f   init.obj
 0001:0002b370       ?get_family_name@@YAPEADPEAUFT_FaceRec_@@@Z 000000018002c370 f   register_font.obj
 0001:0002b5f0       ?get_pango_font_description@@YAPEAU_PangoFontDescription@@PEAE@Z 000000018002c5f0 f   register_font.obj
 0001:0002b994       __imp_load_?GetCurrentContext@Isolate@v8@@QEAA?AV?$Local@VContext@v8@@@2@XZ 000000018002c994 f   node:node.exe
 0001:0002b9a0       __tailMerge_node_exe       000000018002c9a0     node:node.exe
 0001:0002ba19       __imp_load_?GetCurrent@Isolate@v8@@SAPEAV12@XZ 000000018002ca19 f   node:node.exe
 0001:0002ba25       __imp_load_??1HandleScope@v8@@QEAA@XZ 000000018002ca25 f   node:node.exe
 0001:0002ba31       ??1HandleScope@v8@@QEAA@XZ 000000018002ca31 f   node:node.exe
 0001:0002ba37       __imp_load_??0HandleScope@v8@@QEAA@PEAVIsolate@1@@Z 000000018002ca37 f   node:node.exe
 0001:0002ba43       __imp_load_?ClearWeak@V8@v8@@CAPEAXPEAPEAVObject@internal@2@@Z 000000018002ca43 f   node:node.exe
 0001:0002ba4f       __imp_load_?MakeWeak@V8@v8@@CAXPEAPEAVObject@internal@2@PEAXP6AXAEBV?$WeakCallbackInfo@X@2@@ZW4WeakCallbackType@2@@Z 000000018002ca4f f   node:node.exe
 0001:0002ba5b       __imp_load_?DisposeGlobal@V8@v8@@CAXPEAPEAVObject@internal@2@@Z 000000018002ca5b f   node:node.exe
 0001:0002ba67       __imp_load_?GlobalizeReference@V8@v8@@CAPEAPEAVObject@internal@2@PEAVIsolate@42@PEAPEAV342@@Z 000000018002ca67 f   node:node.exe
 0001:0002ba73       __imp_load_?Uint32Value@Value@v8@@QEBA?AV?$Maybe@I@2@V?$Local@VContext@v8@@@2@@Z 000000018002ca73 f   node:node.exe
 0001:0002ba7f       __imp_load_?IsNumber@Value@v8@@QEBA_NXZ 000000018002ca7f f   node:node.exe
 0001:0002ba8b       __imp_load_?SetAlignedPointerInInternalField@Object@v8@@QEAAXHPEAX@Z 000000018002ca8b f   node:node.exe
 0001:0002ba97       __imp_load_?InternalFieldCount@Object@v8@@QEAAHXZ 000000018002ca97 f   node:node.exe
 0001:0002baa3       __imp_load_?Value@External@v8@@QEBAPEAXXZ 000000018002caa3 f   node:node.exe
 0001:0002baaf       __imp_load_?New@External@v8@@SA?AV?$Local@VExternal@v8@@@2@PEAVIsolate@2@PEAX@Z 000000018002caaf f   node:node.exe
 0001:0002babb       __imp_load_?CheckMemoryPressure@Isolate@v8@@AEAAXXZ 000000018002cabb f   node:node.exe
 0001:0002bac7       __imp_load_?ReportExternalAllocationLimitReached@Isolate@v8@@AEAAXXZ 000000018002cac7 f   node:node.exe
 0001:0002bad3       __imp_load_?CreateHandle@HandleScope@v8@@KAPEAPEAVObject@internal@2@PEAVIsolate@42@PEAV342@@Z 000000018002cad3 f   node:node.exe
 0001:0002badf       __imp_load_?CreateHandle@HandleScope@v8@@CAPEAPEAVObject@internal@2@PEAVHeapObject@42@PEAV342@@Z 000000018002cadf f   node:node.exe
 0001:0002baeb       __imp_load_?SetClassName@FunctionTemplate@v8@@QEAAXV?$Local@VString@v8@@@2@@Z 000000018002caeb f   node:node.exe
 0001:0002baf7       __imp_load_?InstanceTemplate@FunctionTemplate@v8@@QEAA?AV?$Local@VObjectTemplate@v8@@@2@XZ 000000018002caf7 f   node:node.exe
 0001:0002bb03       __imp_load_?GetFunction@FunctionTemplate@v8@@QEAA?AV?$MaybeLocal@VFunction@v8@@@2@V?$Local@VContext@v8@@@2@@Z 000000018002cb03 f   node:node.exe
 0001:0002bb0f       __imp_load_?New@FunctionTemplate@v8@@SA?AV?$Local@VFunctionTemplate@v8@@@2@PEAVIsolate@2@P6AXAEBV?$FunctionCallbackInfo@VValue@v8@@@2@@ZV?$Local@VValue@v8@@@2@V?$Local@VSignature@v8@@@2@HW4ConstructorBehavior@2@W4SideEffectType@2@@Z 000000018002cb0f f   node:node.exe
 0001:0002bb1b       __imp_load_?ToLocalEmpty@V8@v8@@CAXXZ 000000018002cb1b f   node:node.exe
 0001:0002bb27       __imp_load_?Escape@EscapableHandleScope@v8@@AEAAPEAPEAVObject@internal@2@PEAPEAV342@@Z 000000018002cb27 f   node:node.exe
 0001:0002bb33       __imp_load_??0EscapableHandleScope@v8@@QEAA@PEAVIsolate@1@@Z 000000018002cb33 f   node:node.exe
 0001:0002bb3f       __imp_load_?NewFromUtf8@String@v8@@SA?AV?$MaybeLocal@VString@v8@@@2@PEAVIsolate@2@PEBDW4NewStringType@2@H@Z 000000018002cb3f f   node:node.exe
 0001:0002bb4b       __imp_load_?SlowGetInternalField@Object@v8@@AEAA?AV?$Local@VValue@v8@@@2@H@Z 000000018002cb4b f   node:node.exe
 0001:0002bb57       __imp_load_?SetInternalField@Object@v8@@QEAAXHV?$Local@VValue@v8@@@2@@Z 000000018002cb57 f   node:node.exe
 0001:0002bb63       __imp_load_?Set@Object@v8@@QEAA?AV?$Maybe@_N@2@V?$Local@VContext@v8@@@2@V?$Local@VValue@v8@@@2@1@Z 000000018002cb63 f   node:node.exe
 0001:0002bb6f       __imp_load_?SetInternalFieldCount@ObjectTemplate@v8@@QEAAXH@Z 000000018002cb6f f   node:node.exe
 0001:0002bb7b       __imp_load_?NewInstance@ObjectTemplate@v8@@QEAA?AV?$MaybeLocal@VObject@v8@@@2@V?$Local@VContext@v8@@@2@@Z 000000018002cb7b f   node:node.exe
 0001:0002bb87       __imp_load_?New@ObjectTemplate@v8@@SA?AV?$Local@VObjectTemplate@v8@@@2@PEAVIsolate@2@V?$Local@VFunctionTemplate@v8@@@2@@Z 000000018002cb87 f   node:node.exe
 0001:0002bb93       __imp_load_??1EscapableHandleScope@v8@@QEAA@XZ 000000018002cb93 f   node:node.exe
 0001:0002bb9f       ??1EscapableHandleScope@v8@@QEAA@XZ 000000018002cb9f f   node:node.exe
 0001:0002bba5       __imp_load_?New@Object@v8@@SA?AV?$Local@VObject@v8@@@2@PEAVIsolate@2@@Z 000000018002cba5 f   node:node.exe
 0001:0002bbb1       __imp_load_uv_queue_work   000000018002cbb1 f   node:node.exe
 0001:0002bbbd       __imp_load_?GetIsolate@Context@v8@@QEAAPEAVIsolate@2@XZ 000000018002cbbd f   node:node.exe
 0001:0002bbc9       __imp_load_?Global@Context@v8@@QEAA?AV?$Local@VObject@v8@@@2@XZ 000000018002cbc9 f   node:node.exe
 0001:0002bbd5       __imp_load_?NewFromUnsigned@Integer@v8@@SA?AV?$Local@VInteger@v8@@@2@PEAVIsolate@2@I@Z 000000018002cbd5 f   node:node.exe
 0001:0002bbe1       __imp_load_?New@Signature@v8@@SA?AV?$Local@VSignature@v8@@@2@PEAVIsolate@2@V?$Local@VFunctionTemplate@v8@@@2@@Z 000000018002cbe1 f   node:node.exe
 0001:0002bbed       __imp_load_?ThrowException@Isolate@v8@@QEAA?AV?$Local@VValue@v8@@@2@V32@@Z 000000018002cbed f   node:node.exe
 0001:0002bbf9       __imp_load_?Length@TypedArray@v8@@QEAA_KXZ 000000018002cbf9 f   node:node.exe
 0001:0002bc05       __imp_load_?Set@Template@v8@@QEAAXV?$Local@VName@v8@@@2@V?$Local@VData@v8@@@2@W4PropertyAttribute@2@@Z 000000018002cc05 f   node:node.exe
 0001:0002bc11       __imp_load_?ByteLength@ArrayBufferView@v8@@QEAA_KXZ 000000018002cc11 f   node:node.exe
 0001:0002bc1d       __imp_load_?ByteOffset@ArrayBufferView@v8@@QEAA_KXZ 000000018002cc1d f   node:node.exe
 0001:0002bc29       __imp_load_?Buffer@ArrayBufferView@v8@@QEAA?AV?$Local@VArrayBuffer@v8@@@2@XZ 000000018002cc29 f   node:node.exe
 0001:0002bc35       __imp_load_?Error@Exception@v8@@SA?AV?$Local@VValue@v8@@@2@V?$Local@VString@v8@@@2@@Z 000000018002cc35 f   node:node.exe
 0001:0002bc41       __imp_load_?TypeError@Exception@v8@@SA?AV?$Local@VValue@v8@@@2@V?$Local@VString@v8@@@2@@Z 000000018002cc41 f   node:node.exe
 0001:0002bc4d       __imp_load_?ValueOf@Date@v8@@QEBANXZ 000000018002cc4d f   node:node.exe
 0001:0002bc59       __imp_load_?HasInstance@FunctionTemplate@v8@@QEAA_NV?$Local@VValue@v8@@@2@@Z 000000018002cc59 f   node:node.exe
 0001:0002bc65       __imp_load_?PrototypeTemplate@FunctionTemplate@v8@@QEAA?AV?$Local@VObjectTemplate@v8@@@2@XZ 000000018002cc65 f   node:node.exe
 0001:0002bc71       __imp_load_?GetContents@ArrayBuffer@v8@@QEAA?AVContents@12@XZ 000000018002cc71 f   node:node.exe
 0001:0002bc7d       __imp_load_?StrictEquals@Value@v8@@QEBA_NV?$Local@VValue@v8@@@2@@Z 000000018002cc7d f   node:node.exe
 0001:0002bc89       __imp_load_?NumberValue@Value@v8@@QEBA?AV?$Maybe@N@2@V?$Local@VContext@v8@@@2@@Z 000000018002cc89 f   node:node.exe
 0001:0002bc95       __imp_load_?BooleanValue@Value@v8@@QEBA?AV?$Maybe@_N@2@V?$Local@VContext@v8@@@2@@Z 000000018002cc95 f   node:node.exe
 0001:0002bca1       __imp_load_?ToUint32@Value@v8@@QEBA?AV?$MaybeLocal@VUint32@v8@@@2@V?$Local@VContext@v8@@@2@@Z 000000018002cca1 f   node:node.exe
 0001:0002bcad       __imp_load_?ToObject@Value@v8@@QEBA?AV?$MaybeLocal@VObject@v8@@@2@V?$Local@VContext@v8@@@2@@Z 000000018002ccad f   node:node.exe
 0001:0002bcb9       __imp_load_?ToString@Value@v8@@QEBA?AV?$MaybeLocal@VString@v8@@@2@V?$Local@VContext@v8@@@2@@Z 000000018002ccb9 f   node:node.exe
 0001:0002bcc5       __imp_load_?IsUint8ClampedArray@Value@v8@@QEBA_NXZ 000000018002ccc5 f   node:node.exe
 0001:0002bcd1       __imp_load_?IsArrayBufferView@Value@v8@@QEBA_NXZ 000000018002ccd1 f   node:node.exe
 0001:0002bcdd       __imp_load_?IsDate@Value@v8@@QEBA_NXZ 000000018002ccdd f   node:node.exe
 0001:0002bce9       __imp_load_?IsUint32@Value@v8@@QEBA_NXZ 000000018002cce9 f   node:node.exe
 0001:0002bcf5       __imp_load_?IsBoolean@Value@v8@@QEBA_NXZ 000000018002ccf5 f   node:node.exe
 0001:0002bd01       __imp_load_?IsObject@Value@v8@@QEBA_NXZ 000000018002cd01 f   node:node.exe
 0001:0002bd0d       __imp_load_?IsFunction@Value@v8@@QEBA_NXZ 000000018002cd0d f   node:node.exe
 0001:0002bd19       __imp_load_?ReThrow@TryCatch@v8@@QEAA?AV?$Local@VValue@v8@@@2@XZ 000000018002cd19 f   node:node.exe
 0001:0002bd25       __imp_load_?HasCaught@TryCatch@v8@@QEBA_NXZ 000000018002cd25 f   node:node.exe
 0001:0002bd31       __imp_load_??1TryCatch@v8@@QEAA@XZ 000000018002cd31 f   node:node.exe
 0001:0002bd3d       __imp_load_??0TryCatch@v8@@QEAA@PEAVIsolate@1@@Z 000000018002cd3d f   node:node.exe
 0001:0002bd49       __imp_load_?WriteUtf8@String@v8@@QEBAHPEADHPEAHH@Z 000000018002cd49 f   node:node.exe
 0001:0002bd55       __imp_load_?Length@String@v8@@QEBAHXZ 000000018002cd55 f   node:node.exe
 0001:0002bd61       __imp_load_?New@Number@v8@@SA?AV?$Local@VNumber@v8@@@2@PEAVIsolate@2@N@Z 000000018002cd61 f   node:node.exe
 0001:0002bd6d       __imp_load_?SlowGetAlignedPointerFromInternalField@Object@v8@@AEAAPEAXH@Z 000000018002cd6d f   node:node.exe
 0001:0002bd79       __imp_load_?Get@Object@v8@@QEAA?AV?$MaybeLocal@VValue@v8@@@2@V?$Local@VContext@v8@@@2@V?$Local@VValue@v8@@@2@@Z 000000018002cd79 f   node:node.exe
 0001:0002bd85       __imp_load_?Call@Function@v8@@QEAA?AV?$MaybeLocal@VValue@v8@@@2@V?$Local@VContext@v8@@@2@V?$Local@VValue@v8@@@2@HQEAV52@@Z 000000018002cd85 f   node:node.exe
 0001:0002bd91       __imp_load_?SetAccessor@ObjectTemplate@v8@@QEAAXV?$Local@VName@v8@@@2@P6AX0AEBV?$PropertyCallbackInfo@VValue@v8@@@2@@ZP6AX0V?$Local@VValue@v8@@@2@AEBV?$PropertyCallbackInfo@X@2@@Z3W4AccessControl@2@W4PropertyAttribute@2@V?$Local@VAccessorSignature@v8@@@2@@Z 000000018002cd91 f   node:node.exe
 0001:0002bd9d       __imp_load_?EmitAsyncDestroy@node@@YAXPEAVIsolate@v8@@Uasync_context@1@@Z 000000018002cd9d f   node:node.exe
 0001:0002bda9       __imp_load_?New@Buffer@node@@YA?AV?$MaybeLocal@VObject@v8@@@v8@@PEAVIsolate@4@PEAD_KP6AX1PEAX@Z3@Z 000000018002cda9 f   node:node.exe
 0001:0002bdb5       __imp_load_?New@Buffer@node@@YA?AV?$MaybeLocal@VObject@v8@@@v8@@PEAVIsolate@4@PEAD_K@Z 000000018002cdb5 f   node:node.exe
 0001:0002bdc1       __imp_load_?Copy@Buffer@node@@YA?AV?$MaybeLocal@VObject@v8@@@v8@@PEAVIsolate@4@PEBD_K@Z 000000018002cdc1 f   node:node.exe
 0001:0002bdcd       __imp_load_?MakeCallback@node@@YA?AV?$MaybeLocal@VValue@v8@@@v8@@PEAVIsolate@3@V?$Local@VObject@v8@@@3@V?$Local@VFunction@v8@@@3@HPEAV?$Local@VValue@v8@@@3@Uasync_context@1@@Z 000000018002cdcd f   node:node.exe
 0001:0002bdd9       __imp_load_?EmitAsyncInit@node@@YA?AUasync_context@1@PEAVIsolate@v8@@V?$Local@VObject@v8@@@4@V?$Local@VString@v8@@@4@N@Z 000000018002cdd9 f   node:node.exe
 0001:0002bde5       __imp_load_uv_default_loop 000000018002cde5 f   node:node.exe
 0001:0002bdf1       __imp_load_?FromJustIsNothing@V8@v8@@CAXXZ 000000018002cdf1 f   node:node.exe
 0001:0002bdfd       __imp_load_?InstanceOf@Value@v8@@QEAA?AV?$Maybe@_N@2@V?$Local@VContext@v8@@@2@V?$Local@VObject@v8@@@2@@Z 000000018002cdfd f   node:node.exe
 0001:0002be09       __imp_load_?New@Function@v8@@SA?AV?$MaybeLocal@VFunction@v8@@@2@V?$Local@VContext@v8@@@2@P6AXAEBV?$FunctionCallbackInfo@VValue@v8@@@2@@ZV?$Local@VValue@v8@@@2@HW4ConstructorBehavior@2@W4SideEffectType@2@@Z 000000018002ce09 f   node:node.exe
 0001:0002be15       __imp_load_?New@Uint8ClampedArray@v8@@SA?AV?$Local@VUint8ClampedArray@v8@@@2@V?$Local@VArrayBuffer@v8@@@2@_K1@Z 000000018002ce15 f   node:node.exe
 0001:0002be21       __imp_load_?New@Integer@v8@@SA?AV?$Local@VInteger@v8@@@2@PEAVIsolate@2@H@Z 000000018002ce21 f   node:node.exe
 0001:0002be2d       __imp_load_?RangeError@Exception@v8@@SA?AV?$Local@VValue@v8@@@2@V?$Local@VString@v8@@@2@@Z 000000018002ce2d f   node:node.exe
 0001:0002be39       __imp_load_?New@Array@v8@@SA?AV?$Local@VArray@v8@@@2@PEAVIsolate@2@H@Z 000000018002ce39 f   node:node.exe
 0001:0002be45       __imp_load_?Length@Array@v8@@QEBAIXZ 000000018002ce45 f   node:node.exe
 0001:0002be51       __imp_load_?New@ArrayBuffer@v8@@SA?AV?$Local@VArrayBuffer@v8@@@2@PEAVIsolate@2@_K@Z 000000018002ce51 f   node:node.exe
 0001:0002be5d       __imp_load_?Int32Value@Value@v8@@QEBA?AV?$Maybe@H@2@V?$Local@VContext@v8@@@2@@Z 000000018002ce5d f   node:node.exe
 0001:0002be69       __imp_load_?ToInt32@Value@v8@@QEBA?AV?$MaybeLocal@VInt32@v8@@@2@V?$Local@VContext@v8@@@2@@Z 000000018002ce69 f   node:node.exe
 0001:0002be75       __imp_load_?IsArray@Value@v8@@QEBA_NXZ 000000018002ce75 f   node:node.exe
 0001:0002be81       __imp_load_?New@Float64Array@v8@@SA?AV?$Local@VFloat64Array@v8@@@2@V?$Local@VArrayBuffer@v8@@@2@_K1@Z 000000018002ce81 f   node:node.exe
 0001:0002be8d       __imp_load_?New@Uint16Array@v8@@SA?AV?$Local@VUint16Array@v8@@@2@V?$Local@VArrayBuffer@v8@@@2@_K1@Z 000000018002ce8d f   node:node.exe
 0001:0002be99       __imp_load_?Get@Object@v8@@QEAA?AV?$MaybeLocal@VValue@v8@@@2@V?$Local@VContext@v8@@@2@I@Z 000000018002ce99 f   node:node.exe
 0001:0002bea5       __imp_load_?NewInstance@Function@v8@@QEBA?AV?$MaybeLocal@VObject@v8@@@2@V?$Local@VContext@v8@@@2@HQEAV?$Local@VValue@v8@@@2@@Z 000000018002cea5 f   node:node.exe
 0001:0002beb1       __imp_load_?HasInstance@Buffer@node@@YA_NV?$Local@VValue@v8@@@v8@@@Z 000000018002ceb1 f   node:node.exe
 0001:0002bebd       __imp_load_?Data@Buffer@node@@YAPEADV?$Local@VObject@v8@@@v8@@@Z 000000018002cebd f   node:node.exe
 0001:0002bec9       __imp_load_?Length@Buffer@node@@YA_KV?$Local@VObject@v8@@@v8@@@Z 000000018002cec9 f   node:node.exe
 0001:0002bed5       __imp_load_?ErrnoException@node@@YA?AV?$Local@VValue@v8@@@v8@@PEAVIsolate@3@HPEBD11@Z 000000018002ced5 f   node:node.exe
 0001:0002bee1       __imp_load_?IsUint16Array@Value@v8@@QEBA_NXZ 000000018002cee1 f   node:node.exe
 0001:0002beed       __imp_load_node_module_register 000000018002ceed f   node:node.exe
 0001:0002befc       ??0bad_alloc@std@@QEAA@AEBV01@@Z 000000018002cefc f i libcpmt:xthrow.obj
 0001:0002bf38       ??0bad_alloc@std@@QEAA@XZ  000000018002cf38 f i libcpmt:xthrow.obj
 0001:0002bf58       ??0bad_function_call@std@@QEAA@AEBV01@@Z 000000018002cf58 f i libcpmt:xthrow.obj
 0001:0002bf94       ??0bad_function_call@std@@QEAA@XZ 000000018002cf94 f i libcpmt:xthrow.obj
 0001:0002bfac       ??0exception@std@@QEAA@AEBV01@@Z 000000018002cfac f i libcpmt:xthrow.obj
 0001:0002bfe0       ??0length_error@std@@QEAA@AEBV01@@Z 000000018002cfe0 f i libcpmt:xthrow.obj
 0001:0002c01c       ??0length_error@std@@QEAA@PEBD@Z 000000018002d01c f i libcpmt:xthrow.obj
 0001:0002c064       ??0logic_error@std@@QEAA@AEBV01@@Z 000000018002d064 f i libcpmt:xthrow.obj
 0001:0002c0a0       ??0runtime_error@std@@QEAA@AEBV01@@Z 000000018002d0a0 f i libcpmt:xthrow.obj
 0001:0002c0dc       ??0runtime_error@std@@QEAA@PEBD@Z 000000018002d0dc f i libcpmt:xthrow.obj
 0001:0002c124       ??1bad_alloc@std@@UEAA@XZ  000000018002d124 f i libcpmt:xthrow.obj
 0001:0002c124       ??1bad_exception@std@@UEAA@XZ 000000018002d124 f i libvcruntime:frame.obj
 0001:0002c124       ??1bad_array_new_length@std@@UEAA@XZ 000000018002d124 f i libcpmt:locale.obj
 0001:0002c124       ??1bad_function_call@std@@UEAA@XZ 000000018002d124 f i libcpmt:xthrow.obj
 0001:0002c124       ??1length_error@std@@UEAA@XZ 000000018002d124 f i libcpmt:xthrow.obj
 0001:0002c138       ??_Ebad_array_new_length@std@@UEAAPEAXI@Z 000000018002d138 f i libcpmt:locale.obj
 0001:0002c138       ??_Eexception@std@@UEAAPEAXI@Z 000000018002d138 f i libcpmt:xthrow.obj
 0001:0002c138       ??_Gbad_array_new_length@std@@UEAAPEAXI@Z 000000018002d138 f i libcpmt:locale.obj
 0001:0002c138       ??_Glength_error@std@@UEAAPEAXI@Z 000000018002d138 f i libcpmt:xthrow.obj
 0001:0002c138       ??_Ebad_exception@std@@UEAAPEAXI@Z 000000018002d138 f i libvcruntime:frame.obj
 0001:0002c138       ??_Glogic_error@std@@UEAAPEAXI@Z 000000018002d138 f i libcpmt:xthrow.obj
 0001:0002c138       ??_Gbad_function_call@std@@UEAAPEAXI@Z 000000018002d138 f i libcpmt:xthrow.obj
 0001:0002c138       ??_Gbad_exception@std@@UEAAPEAXI@Z 000000018002d138 f i libvcruntime:frame.obj
 0001:0002c138       ??_Gexception@std@@UEAAPEAXI@Z 000000018002d138 f i libcpmt:xthrow.obj
 0001:0002c138       ??_Ebad_function_call@std@@UEAAPEAXI@Z 000000018002d138 f i libcpmt:xthrow.obj
 0001:0002c138       ??_Ebad_alloc@std@@UEAAPEAXI@Z 000000018002d138 f i libcpmt:xthrow.obj
 0001:0002c138       ??_Elogic_error@std@@UEAAPEAXI@Z 000000018002d138 f i libcpmt:xthrow.obj
 0001:0002c138       ??_Gbad_alloc@std@@UEAAPEAXI@Z 000000018002d138 f i libcpmt:xthrow.obj
 0001:0002c138       ??_Elength_error@std@@UEAAPEAXI@Z 000000018002d138 f i libcpmt:xthrow.obj
 0001:0002c17c       ?_Xbad_alloc@std@@YAXXZ    000000018002d17c f   libcpmt:xthrow.obj
 0001:0002c17c       ?__scrt_throw_std_bad_alloc@@YAXXZ 000000018002d17c f   LIBCMT:throw_bad_alloc.obj
 0001:0002c19c       ?_Xbad_function_call@std@@YAXXZ 000000018002d19c f   libcpmt:xthrow.obj
 0001:0002c1bc       ?_Xlength_error@std@@YAXPEBD@Z 000000018002d1bc f   libcpmt:xthrow.obj
 0001:0002c1e0       ?_Xruntime_error@std@@YAXPEBD@Z 000000018002d1e0 f   libcpmt:xthrow.obj
 0001:0002c204       ?what@bad_function_call@std@@UEBAPEBDXZ 000000018002d204 f i libcpmt:xthrow.obj
 0001:0002c20c       ?what@exception@std@@UEBAPEBDXZ 000000018002d20c f i libcpmt:xthrow.obj
 0001:0002c220       ??0_Init_locks@std@@QEAA@XZ 000000018002d220 f   libcpmt:xlock.obj
 0001:0002c264       ??0_Lockit@std@@QEAA@H@Z   000000018002d264 f   libcpmt:xlock.obj
 0001:0002c2a0       ??1_Init_locks@std@@QEAA@XZ 000000018002d2a0 f   libcpmt:xlock.obj
 0001:0002c2dc       ??1_Lockit@std@@QEAA@XZ    000000018002d2dc f   libcpmt:xlock.obj
 0001:0002c310       ??0_Locimp@locale@std@@AEAA@_N@Z 000000018002d310 f i libcpmt:locale0.obj
 0001:0002c398       ??4?$_Yarn@D@std@@QEAAAEAV01@PEBD@Z 000000018002d398 f i libcpmt:locale0.obj
 0001:0002c410       ??_E_Locimp@locale@std@@MEAAPEAXI@Z 000000018002d410 f i libcpmt:locale0.obj
 0001:0002c410       ??_G_Locimp@locale@std@@MEAAPEAXI@Z 000000018002d410 f i libcpmt:locale0.obj
 0001:0002c46c       ?_Facet_Register@std@@YAXPEAV_Facet_base@1@@Z 000000018002d46c f   libcpmt:locale0.obj
 0001:0002c4a4       ?_Getgloballocale@locale@std@@CAPEAV_Locimp@12@XZ 000000018002d4a4 f   libcpmt:locale0.obj
 0001:0002c4ac       ?_Init@locale@std@@CAPEAV_Locimp@12@_N@Z 000000018002d4ac f   libcpmt:locale0.obj
 0001:0002c5a4       ?_Locimp_dtor@_Locimp@locale@std@@CAXPEAV123@@Z 000000018002d5a4 f   libcpmt:locale0.obj
 0001:0002c620       ?_Locinfo_ctor@_Locinfo@std@@SAXPEAV12@PEBD@Z 000000018002d620 f   libcpmt:locale0.obj
 0001:0002c68c       ?_Locinfo_dtor@_Locinfo@std@@SAXPEAV12@@Z 000000018002d68c f   libcpmt:locale0.obj
 0001:0002c6a8       ?_New_Locimp@_Locimp@locale@std@@CAPEAV123@_N@Z 000000018002d6a8 f   libcpmt:locale0.obj
 0001:0002c6d8       ?_Setgloballocale@locale@std@@CAXPEAX@Z 000000018002d6d8 f   libcpmt:locale0.obj
 0001:0002c70c       _Deletegloballocale        000000018002d70c f   libcpmt:locale0.obj
 0001:0002c77c       ?_Ios_base_dtor@ios_base@std@@CAXPEAV12@@Z 000000018002d77c f   libcpmt:ios.obj
 0001:0002c7f4       ?_Tidy@ios_base@std@@AEAAXXZ 000000018002d7f4 f i libcpmt:ios.obj
 0001:0002c874       ?_Syserror_map@std@@YAPEBDH@Z 000000018002d874 f   libcpmt:syserror.obj
 0001:0002c89c       _Getctype                  000000018002d89c f   libcpmt:_tolower.obj
 0001:0002c95c       _Tolower                   000000018002d95c f   libcpmt:_tolower.obj
 0001:0002ca8c       _Toupper                   000000018002da8c f   libcpmt:_toupper.obj
 0001:0002cbcc       _Mtxdst                    000000018002dbcc f   libcpmt:xmtx.obj
 0001:0002cbd4       _Mtxinit                   000000018002dbd4 f   libcpmt:xmtx.obj
 0001:0002cbe4       _Mtxlock                   000000018002dbe4 f   libcpmt:xmtx.obj
 0001:0002cbec       _Mtxunlock                 000000018002dbec f   libcpmt:xmtx.obj
 0001:0002cbf4       ??0bad_array_new_length@std@@QEAA@AEBV01@@Z 000000018002dbf4 f i libcpmt:locale.obj
 0001:0002cc30       ??0bad_array_new_length@std@@QEAA@XZ 000000018002dc30 f i libcpmt:locale.obj
 0001:0002cc50       ?_Atexit@@YAXP6AXXZ@Z      000000018002dc50 f   libcpmt:iosptrs.obj
 0001:0002cc8c       __crtLCMapStringA          000000018002dc8c f   libcpmt:StlLCMapStringA.obj
 0001:0002cfa0       __security_check_cookie    000000018002dfa0 f   LIBCMT:amdsecgs.obj
 0001:0002cfc0       ??2@YAPEAX_K@Z             000000018002dfc0 f   LIBCMT:new_scalar.obj
 0001:0002cffc       ??_V@YAXPEAX@Z             000000018002dffc f   LIBCMT:delete_array.obj
 0001:0002cffc       ??3@YAXPEAX_K@Z            000000018002dffc f   LIBCMT:delete_scalar_size.obj
 0001:0002d004       __scrt_acquire_startup_lock 000000018002e004 f   LIBCMT:utility.obj
 0001:0002d040       __scrt_dllmain_after_initialize_c 000000018002e040 f   LIBCMT:utility.obj
 0001:0002d074       __scrt_dllmain_before_initialize_c 000000018002e074 f   LIBCMT:utility.obj
 0001:0002d08c       __scrt_dllmain_crt_thread_attach 000000018002e08c f   LIBCMT:utility.obj
 0001:0002d0b4       __scrt_dllmain_crt_thread_detach 000000018002e0b4 f   LIBCMT:utility.obj
 0001:0002d0cc       __scrt_dllmain_exception_filter 000000018002e0cc f   LIBCMT:utility.obj
 0001:0002d12c       __scrt_dllmain_uninitialize_c 000000018002e12c f   LIBCMT:utility.obj
 0001:0002d15c       __scrt_dllmain_uninitialize_critical 000000018002e15c f   LIBCMT:utility.obj
 0001:0002d170       __scrt_initialize_crt      000000018002e170 f   LIBCMT:utility.obj
 0001:0002d1bc       __scrt_initialize_onexit_tables 000000018002e1bc f   LIBCMT:utility.obj
 0001:0002d248       __scrt_is_nonwritable_in_current_image 000000018002e248 f   LIBCMT:utility.obj
 0001:0002d2e0       __scrt_release_startup_lock 000000018002e2e0 f   LIBCMT:utility.obj
 0001:0002d304       __scrt_uninitialize_crt    000000018002e304 f   LIBCMT:utility.obj
 0001:0002d330       _onexit                    000000018002e330 f   LIBCMT:utility.obj
 0001:0002d36c       atexit                     000000018002e36c f   LIBCMT:utility.obj
 0001:0002d384       ??_Gtype_info@@UEAAPEAXI@Z 000000018002e384 f i LIBCMT:std_type_info_static.obj
 0001:0002d384       ??_Etype_info@@UEAAPEAXI@Z 000000018002e384 f i LIBCMT:std_type_info_static.obj
 0001:0002d3b0       ??_U@YAPEAX_KAEBUnothrow_t@std@@@Z 000000018002e3b0 f   LIBCMT:new_array_nothrow.obj
 0001:0002d3b8       ??_M@YAXPEAX_K1P6AX0@Z@Z   000000018002e3b8 f   LIBCMT:ehvecdtr.obj
 0001:0002d424       ?__ArrayUnwind@@YAXPEAX_K1P6AX0@Z@Z 000000018002e424 f   LIBCMT:ehvecdtr.obj
 0001:0002d488       ??_U@YAPEAX_K@Z            000000018002e488 f   LIBCMT:new_array.obj
 0001:0002d7b0       _DllMainCRTStartup         000000018002e7b0 f   LIBCMT:dll_dllmain.obj
 0001:0002d7f0       __GSHandlerCheck           000000018002e7f0 f   LIBCMT:gshandler.obj
 0001:0002d810       __GSHandlerCheckCommon     000000018002e810 f   LIBCMT:gshandler.obj
 0001:0002d86c       __GSHandlerCheck_EH4       000000018002e86c f   LIBCMT:gshandlereh4.obj
 0001:0002d900       _alloca_probe              000000018002e900 f   LIBCMT:chkstk.obj
 0001:0002d900       __chkstk                   000000018002e900 f   LIBCMT:chkstk.obj
 0001:0002d950       __raise_securityfailure    000000018002e950 f   LIBCMT:gs_report.obj
 0001:0002d984       __report_gsfailure         000000018002e984 f   LIBCMT:gs_report.obj
 0001:0002da58       __report_rangecheckfailure 000000018002ea58 f   LIBCMT:gs_report.obj
 0001:0002da6c       __report_securityfailure   000000018002ea6c f   LIBCMT:gs_report.obj
 0001:0002dbec       ?__scrt_throw_std_bad_array_new_length@@YAXXZ 000000018002ebec f   LIBCMT:throw_bad_alloc.obj
 0001:0002dc0c       ??3@YAXPEAX@Z              000000018002ec0c f   LIBCMT:delete_scalar.obj
 0001:0002dc14       __isa_available_init       000000018002ec14 f   LIBCMT:cpu_disp.obj
 0001:0002ddb8       DllMain                    000000018002edb8 f   LIBCMT:dll_dllmain_stub.obj
 0001:0002ddb8       _get_startup_argv_mode     000000018002edb8 f   LIBCMT:argv_mode.obj
 0001:0002ddc0       __scrt_is_ucrt_dll_in_use  000000018002edc0 f   LIBCMT:ucrt_detection.obj
 0001:0002ddcc       __crt_debugger_hook        000000018002edcc f   LIBCMT:utility_desktop.obj
 0001:0002ddd4       __scrt_fastfail            000000018002edd4 f   LIBCMT:utility_desktop.obj
 0001:0002df20       ??2@YAPEAX_KAEBUnothrow_t@std@@@Z 000000018002ef20 f   LIBCMT:new_scalar_nothrow.obj
 0001:0002df34       __security_init_cookie     000000018002ef34 f   LIBCMT:gs_support.obj
 0001:0002dfe0       ?__scrt_initialize_type_info@@YAXXZ 000000018002efe0 f   LIBCMT:tncleanup.obj
 0001:0002dff0       ?__scrt_uninitialize_type_info@@YAXXZ 000000018002eff0 f   LIBCMT:tncleanup.obj
 0001:0002dffc       __local_stdio_scanf_options 000000018002effc f i LIBCMT:default_local_stdio_options.obj
 0001:0002e004       __scrt_initialize_default_local_stdio_options 000000018002f004 f   LIBCMT:default_local_stdio_options.obj
 0001:0002e020       __scrt_get_dyn_tls_init_callback 000000018002f020 f   LIBCMT:dyn_tls_init.obj
 0001:0002e028       _RTC_Initialize            000000018002f028 f   LIBCMT:initsect.obj
 0001:0002e064       _RTC_Terminate             000000018002f064 f   LIBCMT:initsect.obj
 0001:0002e0a0       ??$_CallSETranslator@V__FrameHandler3@@@@YAHPEAUEHExceptionRecord@@PEA_KPEAU_CONTEXT@@PEAU_xDISPATCHER_CONTEXT@@PEBU_s_FuncInfo@@K1H@Z 000000018002f0a0 f i libvcruntime:risctrnsctrl.obj
 0001:0002e0f4       ??$_CallSETranslator@V__FrameHandler4@@@@YAHPEAUEHExceptionRecord@@PEA_KPEAU_CONTEXT@@PEAU_xDISPATCHER_CONTEXT@@PEAUFuncInfo4@FH4@@K1H@Z 000000018002f0f4 f i libvcruntime:risctrnsctrl.obj
 0001:0002e148       ?CatchTryBlock@__FrameHandler3@@SAPEBU_s_TryBlockMapEntry@@PEBU_s_FuncInfo@@H@Z 000000018002f148 f   libvcruntime:risctrnsctrl.obj
 0001:0002e19c       ?DecompFuncInfo@FH4@@YA_JPEAEAEAUFuncInfo4@1@_KH_N@Z 000000018002f19c f i libvcruntime:risctrnsctrl.obj
 0001:0002e2c0       ?ExecutionInCatch@__FrameHandler3@@SA_NPEAU_xDISPATCHER_CONTEXT@@PEBU_s_FuncInfo@@@Z 000000018002f2c0 f   libvcruntime:risctrnsctrl.obj
 0001:0002e2ec       ?ExecutionInCatch@__FrameHandler4@@SA_NPEAU_xDISPATCHER_CONTEXT@@PEAUFuncInfo4@FH4@@@Z 000000018002f2ec f   libvcruntime:risctrnsctrl.obj
 0001:0002e2f4       ?FrameUnwindToEmptyState@__FrameHandler3@@SAXPEA_KPEAU_xDISPATCHER_CONTEXT@@PEBU_s_FuncInfo@@@Z 000000018002f2f4 f   libvcruntime:risctrnsctrl.obj
 0001:0002e358       ?FrameUnwindToEmptyState@__FrameHandler4@@SAXPEA_KPEAU_xDISPATCHER_CONTEXT@@PEAUFuncInfo4@FH4@@@Z 000000018002f358 f   libvcruntime:risctrnsctrl.obj
 0001:0002e38c       ?GetEstablisherFrame@__FrameHandler3@@SAPEA_KPEA_KPEAU_xDISPATCHER_CONTEXT@@PEBU_s_FuncInfo@@0@Z 000000018002f38c f   libvcruntime:risctrnsctrl.obj
 0001:0002e458       ?GetEstablisherFrame@__FrameHandler4@@SAPEA_KPEA_KPEAU_xDISPATCHER_CONTEXT@@PEAUFuncInfo4@FH4@@0@Z 000000018002f458 f   libvcruntime:risctrnsctrl.obj
 0001:0002e47c       ?GetRangeOfTrysToCheck@__FrameHandler3@@SA?AU?$pair@Viterator@TryBlockMap@__FrameHandler3@@V123@@std@@AEAVTryBlockMap@1@HPEAU_xDISPATCHER_CONTEXT@@PEBU_s_FuncInfo@@H@Z 000000018002f47c f   libvcruntime:risctrnsctrl.obj
 0001:0002e5bc       ?GetRangeOfTrysToCheck@__FrameHandler4@@SA?AU?$pair@Viterator@TryBlockMap4@FH4@@V123@@std@@AEAVTryBlockMap4@FH4@@HPEAU_xDISPATCHER_CONTEXT@@PEAUFuncInfo4@5@H@Z 000000018002f5bc f   libvcruntime:risctrnsctrl.obj
 0001:0002e724       ?UnwindNestedFrames@__FrameHandler3@@SAXPEA_KPEAUEHExceptionRecord@@PEAU_CONTEXT@@0PEAXPEBU_s_FuncInfo@@HHPEBU_s_HandlerType@@PEAU_xDISPATCHER_CONTEXT@@E@Z 000000018002f724 f   libvcruntime:risctrnsctrl.obj
 0001:0002e828       ?UnwindNestedFrames@__FrameHandler4@@SAXPEA_KPEAUEHExceptionRecord@@PEAU_CONTEXT@@0PEAXPEAUFuncInfo4@FH4@@HHPEAUHandlerType4@5@PEAU_xDISPATCHER_CONTEXT@@E@Z 000000018002f828 f   libvcruntime:risctrnsctrl.obj
 0001:0002e948       ?setBuffer@TryBlockMap4@FH4@@QEAAXViterator@12@@Z 000000018002f948 f i libvcruntime:risctrnsctrl.obj
 0001:0002eb08       _CreateFrameInfo           000000018002fb08 f   libvcruntime:risctrnsctrl.obj
 0001:0002eb44       _FindAndUnlinkFrame        000000018002fb44 f   libvcruntime:risctrnsctrl.obj
 0001:0002eb98       _GetImageBase              000000018002fb98 f   libvcruntime:risctrnsctrl.obj
 0001:0002ebac       _GetThrowImageBase         000000018002fbac f   libvcruntime:risctrnsctrl.obj
 0001:0002ebc0       _SetImageBase              000000018002fbc0 f   libvcruntime:risctrnsctrl.obj
 0001:0002ebd8       _SetThrowImageBase         000000018002fbd8 f   libvcruntime:risctrnsctrl.obj
 0001:0002ebf0       __CxxFrameHandler3         000000018002fbf0 f   libvcruntime:risctrnsctrl.obj
 0001:0002ec78       __CxxFrameHandler4         000000018002fc78 f   libvcruntime:risctrnsctrl.obj
 0001:0002ed38       _get_purecall_handler      000000018002fd38 f   libvcruntime:purevirt.obj
 0001:0002ed44       _purecall                  000000018002fd44 f   libvcruntime:purevirt.obj
 0001:0002ed60       __DestructExceptionObject  000000018002fd60 f   libvcruntime:ehhelpers.obj
 0001:0002edd0       ?_CallMemberFunction0@@YAXQEAX0@Z 000000018002fdd0 f i libvcruntime:ehhelpers.obj
 0001:0002edd4       _IsExceptionObjectToBeDestroyed 000000018002fdd4 f   libvcruntime:ehhelpers.obj
 0001:0002ee04       __AdjustPointer            000000018002fe04 f   libvcruntime:ehhelpers.obj
 0001:0002ee28       __FrameUnwindFilter        000000018002fe28 f   libvcruntime:ehhelpers.obj
 0001:0002ee90       __current_exception        000000018002fe90 f   libvcruntime:ehhelpers.obj
 0001:0002eea4       __current_exception_context 000000018002fea4 f   libvcruntime:ehhelpers.obj
 0001:0002eeb8       __std_terminate            000000018002feb8 f   libvcruntime:ehhelpers.obj
 0001:0002eec4       longjmp                    000000018002fec4 f   libvcruntime:longjmpc.obj
 0001:0002eeec       strstr                     000000018002feec f   libvcruntime:strstr.obj
 0001:0002f0e8       __std_exception_copy       00000001800300e8 f   libvcruntime:std_exception.obj
 0001:0002f178       __std_exception_destroy    0000000180030178 f   libvcruntime:std_exception.obj
 0001:0002f1a0       _CxxThrowException         00000001800301a0 f   libvcruntime:throw.obj
 0001:0002f250       memcpy_repmovs             0000000180030250 f   libvcruntime:memcpy.obj
 0001:0002f270       memmove                    0000000180030270 f   libvcruntime:memcpy.obj
 0001:0002f270       memcpy                     0000000180030270 f   libvcruntime:memcpy.obj
 0001:0002f900       memchr                     0000000180030900 f   libvcruntime:memchr.obj
 0001:0002f980       memset_repmovs             0000000180030980 f   libvcruntime:memset.obj
 0001:0002f9a0       memset                     00000001800309a0 f   libvcruntime:memset.obj
 0001:0002fb40       memcmp                     0000000180030b40 f   libvcruntime:memcmp.obj
 0001:0002fc08       __vcrt_initialize          0000000180030c08 f   libvcruntime:initialization.obj
 0001:0002fc30       __vcrt_thread_attach       0000000180030c30 f   libvcruntime:initialization.obj
 0001:0002fc44       __vcrt_thread_detach       0000000180030c44 f   libvcruntime:initialization.obj
 0001:0002fc58       __vcrt_uninitialize        0000000180030c58 f   libvcruntime:initialization.obj
 0001:0002fc74       __vcrt_uninitialize_critical 0000000180030c74 f   libvcruntime:initialization.obj
 0001:0002fc84       __C_specific_handler       0000000180030c84 f   libvcruntime:riscchandler.obj
 0001:0002fe90       __std_type_info_compare    0000000180030e90 f   libvcruntime:std_type_info.obj
 0001:0002feb8       __std_type_info_destroy_list 0000000180030eb8 f   libvcruntime:std_type_info.obj
 0001:0002fee4       __vcrt_freefls             0000000180030ee4 f   libvcruntime:per_thread_data.obj
 0001:0002ff04       __vcrt_freeptd             0000000180030f04 f   libvcruntime:per_thread_data.obj
 0001:0002ff54       __vcrt_getptd              0000000180030f54 f   libvcruntime:per_thread_data.obj
 0001:0002ff70       __vcrt_getptd_noexit       0000000180030f70 f   libvcruntime:per_thread_data.obj
 0001:00030030       __vcrt_initialize_ptd      0000000180031030 f   libvcruntime:per_thread_data.obj
 0001:00030078       __vcrt_uninitialize_ptd    0000000180031078 f   libvcruntime:per_thread_data.obj
 0001:0003009c       ?GetCurrentState@__FrameHandler3@@SAHPEA_KPEAU_xDISPATCHER_CONTEXT@@PEBU_s_FuncInfo@@@Z 000000018003109c f   libvcruntime:ehstate.obj
 0001:000300c4       ?GetUnwindTryBlock@__FrameHandler3@@SAHPEA_KPEAU_xDISPATCHER_CONTEXT@@PEBU_s_FuncInfo@@@Z 00000001800310c4 f   libvcruntime:ehstate.obj
 0001:000300f0       ?SetState@__FrameHandler3@@SAXPEA_KPEBU_s_FuncInfo@@H@Z 00000001800310f0 f   libvcruntime:ehstate.obj
 0001:000300fc       ?SetUnwindTryBlock@__FrameHandler3@@SAXPEA_KPEAU_xDISPATCHER_CONTEXT@@PEBU_s_FuncInfo@@H@Z 00000001800310fc f   libvcruntime:ehstate.obj
 0001:00030138       ?StateFromControlPc@__FrameHandler3@@SAHPEBU_s_FuncInfo@@PEAU_xDISPATCHER_CONTEXT@@@Z 0000000180031138 f   libvcruntime:ehstate.obj
 0001:00030140       ?StateFromControlPc@__FrameHandler4@@SAHPEAUFuncInfo4@FH4@@PEAU_xDISPATCHER_CONTEXT@@@Z 0000000180031140 f   libvcruntime:ehstate.obj
 0001:00030148       ?StateFromIp@__FrameHandler3@@SAHPEBU_s_FuncInfo@@PEAU_xDISPATCHER_CONTEXT@@_K@Z 0000000180031148 f   libvcruntime:ehstate.obj
 0001:000301b0       ?StateFromIp@__FrameHandler4@@SAHPEAUFuncInfo4@FH4@@PEAU_xDISPATCHER_CONTEXT@@_K@Z 00000001800311b0 f   libvcruntime:ehstate.obj
 0001:00031894       ??$TypeMatchHelper@V__FrameHandler3@@@@YAHPEBU_s_HandlerType@@PEBU_s_CatchableType@@PEBU_s_ThrowInfo@@@Z 0000000180032894 f i libvcruntime:frame.obj
 0001:000319d4       ??$TypeMatchHelper@V__FrameHandler4@@@@YAHPEAUHandlerType4@FH4@@PEBU_s_CatchableType@@PEBU_s_ThrowInfo@@@Z 00000001800329d4 f i libvcruntime:frame.obj
 0001:00031b18       ??$__InternalCxxFrameHandler@V__FrameHandler3@@@@YA?AW4_EXCEPTION_DISPOSITION@@PEAUEHExceptionRecord@@PEA_KPEAU_CONTEXT@@PEAU_xDISPATCHER_CONTEXT@@PEBU_s_FuncInfo@@H1E@Z 0000000180032b18 f i libvcruntime:frame.obj
 0001:00031d50       ??$__InternalCxxFrameHandler@V__FrameHandler4@@@@YA?AW4_EXCEPTION_DISPOSITION@@PEAUEHExceptionRecord@@PEA_KPEAU_CONTEXT@@PEAU_xDISPATCHER_CONTEXT@@PEAUFuncInfo4@FH4@@H1E@Z 0000000180032d50 f i libvcruntime:frame.obj
 0001:00031fe4       ??0HandlerMap4@FH4@@QEAA@PEBUTryBlockMapEntry4@1@_KH@Z 0000000180032fe4 f i libvcruntime:frame.obj
 0001:00032060       ??0TryBlockMap4@FH4@@QEAA@PEBUFuncInfo4@1@_K@Z 0000000180033060 f i libvcruntime:frame.obj
 0001:00032138       ??0bad_exception@std@@QEAA@AEBV01@@Z 0000000180033138 f i libvcruntime:frame.obj
 0001:00032174       ??0bad_exception@std@@QEAA@XZ 0000000180033174 f i libvcruntime:frame.obj
 0001:00032194       ?CxxCallCatchBlock@__FrameHandler3@@SAPEAXPEAU_EXCEPTION_RECORD@@@Z 0000000180033194 f   libvcruntime:frame.obj
 0001:00032380       ?CxxCallCatchBlock@__FrameHandler4@@SAPEAXPEAU_EXCEPTION_RECORD@@@Z 0000000180033380 f   libvcruntime:frame.obj
 0001:000325d0       ?DecompHandler@HandlerMap4@FH4@@AEAAXXZ 00000001800335d0 f i libvcruntime:frame.obj
 0001:00032810       ?FrameUnwindToState@__FrameHandler3@@SAXPEA_KPEAU_xDISPATCHER_CONTEXT@@PEBU_s_FuncInfo@@H@Z 0000000180033810 f   libvcruntime:frame.obj
 0001:0003299c       ?FrameUnwindToState@__FrameHandler4@@SAXPEA_KPEAU_xDISPATCHER_CONTEXT@@PEAUFuncInfo4@FH4@@H@Z 000000018003399c f   libvcruntime:frame.obj
 0001:00032c84       ?GetHandlerSearchState@__FrameHandler3@@SAHPEA_KPEAU_xDISPATCHER_CONTEXT@@PEBU_s_FuncInfo@@@Z 0000000180033c84 f i libvcruntime:frame.obj
 0001:00032e94       ?ReadEntry@UWMap4@FH4@@AEAAXPEAPEAE@Z 0000000180033e94 f i libvcruntime:frame.obj
 0001:00032f34       ?_CallMemberFunction1@@YAXQEAX00@Z 0000000180033f34 f i libvcruntime:frame.obj
 0001:00032f40       ?_CallMemberFunction2@@YAXQEAX00H@Z 0000000180033f40 f i libvcruntime:frame.obj
 0001:00032f50       ?getStartStop@UWMap4@FH4@@QEAAXHHAEAViterator@12@0@Z 0000000180033f50 f i libvcruntime:frame.obj
 0001:00033020       ?getStateFromIterators@UWMap4@FH4@@SAHAEBViterator@12@H0H0@Z 0000000180034020 f i libvcruntime:frame.obj
 0001:000330f0       __except_validate_context_record 00000001800340f0 f   libvcruntime:jbcxrval.obj
 0001:00033128       __except_validate_jump_buffer 0000000180034128 f   libvcruntime:jbcxrval.obj
 0001:00033168       __vcrt_initialize_locks    0000000180034168 f   libvcruntime:locks.obj
 0001:0003319c       __vcrt_uninitialize_locks  000000018003419c f   libvcruntime:locks.obj
 0001:000331f0       _NLG_Notify                00000001800341f0 f   libvcruntime:notify.obj
 0001:00033210       __NLG_Dispatch2            0000000180034210 f   libvcruntime:notify.obj
 0001:00033220       __NLG_Return2              0000000180034220 f   libvcruntime:notify.obj
 0001:00033374       __vcrt_FlsAlloc            0000000180034374 f   libvcruntime:winapi_downlevel.obj
 0001:000333bc       __vcrt_FlsFree             00000001800343bc f   libvcruntime:winapi_downlevel.obj
 0001:00033404       __vcrt_FlsGetValue         0000000180034404 f   libvcruntime:winapi_downlevel.obj
 0001:0003344c       __vcrt_FlsSetValue         000000018003444c f   libvcruntime:winapi_downlevel.obj
 0001:000334a0       __vcrt_InitializeCriticalSectionEx 00000001800344a0 f   libvcruntime:winapi_downlevel.obj
 0001:00033520       _CallSettingFrame          0000000180034520 f   libvcruntime:handlers.obj
 0001:00033570       _CallSettingFrame_LookupContinuationIndex 0000000180034570 f   libvcruntime:handlers.obj
 0001:000335a0       _CallSettingFrame_NotifyContinuationAddr 00000001800345a0 f   libvcruntime:handlers.obj
 0001:000335d0       _CallSettingFrameEncoded   00000001800345d0 f   libvcruntime:handlers.obj
 0001:00033618       ?get_raw_ptd@__crt_cached_ptd_host@@QEAAPEAU__acrt_ptd@@XZ 0000000180034618 f i libucrt:invalid_parameter.obj
 0001:00033680       ?get_raw_ptd_noexit@__crt_cached_ptd_host@@QEAAPEAU__acrt_ptd@@XZ 0000000180034680 f i libucrt:invalid_parameter.obj
 0001:000336ec       ?value@?$dual_state_global@P6AXPEB_W00I_K@Z@__crt_state_management@@QEAAAEAP6AXPEB_W00I_K@ZAEAV__crt_cached_ptd_host@@@Z 00000001800346ec f i libucrt:invalid_parameter.obj
 0001:00033738       __acrt_call_reportfault    0000000180034738 f   libucrt:invalid_parameter.obj
 0001:00033894       __acrt_initialize_invalid_parameter_handler 0000000180034894 f   libucrt:invalid_parameter.obj
 0001:0003389c       _invalid_parameter         000000018003489c f   libucrt:invalid_parameter.obj
 0001:00033938       _invalid_parameter_internal 0000000180034938 f   libucrt:invalid_parameter.obj
 0001:00033a08       _invalid_parameter_noinfo  0000000180034a08 f   libucrt:invalid_parameter.obj
 0001:00033a28       _invalid_parameter_noinfo_noreturn 0000000180034a28 f   libucrt:invalid_parameter.obj
 0001:00033a58       _invoke_watson             0000000180034a58 f   libucrt:invalid_parameter.obj
 0001:00034124       ??$ftprintf@PEAU_iobuf@@PEB_WAEBQEB_WAEBQEB_WAEBI@?$__crt_char_traits@_W@@SAH$$QEAPEAU_iobuf@@$$QEAPEB_WAEBQEB_W2AEBI@Z 0000000180035124 f i libucrt:assert.obj
 0001:00034144       ??0__crt_stdio_stream@@QEAA@QEAU_iobuf@@@Z 0000000180035144 f i libucrt:assert.obj
 0001:0003422c       ?has_any_buffer@__crt_stdio_stream@@QEBA_NXZ 000000018003522c f i libucrt:assert.obj
 0001:0003423c       _wassert                   000000018003523c f   libucrt:assert.obj
 0001:000342b0       fwprintf                   00000001800352b0 f i libucrt:assert.obj
 0001:000342f4       swprintf                   00000001800352f4 f i libucrt:assert.obj
 0001:00034348       abort                      0000000180035348 f   libucrt:abort.obj
 0001:000343a0       ??0_LocaleUpdate@@QEAA@QEAU__crt_locale_pointers@@@Z 00000001800353a0 f i libucrt:tolower_toupper.obj
 0001:0003443c       _tolower_l                 000000018003543c f   libucrt:tolower_toupper.obj
 0001:00034570       _toupper_l                 0000000180035570 f   libucrt:tolower_toupper.obj
 0001:000346a4       tolower                    00000001800356a4 f   libucrt:tolower_toupper.obj
 0001:000346d0       toupper                    00000001800356d0 f   libucrt:tolower_toupper.obj
 0001:000346fc       ??$__acrt_convert_wcs_mbs_cp@D_WV<lambda_7c9dea7b4ca7285d2cdb541a38da6275>@@U__crt_win32_buffer_internal_dynamic_resizing@@@@YAHQEBDAEAV?$__crt_win32_buffer@_WU__crt_win32_buffer_internal_dynamic_resizing@@@@AEBV<lambda_7c9dea7b4ca7285d2cdb541a38da6275>@@I@Z 00000001800356fc f i libucrt:strftime.obj
 0001:00034878       ??$__acrt_convert_wcs_mbs_cp@_WDV<lambda_f788ae46380686e8b737efdd8c720d07>@@U__crt_win32_buffer_no_resizing@@@@YAHQEB_WAEAV?$__crt_win32_buffer@DU__crt_win32_buffer_no_resizing@@@@AEBV<lambda_f788ae46380686e8b737efdd8c720d07>@@I@Z 0000000180035878 f i libucrt:strftime.obj
 0001:00034994       _Strftime_l                0000000180035994 f   libucrt:strftime.obj
 0001:00034b00       strftime                   0000000180035b00 f   libucrt:strftime.obj
 0001:00034b1c       ??$__crt_time_is_leap_year@H@@YA_NH@Z 0000000180035b1c f i libucrt:gmtime.obj
 0001:00034e04       __getgmtimebuf             0000000180035e04 f   libucrt:gmtime.obj
 0001:00034e50       _gmtime64                  0000000180035e50 f   libucrt:gmtime.obj
 0001:00034eb0       strncpy                    0000000180035eb0 f   libucrt:strncpy.obj
 0001:00035014       free                       0000000180036014 f   libucrt:free.obj
 0001:00035028       round                      0000000180036028 f   libucrt:round.obj
 0001:00035090       malloc                     0000000180036090 f   libucrt:malloc.obj
 0001:00035098       __acrt_initialize_stdio    0000000180036098 f   libucrt:_file.obj
 0001:000351b8       __acrt_iob_func            00000001800361b8 f   libucrt:_file.obj
 0001:000351cc       __acrt_uninitialize_stdio  00000001800361cc f   libucrt:_file.obj
 0001:00035228       _lock_file                 0000000180036228 f   libucrt:_file.obj
 0001:00035234       _unlock_file               0000000180036234 f   libucrt:_file.obj
 0001:00035280       ??$ensure_buffer_is_big_enough@D@formatting_buffer@__crt_stdio_output@@QEAA_N_KAEAV__crt_cached_ptd_host@@@Z 0000000180036280 f i libucrt:output.obj
 0001:00035328       ??$ensure_buffer_is_big_enough@_W@formatting_buffer@__crt_stdio_output@@QEAA_N_KAEAV__crt_cached_ptd_host@@@Z 0000000180036328 f i libucrt:output.obj
 0001:000353d4       ??$is_wide_character_specifier@_W@__crt_stdio_output@@YA_N_K_WW4length_modifier@0@@Z 00000001800363d4 f i libucrt:output.obj
 0001:00035414       ??$parse_integer@KV?$c_string_character_source@D@__crt_strtox@@$0A@@__crt_strtox@@YAKAEAV__crt_cached_ptd_host@@V?$c_string_character_source@D@0@H_N@Z 0000000180036414 f i libucrt:output.obj
 0001:000356c4       ??$parse_integer@KV?$c_string_character_source@_W@__crt_strtox@@$0A@@__crt_strtox@@YAKAEAV__crt_cached_ptd_host@@V?$c_string_character_source@_W@0@H_N@Z 00000001800366c4 f i libucrt:output.obj
 0001:00035e1c       ??$type_case_integer@$07@?$output_processor@DV?$string_output_adapter@D@__crt_stdio_output@@V?$standard_base@DV?$string_output_adapter@D@__crt_stdio_output@@@2@@__crt_stdio_output@@AEAA_N_N@Z 0000000180036e1c f i libucrt:output.obj
 0001:00036004       ??$type_case_integer@$07@?$output_processor@_WV?$stream_output_adapter@_W@__crt_stdio_output@@V?$standard_base@_WV?$stream_output_adapter@_W@__crt_stdio_output@@@2@@__crt_stdio_output@@AEAA_N_N@Z 0000000180037004 f i libucrt:output.obj
 0001:00036004       ??$type_case_integer@$07@?$output_processor@_WV?$string_output_adapter@_W@__crt_stdio_output@@V?$standard_base@_WV?$string_output_adapter@_W@__crt_stdio_output@@@2@@__crt_stdio_output@@AEAA_N_N@Z 0000000180037004 f i libucrt:output.obj
 0001:000361f0       ??$type_case_integer@$09@?$output_processor@DV?$string_output_adapter@D@__crt_stdio_output@@V?$standard_base@DV?$string_output_adapter@D@__crt_stdio_output@@@2@@__crt_stdio_output@@AEAA_N_N@Z 00000001800371f0 f i libucrt:output.obj
 0001:000363d8       ??$type_case_integer@$09@?$output_processor@_WV?$stream_output_adapter@_W@__crt_stdio_output@@V?$standard_base@_WV?$stream_output_adapter@_W@__crt_stdio_output@@@2@@__crt_stdio_output@@AEAA_N_N@Z 00000001800373d8 f i libucrt:output.obj
 0001:000363d8       ??$type_case_integer@$09@?$output_processor@_WV?$string_output_adapter@_W@__crt_stdio_output@@V?$standard_base@_WV?$string_output_adapter@_W@__crt_stdio_output@@@2@@__crt_stdio_output@@AEAA_N_N@Z 00000001800373d8 f i libucrt:output.obj
 0001:000365c4       ??$type_case_integer@$0BA@@?$output_processor@DV?$string_output_adapter@D@__crt_stdio_output@@V?$standard_base@DV?$string_output_adapter@D@__crt_stdio_output@@@2@@__crt_stdio_output@@AEAA_N_N@Z 00000001800375c4 f i libucrt:output.obj
 0001:000367ac       ??$type_case_integer@$0BA@@?$output_processor@_WV?$stream_output_adapter@_W@__crt_stdio_output@@V?$standard_base@_WV?$stream_output_adapter@_W@__crt_stdio_output@@@2@@__crt_stdio_output@@AEAA_N_N@Z 00000001800377ac f i libucrt:output.obj
 0001:000367ac       ??$type_case_integer@$0BA@@?$output_processor@_WV?$string_output_adapter@_W@__crt_stdio_output@@V?$standard_base@_WV?$string_output_adapter@_W@__crt_stdio_output@@@2@@__crt_stdio_output@@AEAA_N_N@Z 00000001800377ac f i libucrt:output.obj
 0001:00036998       ??$type_case_integer_parse_into_buffer@I$07@?$output_processor@DV?$string_output_adapter@D@__crt_stdio_output@@V?$standard_base@DV?$string_output_adapter@D@__crt_stdio_output@@@2@@__crt_stdio_output@@AEAAXI_N@Z 0000000180037998 f i libucrt:output.obj
 0001:00036a14       ??$type_case_integer_parse_into_buffer@I$07@?$output_processor@_WV?$stream_output_adapter@_W@__crt_stdio_output@@V?$standard_base@_WV?$stream_output_adapter@_W@__crt_stdio_output@@@2@@__crt_stdio_output@@AEAAXI_N@Z 0000000180037a14 f i libucrt:output.obj
 0001:00036a14       ??$type_case_integer_parse_into_buffer@I$07@?$output_processor@_WV?$string_output_adapter@_W@__crt_stdio_output@@V?$standard_base@_WV?$string_output_adapter@_W@__crt_stdio_output@@@2@@__crt_stdio_output@@AEAAXI_N@Z 0000000180037a14 f i libucrt:output.obj
 0001:00036a9c       ??$type_case_integer_parse_into_buffer@I$09@?$output_processor@DV?$string_output_adapter@D@__crt_stdio_output@@V?$standard_base@DV?$string_output_adapter@D@__crt_stdio_output@@@2@@__crt_stdio_output@@AEAAXI_N@Z 0000000180037a9c f i libucrt:output.obj
 0001:00036b44       ??$type_case_integer_parse_into_buffer@I$09@?$output_processor@_WV?$string_output_adapter@_W@__crt_stdio_output@@V?$standard_base@_WV?$string_output_adapter@_W@__crt_stdio_output@@@2@@__crt_stdio_output@@AEAAXI_N@Z 0000000180037b44 f i libucrt:output.obj
 0001:00036b44       ??$type_case_integer_parse_into_buffer@I$09@?$output_processor@_WV?$stream_output_adapter@_W@__crt_stdio_output@@V?$standard_base@_WV?$stream_output_adapter@_W@__crt_stdio_output@@@2@@__crt_stdio_output@@AEAAXI_N@Z 0000000180037b44 f i libucrt:output.obj
 0001:00036bfc       ??$type_case_integer_parse_into_buffer@I$0BA@@?$output_processor@DV?$string_output_adapter@D@__crt_stdio_output@@V?$standard_base@DV?$string_output_adapter@D@__crt_stdio_output@@@2@@__crt_stdio_output@@AEAAXI_N@Z 0000000180037bfc f i libucrt:output.obj
 0001:00036c88       ??$type_case_integer_parse_into_buffer@I$0BA@@?$output_processor@_WV?$stream_output_adapter@_W@__crt_stdio_output@@V?$standard_base@_WV?$stream_output_adapter@_W@__crt_stdio_output@@@2@@__crt_stdio_output@@AEAAXI_N@Z 0000000180037c88 f i libucrt:output.obj
 0001:00036c88       ??$type_case_integer_parse_into_buffer@I$0BA@@?$output_processor@_WV?$string_output_adapter@_W@__crt_stdio_output@@V?$standard_base@_WV?$string_output_adapter@_W@__crt_stdio_output@@@2@@__crt_stdio_output@@AEAAXI_N@Z 0000000180037c88 f i libucrt:output.obj
 0001:00036d2c       ??$type_case_integer_parse_into_buffer@_K$07@?$output_processor@DV?$string_output_adapter@D@__crt_stdio_output@@V?$standard_base@DV?$string_output_adapter@D@__crt_stdio_output@@@2@@__crt_stdio_output@@AEAAX_K_N@Z 0000000180037d2c f i libucrt:output.obj
 0001:00036da8       ??$type_case_integer_parse_into_buffer@_K$07@?$output_processor@_WV?$string_output_adapter@_W@__crt_stdio_output@@V?$standard_base@_WV?$string_output_adapter@_W@__crt_stdio_output@@@2@@__crt_stdio_output@@AEAAX_K_N@Z 0000000180037da8 f i libucrt:output.obj
 0001:00036da8       ??$type_case_integer_parse_into_buffer@_K$07@?$output_processor@_WV?$stream_output_adapter@_W@__crt_stdio_output@@V?$standard_base@_WV?$stream_output_adapter@_W@__crt_stdio_output@@@2@@__crt_stdio_output@@AEAAX_K_N@Z 0000000180037da8 f i libucrt:output.obj
 0001:00036e30       ??$type_case_integer_parse_into_buffer@_K$09@?$output_processor@DV?$string_output_adapter@D@__crt_stdio_output@@V?$standard_base@DV?$string_output_adapter@D@__crt_stdio_output@@@2@@__crt_stdio_output@@AEAAX_K_N@Z 0000000180037e30 f i libucrt:output.obj
 0001:00036edc       ??$type_case_integer_parse_into_buffer@_K$09@?$output_processor@_WV?$string_output_adapter@_W@__crt_stdio_output@@V?$standard_base@_WV?$string_output_adapter@_W@__crt_stdio_output@@@2@@__crt_stdio_output@@AEAAX_K_N@Z 0000000180037edc f i libucrt:output.obj
 0001:00036edc       ??$type_case_integer_parse_into_buffer@_K$09@?$output_processor@_WV?$stream_output_adapter@_W@__crt_stdio_output@@V?$standard_base@_WV?$stream_output_adapter@_W@__crt_stdio_output@@@2@@__crt_stdio_output@@AEAAX_K_N@Z 0000000180037edc f i libucrt:output.obj
 0001:00036f9c       ??$type_case_integer_parse_into_buffer@_K$0BA@@?$output_processor@DV?$string_output_adapter@D@__crt_stdio_output@@V?$standard_base@DV?$string_output_adapter@D@__crt_stdio_output@@@2@@__crt_stdio_output@@AEAAX_K_N@Z 0000000180037f9c f i libucrt:output.obj
 0001:00037028       ??$type_case_integer_parse_into_buffer@_K$0BA@@?$output_processor@_WV?$string_output_adapter@_W@__crt_stdio_output@@V?$standard_base@_WV?$string_output_adapter@_W@__crt_stdio_output@@@2@@__crt_stdio_output@@AEAAX_K_N@Z 0000000180038028 f i libucrt:output.obj
 0001:00037028       ??$type_case_integer_parse_into_buffer@_K$0BA@@?$output_processor@_WV?$stream_output_adapter@_W@__crt_stdio_output@@V?$standard_base@_WV?$stream_output_adapter@_W@__crt_stdio_output@@@2@@__crt_stdio_output@@AEAAX_K_N@Z 0000000180038028 f i libucrt:output.obj
 0001:000371e8       ?crop_zeroes@__crt_stdio_output@@YAXPEADQEAU__crt_locale_pointers@@@Z 00000001800381e8 f i libucrt:output.obj
 0001:00037254       ?parse_int_from_format_string@?$output_processor@DV?$string_output_adapter@D@__crt_stdio_output@@V?$standard_base@DV?$string_output_adapter@D@__crt_stdio_output@@@2@@__crt_stdio_output@@AEAA_NQEAH@Z 0000000180038254 f i libucrt:output.obj
 0001:000372e4       ?parse_int_from_format_string@?$output_processor@_WV?$stream_output_adapter@_W@__crt_stdio_output@@V?$standard_base@_WV?$stream_output_adapter@_W@__crt_stdio_output@@@2@@__crt_stdio_output@@AEAA_NQEAH@Z 00000001800382e4 f i libucrt:output.obj
 0001:000372e4       ?parse_int_from_format_string@?$output_processor@_WV?$string_output_adapter@_W@__crt_stdio_output@@V?$standard_base@_WV?$string_output_adapter@_W@__crt_stdio_output@@@2@@__crt_stdio_output@@AEAA_NQEAH@Z 00000001800382e4 f i libucrt:output.obj
 0001:00037374       ?process@?$output_processor@DV?$string_output_adapter@D@__crt_stdio_output@@V?$standard_base@DV?$string_output_adapter@D@__crt_stdio_output@@@2@@__crt_stdio_output@@QEAAHXZ 0000000180038374 f i libucrt:output.obj
 0001:000376f8       ?process@?$output_processor@_WV?$stream_output_adapter@_W@__crt_stdio_output@@V?$standard_base@_WV?$stream_output_adapter@_W@__crt_stdio_output@@@2@@__crt_stdio_output@@QEAAHXZ 00000001800386f8 f i libucrt:output.obj
 0001:000379b4       ?process@?$output_processor@_WV?$string_output_adapter@_W@__crt_stdio_output@@V?$standard_base@_WV?$string_output_adapter@_W@__crt_stdio_output@@@2@@__crt_stdio_output@@QEAAHXZ 00000001800389b4 f i libucrt:output.obj
 0001:00037c78       ?state_case_size@?$output_processor@DV?$string_output_adapter@D@__crt_stdio_output@@V?$standard_base@DV?$string_output_adapter@D@__crt_stdio_output@@@2@@__crt_stdio_output@@AEAA_NXZ 0000000180038c78 f i libucrt:output.obj
 0001:00037dfc       ?state_case_size@?$output_processor@_WV?$stream_output_adapter@_W@__crt_stdio_output@@V?$standard_base@_WV?$stream_output_adapter@_W@__crt_stdio_output@@@2@@__crt_stdio_output@@AEAA_NXZ 0000000180038dfc f i libucrt:output.obj
 0001:00037fa8       ?state_case_size@?$output_processor@_WV?$string_output_adapter@_W@__crt_stdio_output@@V?$standard_base@_WV?$string_output_adapter@_W@__crt_stdio_output@@@2@@__crt_stdio_output@@AEAA_NXZ 0000000180038fa8 f i libucrt:output.obj
 0001:00038154       ?state_case_type@?$output_processor@DV?$string_output_adapter@D@__crt_stdio_output@@V?$standard_base@DV?$string_output_adapter@D@__crt_stdio_output@@@2@@__crt_stdio_output@@AEAA_NXZ 0000000180039154 f i libucrt:output.obj
 0001:00038520       ?state_case_type@?$output_processor@_WV?$stream_output_adapter@_W@__crt_stdio_output@@V?$standard_base@_WV?$stream_output_adapter@_W@__crt_stdio_output@@@2@@__crt_stdio_output@@AEAA_NXZ 0000000180039520 f i libucrt:output.obj
 0001:000389f0       ?state_case_type@?$output_processor@_WV?$string_output_adapter@_W@__crt_stdio_output@@V?$standard_base@_WV?$string_output_adapter@_W@__crt_stdio_output@@@2@@__crt_stdio_output@@AEAA_NXZ 00000001800399f0 f i libucrt:output.obj
 0001:00038e4c       ?type_case_Z@?$output_processor@DV?$string_output_adapter@D@__crt_stdio_output@@V?$standard_base@DV?$string_output_adapter@D@__crt_stdio_output@@@2@@__crt_stdio_output@@AEAA_NXZ 0000000180039e4c f i libucrt:output.obj
 0001:00038ec0       ?type_case_Z@?$output_processor@_WV?$stream_output_adapter@_W@__crt_stdio_output@@V?$standard_base@_WV?$stream_output_adapter@_W@__crt_stdio_output@@@2@@__crt_stdio_output@@AEAA_NXZ 0000000180039ec0 f i libucrt:output.obj
 0001:00038ec0       ?type_case_Z@?$output_processor@_WV?$string_output_adapter@_W@__crt_stdio_output@@V?$standard_base@_WV?$string_output_adapter@_W@__crt_stdio_output@@@2@@__crt_stdio_output@@AEAA_NXZ 0000000180039ec0 f i libucrt:output.obj
 0001:00038f3c       ?type_case_a@?$output_processor@DV?$string_output_adapter@D@__crt_stdio_output@@V?$standard_base@DV?$string_output_adapter@D@__crt_stdio_output@@@2@@__crt_stdio_output@@AEAA_NXZ 0000000180039f3c f i libucrt:output.obj
 0001:00039188       ?type_case_a@?$output_processor@_WV?$stream_output_adapter@_W@__crt_stdio_output@@V?$standard_base@_WV?$stream_output_adapter@_W@__crt_stdio_output@@@2@@__crt_stdio_output@@AEAA_NXZ 000000018003a188 f i libucrt:output.obj
 0001:00039188       ?type_case_a@?$output_processor@_WV?$string_output_adapter@_W@__crt_stdio_output@@V?$standard_base@_WV?$string_output_adapter@_W@__crt_stdio_output@@@2@@__crt_stdio_output@@AEAA_NXZ 000000018003a188 f i libucrt:output.obj
 0001:000393e8       ?type_case_c_tchar@?$output_processor@DV?$string_output_adapter@D@__crt_stdio_output@@V?$standard_base@DV?$string_output_adapter@D@__crt_stdio_output@@@2@@__crt_stdio_output@@AEAA_ND@Z 000000018003a3e8 f i libucrt:output.obj
 0001:000394ac       ?type_case_c_tchar@?$output_processor@_WV?$stream_output_adapter@_W@__crt_stdio_output@@V?$standard_base@_WV?$stream_output_adapter@_W@__crt_stdio_output@@@2@@__crt_stdio_output@@AEAA_N_W@Z 000000018003a4ac f i libucrt:output.obj
 0001:000394ac       ?type_case_c_tchar@?$output_processor@_WV?$string_output_adapter@_W@__crt_stdio_output@@V?$standard_base@_WV?$string_output_adapter@_W@__crt_stdio_output@@@2@@__crt_stdio_output@@AEAA_N_W@Z 000000018003a4ac f i libucrt:output.obj
 0001:00039570       ?type_case_n@?$output_processor@_WV?$stream_output_adapter@_W@__crt_stdio_output@@V?$standard_base@_WV?$stream_output_adapter@_W@__crt_stdio_output@@@2@@__crt_stdio_output@@AEAA_NXZ 000000018003a570 f i libucrt:output.obj
 0001:00039570       ?type_case_n@?$output_processor@DV?$string_output_adapter@D@__crt_stdio_output@@V?$standard_base@DV?$string_output_adapter@D@__crt_stdio_output@@@2@@__crt_stdio_output@@AEAA_NXZ 000000018003a570 f i libucrt:output.obj
 0001:00039570       ?type_case_n@?$output_processor@_WV?$string_output_adapter@_W@__crt_stdio_output@@V?$standard_base@_WV?$string_output_adapter@_W@__crt_stdio_output@@@2@@__crt_stdio_output@@AEAA_NXZ 000000018003a570 f i libucrt:output.obj
 0001:00039624       ?type_case_s@?$output_processor@DV?$string_output_adapter@D@__crt_stdio_output@@V?$standard_base@DV?$string_output_adapter@D@__crt_stdio_output@@@2@@__crt_stdio_output@@AEAA_NXZ 000000018003a624 f i libucrt:output.obj
 0001:000396b8       ?type_case_s@?$output_processor@_WV?$string_output_adapter@_W@__crt_stdio_output@@V?$standard_base@_WV?$string_output_adapter@_W@__crt_stdio_output@@@2@@__crt_stdio_output@@AEAA_NXZ 000000018003a6b8 f i libucrt:output.obj
 0001:000396b8       ?type_case_s@?$output_processor@_WV?$stream_output_adapter@_W@__crt_stdio_output@@V?$standard_base@_WV?$stream_output_adapter@_W@__crt_stdio_output@@@2@@__crt_stdio_output@@AEAA_NXZ 000000018003a6b8 f i libucrt:output.obj
 0001:00039750       ?type_case_s_compute_narrow_string_length@?$output_processor@_WV?$string_output_adapter@_W@__crt_stdio_output@@V?$standard_base@_WV?$string_output_adapter@_W@__crt_stdio_output@@@2@@__crt_stdio_output@@AEAAHH_W@Z 000000018003a750 f i libucrt:output.obj
 0001:00039750       ?type_case_s_compute_narrow_string_length@?$output_processor@_WV?$stream_output_adapter@_W@__crt_stdio_output@@V?$standard_base@_WV?$stream_output_adapter@_W@__crt_stdio_output@@@2@@__crt_stdio_output@@AEAAHH_W@Z 000000018003a750 f i libucrt:output.obj
 0001:000397d0       ?update_locale_slow@__crt_cached_ptd_host@@AEAAXXZ 000000018003a7d0 f i libucrt:output.obj
 0001:00039848       ?write_string@?$string_output_adapter@D@__crt_stdio_output@@QEBAXQEBDHQEAHAEAV__crt_cached_ptd_host@@@Z 000000018003a848 f i libucrt:output.obj
 0001:000398ec       ?write_string@?$string_output_adapter@_W@__crt_stdio_output@@QEBAXQEB_WHQEAHAEAV__crt_cached_ptd_host@@@Z 000000018003a8ec f i libucrt:output.obj
 0001:00039994       ?write_string_impl@?$output_adapter_common@_WV?$stream_output_adapter@_W@__crt_stdio_output@@@__crt_stdio_output@@IEBAXQEB_WHQEAHAEAV__crt_cached_ptd_host@@@Z 000000018003a994 f i libucrt:output.obj
 0001:00039a70       __stdio_common_vfwprintf   000000018003aa70 f   libucrt:output.obj
 0001:00039b94       __stdio_common_vsprintf    000000018003ab94 f   libucrt:output.obj
 0001:00039de8       __stdio_common_vswprintf   000000018003ade8 f   libucrt:output.obj
 0001:0003a554       _ftelli64_nolock_internal  000000018003b554 f   libucrt:ftell.obj
 0001:0003a55c       ftell                      000000018003b55c f   libucrt:ftell.obj
 0001:0003a6b0       fopen                      000000018003b6b0 f   libucrt:fopen.obj
 0001:0003a7dc       fclose                     000000018003b7dc f   libucrt:fclose.obj
 0001:0003aac4       fseek                      000000018003bac4 f   libucrt:fseek.obj
 0001:0003ac48       rewind                     000000018003bc48 f   libucrt:rewind.obj
 0001:0003acd4       __acrt_errno_from_os_error 000000018003bcd4 f   libucrt:errno.obj
 0001:0003ad1c       __acrt_errno_map_os_error  000000018003bd1c f   libucrt:errno.obj
 0001:0003ad64       __acrt_errno_map_os_error_ptd 000000018003bd64 f   libucrt:errno.obj
 0001:0003ad88       __doserrno                 000000018003bd88 f   libucrt:errno.obj
 0001:0003ada8       _errno                     000000018003bda8 f   libucrt:errno.obj
 0001:0003adc8       _fread_nolock_s            000000018003bdc8 f   libucrt:fread.obj
 0001:0003b028       fread                      000000018003c028 f   libucrt:fread.obj
 0001:0003b048       fread_s                    000000018003c048 f   libucrt:fread.obj
 0001:0003b574       _fstat64i32                000000018003c574 f   libucrt:stat.obj
 0001:0003b64c       __ascii_stricmp            000000018003c64c f   libucrt:stricmp.obj
 0001:0003b688       _stricmp                   000000018003c688 f   libucrt:stricmp.obj
 0001:0003b6d0       _stricmp_l                 000000018003c6d0 f   libucrt:stricmp.obj
 0001:0003b758       __acrt_initialize_locks    000000018003c758 f   libucrt:locks.obj
 0001:0003b7a0       __acrt_lock                000000018003c7a0 f   libucrt:locks.obj
 0001:0003b7bc       __acrt_uninitialize_locks  000000018003c7bc f   libucrt:locks.obj
 0001:0003b7f4       __acrt_unlock              000000018003c7f4 f   libucrt:locks.obj
 0001:0003b810       _lock_locales              000000018003c810 f   libucrt:locks.obj
 0001:0003b82c       _unlock_locales            000000018003c82c f   libucrt:locks.obj
 0001:0003bb18       setlocale                  000000018003cb18 f   libucrt:setlocale.obj
 0001:0003bb64       __pctype_func              000000018003cb64 f   libucrt:ctype.obj
 0001:0003bba0       islower                    000000018003cba0 f   libucrt:_ctype.obj
 0001:0003bc50       isupper                    000000018003cc50 f   libucrt:_ctype.obj
 0001:0003bcf8       ___lc_codepage_func        000000018003ccf8 f   libucrt:initctype.obj
 0001:0003bd28       ___lc_locale_name_func     000000018003cd28 f   libucrt:initctype.obj
 0001:0003bd5c       __acrt_locale_initialize_ctype 000000018003cd5c f   libucrt:initctype.obj
 0001:0003c3c0       calloc                     000000018003d3c0 f   libucrt:calloc.obj
 0001:0003c3c8       _wcsdup                    000000018003d3c8 f   libucrt:wcsdup.obj
 0001:0003c450       ?divide@__crt_strtox@@YA_KAEAUbig_integer@1@AEBU21@@Z 000000018003d450 f i libucrt:strtod.obj
 0001:0003c970       pow                        000000018003d970 f   libucrt:pow.obj
 0001:0003e010       powf                       000000018003f010 f   libucrt:powf.obj
 0001:0003eed8       __strncnt                  000000018003fed8 f   libucrt:strncnt.obj
 0001:00040538       _Wcsftime_l                0000000180041538 f   libucrt:wcsftime.obj
 0001:000406c4       strnlen                    00000001800416c4 f   libucrt:strnlen.obj
 0001:00040814       wcsnlen                    0000000180041814 f   libucrt:strnlen.obj
 0001:000409ec       __acrt_initialize_new_handler 00000001800419ec f   libucrt:new_handler.obj
 0001:000409f4       _callnewh                  00000001800419f4 f   libucrt:new_handler.obj
 0001:00040a30       _query_new_handler         0000000180041a30 f   libucrt:new_handler.obj
 0001:00040a64       _seh_filter_dll            0000000180041a64 f   libucrt:exception_filter.obj
 0001:00040a78       _seh_filter_exe            0000000180041a78 f   libucrt:exception_filter.obj
 0001:00040e9c       __acrt_initialize_thread_local_exit_callback 0000000180041e9c f   libucrt:exit.obj
 0001:00040ea4       _cexit                     0000000180041ea4 f   libucrt:exit.obj
 0001:00040eb4       _exit                      0000000180041eb4 f   libucrt:exit.obj
 0001:00040ec0       _is_c_termination_complete 0000000180041ec0 f   libucrt:exit.obj
 0001:00041088       __acrt_allocate_buffer_for_argv 0000000180042088 f   libucrt:argv_parsing.obj
 0001:000410e8       _configure_narrow_argv     00000001800420e8 f   libucrt:argv_parsing.obj
 0001:000416b8       __dcrt_get_or_create_wide_environment_nolock 00000001800426b8 f   libucrt:environment_initialization.obj
 0001:000416f4       __dcrt_uninitialize_environments_nolock 00000001800426f4 f   libucrt:environment_initialization.obj
 0001:00041738       _initialize_narrow_environment 0000000180042738 f   libucrt:environment_initialization.obj
 0001:00041a88       _crt_atexit                0000000180042a88 f   libucrt:onexit.obj
 0001:00041a98       _execute_onexit_table      0000000180042a98 f   libucrt:onexit.obj
 0001:00041adc       _initialize_onexit_table   0000000180042adc f   libucrt:onexit.obj
 0001:00041b04       _register_onexit_function  0000000180042b04 f   libucrt:onexit.obj
 0001:00041ba8       __acrt_uninitialize_command_line 0000000180042ba8 f   libucrt:argv_data.obj
 0001:00041c7c       __acrt_initialize          0000000180042c7c f   libucrt:initialization.obj
 0001:00041c90       __acrt_thread_attach       0000000180042c90 f   libucrt:initialization.obj
 0001:00041ca4       __acrt_thread_detach       0000000180042ca4 f   libucrt:initialization.obj
 0001:00041cb4       __acrt_uninitialize        0000000180042cb4 f   libucrt:initialization.obj
 0001:00041cec       __acrt_uninitialize_critical 0000000180042cec f   libucrt:initialization.obj
 0001:00041cfc       terminate                  0000000180042cfc f   libucrt:terminate.obj
 0001:00041d28       _initterm                  0000000180042d28 f   libucrt:initterm.obj
 0001:00041d6c       _initterm_e                0000000180042d6c f   libucrt:initterm.obj
 0001:00041db4       strdup                     0000000180042db4 f   libucrt:strdup.obj
 0001:00041db4       _strdup                    0000000180042db4 f   libucrt:strdup.obj
 0001:00041e2c       _fileno                    0000000180042e2c f   libucrt:fileno.obj
 0001:00041e2c       fileno                     0000000180042e2c f   libucrt:fileno.obj
 0001:00041e54       strcpy_s                   0000000180042e54 f   libucrt:strcpy_s.obj
 0001:00041eb4       ??$parse_integer@KV?$c_string_character_source@_W@__crt_strtox@@$00@__crt_strtox@@YAKAEAV__crt_cached_ptd_host@@V?$c_string_character_source@_W@0@H_N@Z 0000000180042eb4 f i libucrt:atox.obj
 0001:0004263c       _wtol                      000000018004363c f   libucrt:atox.obj
 0001:00042700       strncmp                    0000000180043700 f   libucrt:strncmp.obj
 0001:00042780       wcsncmp                    0000000180043780 f   libucrt:wcsncmp.obj
 0001:00042b24       __acrt_freeptd             0000000180043b24 f   libucrt:per_thread_data.obj
 0001:00042b68       __acrt_getptd              0000000180043b68 f   libucrt:per_thread_data.obj
 0001:00042c3c       __acrt_getptd_head         0000000180043c3c f   libucrt:per_thread_data.obj
 0001:00042ce0       __acrt_getptd_noexit       0000000180043ce0 f   libucrt:per_thread_data.obj
 0001:00042da8       __acrt_getptd_noexit_explicit 0000000180043da8 f   libucrt:per_thread_data.obj
 0001:00042e68       __acrt_initialize_ptd      0000000180043e68 f   libucrt:per_thread_data.obj
 0001:00042ea4       __acrt_uninitialize_ptd    0000000180043ea4 f   libucrt:per_thread_data.obj
 0001:00043130       ?commit_locale_name@_expandlocale_locale_name_cache@@QEAAXQEB_W_K@Z 0000000180044130 f i libucrt:wsetlocale.obj
 0001:000431a8       __acrt_copy_locale_name    00000001800441a8 f   libucrt:wsetlocale.obj
 0001:0004322c       __acrt_set_locale_changed  000000018004422c f   libucrt:wsetlocale.obj
 0001:00043238       __acrt_uninitialize_locale 0000000180044238 f   libucrt:wsetlocale.obj
 0001:00043268       __lc_lctowcs               0000000180044268 f   libucrt:wsetlocale.obj
 0001:0004330c       __lc_wcstolc               000000018004430c f   libucrt:wsetlocale.obj
 0001:000439b4       _wcscats                   00000001800449b4 f   libucrt:wsetlocale.obj
 0001:00043a1c       _wsetlocale                0000000180044a1c f   libucrt:wsetlocale.obj
 0001:00044758       _query_app_type            0000000180045758 f   libucrt:report_runtime_error.obj
 0001:000448a0       _itow_s                    00000001800458a0 f   libucrt:xtoa.obj
 0001:000448c0       _set_error_mode            00000001800458c0 f   libucrt:set_error_mode.obj
 0001:00044900       wcscat_s                   0000000180045900 f   libucrt:wcscat_s.obj
 0001:00044984       wcscpy_s                   0000000180045984 f   libucrt:wcscpy_s.obj
 0001:000449ec       wcsncat_s                  00000001800459ec f   libucrt:wcsncat_s.obj
 0001:00044af0       __acrt_GetModuleFileNameA  0000000180045af0 f   libucrt:getmodulefilenamea.obj
 0001:00044c14       __acrt_show_wide_message_box 0000000180045c14 f   libucrt:crtmbox.obj
 0001:00044ed4       __acrt_stdio_flush_nolock  0000000180045ed4 f   libucrt:fflush.obj
 0001:00044f60       _fflush_nolock             0000000180045f60 f   libucrt:fflush.obj
 0001:00045034       _flushall                  0000000180046034 f   libucrt:fflush.obj
 0001:0004503c       fflush                     000000018004603c f   libucrt:fflush.obj
 0001:000451cc       setvbuf                    00000001800461cc f   libucrt:setvbuf.obj
 0001:0004534c       __acrt_get_sigabrt_handler 000000018004634c f   libucrt:signal.obj
 0001:0004537c       __acrt_initialize_signal_handlers 000000018004637c f   libucrt:signal.obj
 0001:0004539c       raise                      000000018004639c f   libucrt:signal.obj
 0001:0004593c       __acrt_LCMapStringA        000000018004693c f   libucrt:lcmapstringa.obj
 0001:000459d4       __acrt_update_locale_info  00000001800469d4 f   libucrt:locale_update.obj
 0001:00045a08       __acrt_update_locale_info_explicit 0000000180046a08 f   libucrt:locale_update.obj
 0001:00045a40       __acrt_update_multibyte_info 0000000180046a40 f   libucrt:locale_update.obj
 0001:00045a74       __acrt_update_multibyte_info_explicit 0000000180046a74 f   libucrt:locale_update.obj
 0001:00045aac       _free_base                 0000000180046aac f   libucrt:free_base.obj
 0001:00045ae8       _malloc_base               0000000180046ae8 f   libucrt:malloc_base.obj
 0001:00045b48       __acrt_MultiByteToWideChar 0000000180046b48 f   libucrt:multibytetowidechar.obj
 0001:00045ba4       __acrt_WideCharToMultiByte 0000000180046ba4 f   libucrt:widechartomultibyte.obj
 0001:00045c54       _d_int                     0000000180046c54 f   libucrt:_test.obj
 0001:00045d6c       _dtest                     0000000180046d6c f   libucrt:_test.obj
 0001:00045dd0       _calloc_base               0000000180046dd0 f   libucrt:calloc_base.obj
 0001:000460b8       __acrt_AppPolicyGetProcessTerminationMethodInternal 00000001800470b8 f   libucrt:winapi_thunks.obj
 0001:00046110       __acrt_AppPolicyGetShowDeveloperDiagnosticInternal 0000000180047110 f   libucrt:winapi_thunks.obj
 0001:00046168       __acrt_AppPolicyGetWindowingModelInternal 0000000180047168 f   libucrt:winapi_thunks.obj
 0001:000461c0       __acrt_AreFileApisANSI     00000001800471c0 f   libucrt:winapi_thunks.obj
 0001:00046204       __acrt_CompareStringEx     0000000180047204 f   libucrt:winapi_thunks.obj
 0001:000462f0       __acrt_EnumSystemLocalesEx 00000001800472f0 f   libucrt:winapi_thunks.obj
 0001:00046390       __acrt_FlsAlloc            0000000180047390 f   libucrt:winapi_thunks.obj
 0001:00046398       __acrt_FlsFree             0000000180047398 f   libucrt:winapi_thunks.obj
 0001:000463a0       __acrt_FlsGetValue         00000001800473a0 f   libucrt:winapi_thunks.obj
 0001:000463a8       __acrt_FlsSetValue         00000001800473a8 f   libucrt:winapi_thunks.obj
 0001:000463b0       __acrt_GetDateFormatEx     00000001800473b0 f   libucrt:winapi_thunks.obj
 0001:00046470       __acrt_GetLocaleInfoEx     0000000180047470 f   libucrt:winapi_thunks.obj
 0001:00046500       __acrt_GetTimeFormatEx     0000000180047500 f   libucrt:winapi_thunks.obj
 0001:000465b4       __acrt_GetUserDefaultLocaleName 00000001800475b4 f   libucrt:winapi_thunks.obj
 0001:00046620       __acrt_InitializeCriticalSectionEx 0000000180047620 f   libucrt:winapi_thunks.obj
 0001:00046690       __acrt_IsValidLocaleName   0000000180047690 f   libucrt:winapi_thunks.obj
 0001:000466f4       __acrt_LCIDToLocaleName    00000001800476f4 f   libucrt:winapi_thunks.obj
 0001:00046778       __acrt_LCMapStringEx       0000000180047778 f   libucrt:winapi_thunks.obj
 0001:00046864       __acrt_LocaleNameToLCID    0000000180047864 f   libucrt:winapi_thunks.obj
 0001:000468c4       __acrt_MessageBoxW         00000001800478c4 f   libucrt:winapi_thunks.obj
 0001:00046940       __acrt_can_show_message_box 0000000180047940 f   libucrt:winapi_thunks.obj
 0001:000469b0       __acrt_can_use_vista_locale_apis 00000001800479b0 f   libucrt:winapi_thunks.obj
 0001:000469e0       __acrt_eagerly_load_locale_apis 00000001800479e0 f   libucrt:winapi_thunks.obj
 0001:00046b3c       __acrt_get_parent_window   0000000180047b3c f   libucrt:winapi_thunks.obj
 0001:00046bc8       __acrt_initialize_winapi_thunks 0000000180047bc8 f   libucrt:winapi_thunks.obj
 0001:00046bfc       __acrt_is_interactive      0000000180047bfc f   libucrt:winapi_thunks.obj
 0001:00046cdc       __acrt_uninitialize_winapi_thunks 0000000180047cdc f   libucrt:winapi_thunks.obj
 0001:00046d20       _fcloseall                 0000000180047d20 f   libucrt:closeall.obj
 0001:00046dd4       __acrt_stdio_free_buffer_nolock 0000000180047dd4 f   libucrt:_freebuf.obj
 0001:0004700c       __acrt_initialize_lowio    000000018004800c f   libucrt:ioinit.obj
 0001:00047048       __acrt_uninitialize_lowio  0000000180048048 f   libucrt:ioinit.obj
 0001:00047bb8       __acrt_fp_format           0000000180048bb8 f   libucrt:cvt.obj
 0001:00047ea0       _wctomb_internal           0000000180048ea0 f   libucrt:wctomb.obj
 0001:00048050       _mbtowc_internal           0000000180049050 f   libucrt:mbtowc.obj
 0001:000481c8       _get_printf_count_output   00000001800491c8 f   libucrt:printf_count_output.obj
 0001:000481e0       _fputwc_nolock_internal    00000001800491e0 f   libucrt:fputwc.obj
 0001:0004836c       _fputc_nolock_internal     000000018004936c f   libucrt:fputc.obj
 0001:00048384       __acrt_should_use_temporary_buffer 0000000180049384 f   libucrt:_sftbuf.obj
 0001:000483cc       __acrt_stdio_begin_temporary_buffering_nolock 00000001800493cc f   libucrt:_sftbuf.obj
 0001:00048494       __acrt_stdio_end_temporary_buffering_nolock 0000000180049494 f   libucrt:_sftbuf.obj
 0001:000488c8       _lseek_internal            00000001800498c8 f   libucrt:lseek.obj
 0001:000488d0       _lseeki64                  00000001800498d0 f   libucrt:lseek.obj
 0001:0004896c       _lseeki64_internal         000000018004996c f   libucrt:lseek.obj
 0001:00048974       _lseeki64_nolock           0000000180049974 f   libucrt:lseek.obj
 0001:00048a10       _lseeki64_nolock_internal  0000000180049a10 f   libucrt:lseek.obj
 0001:00048ec4       _read                      0000000180049ec4 f   libucrt:read.obj
 0001:00048fe0       _read_nolock               0000000180049fe0 f   libucrt:read.obj
 0001:0004942c       ?__acrt_stdio_allocate_stream@@YA?AV__crt_stdio_stream@@XZ 000000018004a42c f   libucrt:stream.obj
 0001:00049484       ?__acrt_stdio_free_stream@@YAXV__crt_stdio_stream@@@Z 000000018004a484 f   libucrt:stream.obj
 0001:0004958c       ??$__acrt_stdio_parse_mode@D@@YA?AU__acrt_stdio_stream_mode@@QEBD@Z 000000018004a58c f i libucrt:openfile.obj
 0001:00049850       _openfile                  000000018004a850 f   libucrt:openfile.obj
 0001:00049964       _close_internal            000000018004a964 f   libucrt:close.obj
 0001:00049a28       _close_nolock              000000018004aa28 f   libucrt:close.obj
 0001:00049ac0       _close_nolock_internal     000000018004aac0 f   libucrt:close.obj
 0001:00049b90       __acrt_stdio_refill_and_read_narrow_nolock 000000018004ab90 f   libucrt:_filbuf.obj
 0001:00049cfc       _getdrive                  000000018004acfc f   libucrt:drive.obj
 0001:00049df4       wcspbrk                    000000018004adf4 f   libucrt:wcspbrk.obj
 0001:00049e28       __ascii_wcsicmp            000000018004ae28 f   libucrt:wcsicmp.obj
 0001:00049e68       _wcsicmp                   000000018004ae68 f   libucrt:wcsicmp.obj
 0001:00049eb0       _wcsicmp_l                 000000018004aeb0 f   libucrt:wcsicmp.obj
 0001:00049fd8       __acrt_lowio_create_handle_array 000000018004afd8 f   libucrt:osfinfo.obj
 0001:0004a080       __acrt_lowio_destroy_handle_array 000000018004b080 f   libucrt:osfinfo.obj
 0001:0004a0d0       __acrt_lowio_ensure_fh_exists 000000018004b0d0 f   libucrt:osfinfo.obj
 0001:0004a178       __acrt_lowio_lock_fh       000000018004b178 f   libucrt:osfinfo.obj
 0001:0004a1a0       __acrt_lowio_set_os_handle 000000018004b1a0 f   libucrt:osfinfo.obj
 0001:0004a260       __acrt_lowio_unlock_fh     000000018004b260 f   libucrt:osfinfo.obj
 0001:0004a288       _alloc_osfhnd              000000018004b288 f   libucrt:osfinfo.obj
 0001:0004a3c8       _free_osfhnd               000000018004b3c8 f   libucrt:osfinfo.obj
 0001:0004a484       _get_osfhandle             000000018004b484 f   libucrt:osfinfo.obj
 0001:0004a728       __loctotime64_t            000000018004b728 f   libucrt:loctotime.obj
 0001:0004aa50       mbstowcs_s                 000000018004ba50 f   libucrt:mbstowcs.obj
 0001:0004af58       _wcstombs_s_l              000000018004bf58 f   libucrt:wcstombs.obj
 0001:0004b010       _isctype_l                 000000018004c010 f   libucrt:isctype.obj
 0001:0004b29c       __acrt_GetLocaleInfoA      000000018004c29c f   libucrt:getlocaleinfoa.obj
 0001:0004b464       __acrt_GetStringTypeA      000000018004c464 f   libucrt:getstringtypea.obj
 0001:0004b600       _dclass                    000000018004c600 f   libucrt:nan.obj
 0001:0004b61c       _raise_exc                 000000018004c61c f   libucrt:fpexcept.obj
 0001:0004b644       _raise_exc_ex              000000018004c644 f   libucrt:fpexcept.obj
 0001:0004b954       _raise_excf                000000018004c954 f   libucrt:fpexcept.obj
 0001:0004b980       _set_errno_from_matherr    000000018004c980 f   libucrt:fpexcept.obj
 0001:0004b9b0       _clrfp                     000000018004c9b0 f   libucrt:fpctrl.obj
 0001:0004b9d0       _ctrlfp                    000000018004c9d0 f   libucrt:fpctrl.obj
 0001:0004ba4c       _set_statfp                000000018004ca4c f   libucrt:fpctrl.obj
 0001:0004ba6c       _statfp                    000000018004ca6c f   libucrt:fpctrl.obj
 0001:0004ba80       _realloc_base              000000018004ca80 f   libucrt:realloc_base.obj
 0001:0004bafc       iswctype                   000000018004cafc f   libucrt:iswctype.obj
 0001:0004bb68       fegetround                 000000018004cb68 f   libucrt:fegetround.obj
 0001:0004bb80       __acrt_initialize_fma3     000000018004cb80 f   libucrt:fma3_available.obj
 0001:0004bbf0       _pow_special               000000018004cbf0 f   libucrt:pow_special.obj
 0001:0004bd14       _powf_special              000000018004cd14 f   libucrt:pow_special.obj
 0001:0004be60       __acrt_initialize_timeset  000000018004ce60 f   libucrt:timeset.obj
 0001:0004beb0       __daylight                 000000018004ceb0 f   libucrt:timeset.obj
 0001:0004beb8       __dstbias                  000000018004ceb8 f   libucrt:timeset.obj
 0001:0004bec0       __timezone                 000000018004cec0 f   libucrt:timeset.obj
 0001:0004bec8       __tzname                   000000018004cec8 f   libucrt:timeset.obj
 0001:0004bed0       __wide_tzname              000000018004ced0 f   libucrt:timeset.obj
 0001:0004bed8       _get_daylight              000000018004ced8 f   libucrt:timeset.obj
 0001:0004bf08       _get_dstbias               000000018004cf08 f   libucrt:timeset.obj
 0001:0004bf38       _get_timezone              000000018004cf38 f   libucrt:timeset.obj
 0001:0004cacc       __tzset                    000000018004dacc f   libucrt:tzset.obj
 0001:0004cb0c       _isindst                   000000018004db0c f   libucrt:tzset.obj
 0001:0004cb3c       __acrt_get_developer_information_policy 000000018004db3c f   libucrt:win_policies.obj
 0001:0004cb90       __acrt_get_process_end_policy 000000018004db90 f   libucrt:win_policies.obj
 0001:0004cbcc       __acrt_get_windowing_model_policy 000000018004dbcc f   libucrt:win_policies.obj
 0001:0004cc4c       ??$__acrt_convert_wcs_mbs_cp@_WDV<lambda_d8593a27d1aa8c02be35c86a17d324c4>@@U__crt_win32_buffer_internal_dynamic_resizing@@@@YAHQEB_WAEAV?$__crt_win32_buffer@DU__crt_win32_buffer_internal_dynamic_resizing@@@@AEBV<lambda_d8593a27d1aa8c02be35c86a17d324c4>@@I@Z 000000018004dc4c f i libucrt:argv_wildcards.obj
 0001:0004d4f4       __acrt_expand_narrow_argv_wildcards 000000018004e4f4 f   libucrt:argv_wildcards.obj
 0001:0004dcf4       __acrt_initialize_multibyte 000000018004ecf4 f   libucrt:mbctype.obj
 0001:0004dd54       __acrt_update_thread_multibyte_data 000000018004ed54 f   libucrt:mbctype.obj
 0001:0004dd70       _setmbcp_nolock            000000018004ed70 f   libucrt:mbctype.obj
 0001:0004e0a4       _ismbblead                 000000018004f0a4 f   libucrt:ismbbyte.obj
 0001:0004e0b8       __acrt_initialize_command_line 000000018004f0b8 f   libucrt:argv_data.obj
 0001:0004e0e0       __dcrt_get_narrow_environment_from_os 000000018004f0e0 f   libucrt:get_environment_from_os.obj
 0001:0004e1f0       __dcrt_get_wide_environment_from_os 000000018004f1f0 f   libucrt:get_environment_from_os.obj
 0001:0004e6e0       __dcrt_set_variable_in_wide_environment_nolock 000000018004f6e0 f   libucrt:setenv.obj
 0001:0004e6e8       _recalloc_base             000000018004f6e8 f   libucrt:recalloc.obj
 0001:0004e780       __acrt_initialize_heap     000000018004f780 f   libucrt:heap_handle.obj
 0001:0004e79c       __acrt_uninitialize_heap   000000018004f79c f   libucrt:heap_handle.obj
 0001:0004e7a8       __acrt_execute_initializers 000000018004f7a8 f   libucrt:shared_initialization.obj
 0001:0004e83c       __acrt_execute_uninitializers 000000018004f83c f   libucrt:shared_initialization.obj
 0001:0004e884       __acrt_has_user_matherr    000000018004f884 f   libucrt:matherr.obj
 0001:0004e8a4       __acrt_initialize_user_matherr 000000018004f8a4 f   libucrt:matherr.obj
 0001:0004e8ac       __acrt_invoke_user_matherr 000000018004f8ac f   libucrt:matherr.obj
 0001:0004e8e4       __acrt_add_locale_ref      000000018004f8e4 f   libucrt:locale_refcounting.obj
 0001:0004e970       __acrt_free_locale         000000018004f970 f   libucrt:locale_refcounting.obj
 0001:0004eae8       __acrt_locale_add_lc_time_reference 000000018004fae8 f   libucrt:locale_refcounting.obj
 0001:0004eb10       __acrt_locale_free_lc_time_if_unreferenced 000000018004fb10 f   libucrt:locale_refcounting.obj
 0001:0004eb48       __acrt_locale_release_lc_time_reference 000000018004fb48 f   libucrt:locale_refcounting.obj
 0001:0004eb70       __acrt_release_locale_ref  000000018004fb70 f   libucrt:locale_refcounting.obj
 0001:0004ec18       __acrt_update_thread_locale_data 000000018004fc18 f   libucrt:locale_refcounting.obj
 0001:0004ec88       _updatetlocinfoEx_nolock   000000018004fc88 f   libucrt:locale_refcounting.obj
 0001:0004ecf0       __acrt_locale_free_monetary 000000018004fcf0 f   libucrt:initmon.obj
 0001:0004edfc       __acrt_locale_initialize_monetary 000000018004fdfc f   libucrt:initmon.obj
 0001:0004f330       __acrt_locale_free_numeric 0000000180050330 f   libucrt:initnum.obj
 0001:0004f39c       __acrt_locale_initialize_numeric 000000018005039c f   libucrt:initnum.obj
 0001:0004f9f4       __acrt_locale_free_time    00000001800509f4 f   libucrt:inittime.obj
 0001:0004fafc       __acrt_locale_initialize_time 0000000180050afc f   libucrt:inittime.obj
 0001:0004fb98       wcsncpy_s                  0000000180050b98 f   libucrt:wcsncpy_s.obj
 0001:0004fc94       wcscspn                    0000000180050c94 f   libucrt:wcscspn.obj
 0001:00050488       __acrt_get_qualified_locale 0000000180051488 f   libucrt:get_qualified_locale.obj
 0001:00050ebc       __acrt_get_qualified_locale_downlevel 0000000180051ebc f   libucrt:getqloc_downlevel.obj
 0001:000511c8       _commit                    00000001800521c8 f   libucrt:commit.obj
 0001:00051a78       _write                     0000000180052a78 f   libucrt:write.obj
 0001:00051b10       _write_internal            0000000180052b10 f   libucrt:write.obj
 0001:00051c38       _write_nolock              0000000180052c38 f   libucrt:write.obj
 0001:00051f48       _query_new_mode            0000000180052f48 f   libucrt:new_mode.obj
 0001:00051f50       __acrt_fenv_get_common_round_control 0000000180052f50 f   libucrt:_fenvutils.obj
 0001:00051f5c       __acrt_fenv_get_control    0000000180052f5c f   libucrt:_fenvutils.obj
 0001:00052040       __acrt_fenv_get_status     0000000180053040 f   libucrt:_fenvutils.obj
 0001:00052098       __acrt_fenv_set_control    0000000180053098 f   libucrt:_fenvutils.obj
 0001:000521d4       __acrt_fenv_set_status     00000001800531d4 f   libucrt:_fenvutils.obj
 0001:00052248       __acrt_DownlevelLCIDToLocaleName 0000000180053248 f   libucrt:lcidtoname_downlevel.obj
 0001:00052330       __acrt_DownlevelLocaleNameToLCID 0000000180053330 f   libucrt:lcidtoname_downlevel.obj
 0001:000523d8       __acrt_fp_strflt_to_string 00000001800533d8 f   libucrt:_fptostr.obj
 0001:0005255c       __acrt_fltout              000000018005355c f   libucrt:cfout.obj
 0001:0005379c       ?__c32rtomb_utf8@__crt_mbstring@@YA_KPEAD_UPEAU_Mbstatet@@AEAV__crt_cached_ptd_host@@@Z 000000018005479c f   libucrt:c32rtomb.obj
 0001:00053840       ?__mbrtowc_utf8@__crt_mbstring@@YA_KPEA_WPEBD_KPEAU_Mbstatet@@AEAV__crt_cached_ptd_host@@@Z 0000000180054840 f   libucrt:mbrtowc.obj
 0001:00053884       ?__mbsrtowcs_utf8@__crt_mbstring@@YA_KPEA_WPEAPEBD_KPEAU_Mbstatet@@AEAV__crt_cached_ptd_host@@@Z 0000000180054884 f   libucrt:mbrtowc.obj
 0001:00053c98       __acrt_stdio_flush_and_write_narrow_nolock 0000000180054c98 f   libucrt:_flsbuf.obj
 0001:00053d5c       __acrt_stdio_flush_and_write_wide_nolock 0000000180054d5c f   libucrt:_flsbuf.obj
 0001:00053e20       _isatty                    0000000180054e20 f   libucrt:isatty.obj
 0001:00053e80       __ascii_wcsnicmp           0000000180054e80 f   libucrt:wcsnicmp.obj
 0001:00053ecc       _wcsnicmp                  0000000180054ecc f   libucrt:wcsnicmp.obj
 0001:00053f14       _wcsnicmp_l                0000000180054f14 f   libucrt:wcsnicmp.obj
 0001:00054064       __ascii_strnicmp           0000000180055064 f   libucrt:strnicmp.obj
 0001:000540b0       _strnicmp                  00000001800550b0 f   libucrt:strnicmp.obj
 0001:00054100       _strnicmp_l                0000000180055100 f   libucrt:strnicmp.obj
 0001:000547bc       _sopen_nolock              00000001800557bc f   libucrt:open.obj
 0001:000548d8       _sopen_s                   00000001800558d8 f   libucrt:open.obj
 0001:0005490c       _wsopen_nolock             000000018005590c f   libucrt:open.obj
 0001:00054cfc       __acrt_stdio_allocate_buffer_nolock 0000000180055cfc f   libucrt:_getbuf.obj
 0001:00054d68       _towlower_l                0000000180055d68 f   libucrt:towlower.obj
 0001:00054e60       ?__wcsrtombs_utf8@__crt_mbstring@@YA_KPEADPEAPEB_W_KPEAU_Mbstatet@@AEAV__crt_cached_ptd_host@@@Z 0000000180055e60 f   libucrt:wcrtomb.obj
 0001:00054fb4       strncpy_s                  0000000180055fb4 f   libucrt:strncpy_s.obj
 0001:000550c0       _get_fpsr                  00000001800560c0 f   libucrt:fpsr.obj
 0001:000550d0       _set_fpsr                  00000001800560d0 f   libucrt:fpsr.obj
 0001:000550da       _fclrf                     00000001800560da f   libucrt:fpsr.obj
 0001:000550ee       _frnd                      00000001800560ee f   libucrt:fpsr.obj
 0001:00055110       __acrt_GetStringTypeW      0000000180056110 f   libucrt:getstringtypew.obj
 0001:0005523c       _handle_error              000000018005623c f   libucrt:libm_error.obj
 0001:00055364       _handle_errorf             0000000180056364 f   libucrt:libm_error.obj
 0001:00055498       _handle_nan                0000000180056498 f   libucrt:libm_error.obj
 0001:000554b4       _handle_nanf               00000001800564b4 f   libucrt:libm_error.obj
 0001:000554c4       wcstol                     00000001800564c4 f   libucrt:strtox.obj
 0001:00055708       _wgetenv_s                 0000000180056708 f   libucrt:getenv.obj
 0001:00055710       qsort                      0000000180056710 f   libucrt:qsort.obj
 0001:00055bc0       strpbrk                    0000000180056bc0 f   libucrt:strpbrk.obj
 0001:00055f88       _mbsdec                    0000000180056f88 f   libucrt:mbsdec.obj
 0001:00055f90       _mbsdec_l                  0000000180056f90 f   libucrt:mbsdec.obj
 0001:0005603c       _wcsnicoll                 000000018005703c f   libucrt:wcsnicol.obj
 0001:0005608c       _wcsnicoll_l               000000018005708c f   libucrt:wcsnicol.obj
 0001:0005617c       _msize_base                000000018005717c f   libucrt:msize.obj
 0001:000561b8       wcscmp                     00000001800571b8 f   libucrt:wcscmp.obj
 0001:000561f0       _putwch_nolock             00000001800571f0 f   libucrt:putwch.obj
 0001:0005622c       _controlfp_s               000000018005722c f   libucrt:contrlfp.obj
 0001:00056290       fegetenv                   0000000180057290 f   libucrt:fegetenv.obj
 0001:000562b0       fesetenv                   00000001800572b0 f   libucrt:fesetenv.obj
 0001:000562fc       feholdexcept               00000001800572fc f   libucrt:feholdexcept.obj
 0001:0005634c       ceil                       000000018005734c f   libucrt:ceil.obj
 0001:00056410       log10                      0000000180057410 f   libucrt:log10.obj
 0001:000569bc       ?reset_and_return@__crt_mbstring@@YA_K_KPEAU_Mbstatet@@@Z 00000001800579bc f   libucrt:common_utf8.obj
 0001:000569c4       ?return_illegal_sequence@__crt_mbstring@@YA_KPEAU_Mbstatet@@AEAV__crt_cached_ptd_host@@@Z 00000001800579c4 f   libucrt:common_utf8.obj
 0001:000569d8       ?__mbrtoc32_utf8@__crt_mbstring@@YA_KPEA_UPEBD_KPEAU_Mbstatet@@AEAV__crt_cached_ptd_host@@@Z 00000001800579d8 f   libucrt:mbrtoc32.obj
 0001:00056bb4       _get_fmode                 0000000180057bb4 f   libucrt:setmode.obj
 0001:00056be4       _setmode_nolock            0000000180057be4 f   libucrt:setmode.obj
 0001:00056cc4       _chsize_nolock             0000000180057cc4 f   libucrt:chsize.obj
 0001:00056d5c       _chsize_nolock_internal    0000000180057d5c f   libucrt:chsize.obj
 0001:00056ef0       __acrt_LCMapStringW        0000000180057ef0 f   libucrt:lcmapstringw.obj
 0001:00056f78       ?__c16rtomb_utf8@__crt_mbstring@@YA_KPEAD_SPEAU_Mbstatet@@AEAV__crt_cached_ptd_host@@@Z 0000000180057f78 f   libucrt:c16rtomb.obj
 0001:0005701c       __acrt_CompareStringW      000000018005801c f   libucrt:comparestringw.obj
 0001:000570dc       __dcrt_lowio_ensure_console_output_initialized 00000001800580dc f   libucrt:initcon.obj
 0001:00057130       __dcrt_terminate_console_output 0000000180058130 f   libucrt:initcon.obj
 0001:0005714c       __dcrt_write_console       000000018005814c f   libucrt:initcon.obj
 0001:0005720c       _clearfp                   000000018005820c f   libucrt:ieee.obj
 0001:0005727c       _control87                 000000018005827c f   libucrt:ieee.obj
 0001:00057550       _log10_special             0000000180058550 f   libucrt:log_special.obj
 0001:00057608       __acrt_initialize_fmode    0000000180058608 f   libucrt:txtmode.obj
 0001:00057621       RtlUnwind                  0000000180058621 f   kernel32:KERNEL32.dll
 0001:00057628       ?DloadAcquireSectionWriteAccess@@YAXXZ 0000000180058628 f i DelayImp:delayhlp.obj
 0001:000576d4       ?DloadGetSRWLockFunctionPointers@@YAEXZ 00000001800586d4 f i DelayImp:delayhlp.obj
 0001:00057770       ?DloadMakePermanentImageCommit@@YAXPEAX_K@Z 0000000180058770 f i DelayImp:delayhlp.obj
 0001:00057808       ?DloadObtainSection@@YAPEAXPEAK0@Z 0000000180058808 f i DelayImp:delayhlp.obj
 0001:000578a4       ?DloadProtectSection@@YAXKPEAK@Z 00000001800588a4 f i DelayImp:delayhlp.obj
 0001:00057934       ?DloadReleaseSectionWriteAccess@@YAXXZ 0000000180058934 f i DelayImp:delayhlp.obj
 0001:000579c8       __delayLoadHelper2         00000001800589c8 f   DelayImp:delayhlp.obj
 0001:00057ca0       _FindPESection             0000000180058ca0 f   LIBCMT:pesect.obj
 0001:00057cf0       _IsNonwritableInCurrentImage 0000000180058cf0 f   LIBCMT:pesect.obj
 0001:00057d40       _ValidateImageBase         0000000180058d40 f   LIBCMT:pesect.obj
 0001:00057d70       __GSHandlerCheck_SEH       0000000180058d70 f   LIBCMT:gshandlerseh.obj
 0001:00057df8       __GSHandlerCheck_EH        0000000180058df8 f   LIBCMT:gshandlereh.obj
 0001:00057e78       __C_specific_handler_noexcept 0000000180058e78 f   libvcruntime:chandler_noexcept.obj
 0001:00057ec4       wcsrchr                    0000000180058ec4 f   libvcruntime:wcsrchr.obj
 0001:00057f74       strrchr                    0000000180058f74 f   libvcruntime:strrchr.obj
 0001:000580a0       wcschr                     00000001800590a0 f   libvcruntime:wcschr.obj
 0001:00058120       acos                       0000000180059120 f   libucrt:acos.obj
 0001:000583c0       acosf                      00000001800593c0 f   libucrt:acosf.obj
 0001:000585ec       ceilf                      00000001800595ec f   libucrt:ceilf.obj
 0001:00058674       floor                      0000000180059674 f   libucrt:floor.obj
 0001:00058730       fmod                       0000000180059730 f   libucrt:fmod.obj
 0001:00058a04       fmodf                      0000000180059a04 f   libucrt:fmodf.obj
 0001:00058c48       sqrt                       0000000180059c48 f   libucrt:sqrt.obj
 0001:00058d14       sqrtf                      0000000180059d14 f   libucrt:sqrtf.obj
 0001:00058dd0       strcmp                     0000000180059dd0 f   libucrt:strcmp.obj
 0001:00058e40       tan                        0000000180059e40 f   libucrt:tan.obj
 0001:0005967c       _tan_special               000000018005a67c f   libucrt:sincos_special.obj
 0001:00059690       __remainder_piby2_fma3     000000018005a690 f   libucrt:remainder_piby2_forfma3.obj
 0001:00059880       __remainder_piby2_fma3_bdl 000000018005a880 f   libucrt:remainder_piby2_forfma3.obj
 0001:00059900       __remainder_piby2_forAsm   000000018005a900 f   libucrt:remainder_piby2_forasm.obj
 0001:00059b10       __remainder_piby2_cw_forAsm 000000018005ab10 f   libucrt:remainder_piby2_forasm.obj
 0001:00059c60       _guard_dispatch_icall_nop  000000018005ac60 f   LIBCMT:guard_dispatch.obj
 0001:00059c80       _guard_xfg_dispatch_icall_nop 000000018005ac80 f   LIBCMT:guard_xfg_dispatch.obj
 0001:00059ca0       __longjmp_internal         000000018005aca0 f   libvcruntime:longjmp.obj
 0001:00059da0       _setjmp                    000000018005ada0 f   libvcruntime:setjmp.obj
 0001:00059da0       __intrinsic_setjmp         000000018005ada0 f   libvcruntime:setjmp.obj
 0001:00059e40       setjmp                     000000018005ae40 f   libvcruntime:setjmp.obj
 0002:00000000       __imp_cairo_append_path    000000018005e000     libcairo-2:D__a__temp_msys64_mingw64_lib_libcairo_2_lib_s01102.o
 0002:00000008       __imp_cairo_arc            000000018005e008     libcairo-2:D__a__temp_msys64_mingw64_lib_libcairo_2_lib_s01103.o
 0002:00000010       __imp_cairo_arc_negative   000000018005e010     libcairo-2:D__a__temp_msys64_mingw64_lib_libcairo_2_lib_s01104.o
 0002:00000018       __imp_cairo_clip           000000018005e018     libcairo-2:D__a__temp_msys64_mingw64_lib_libcairo_2_lib_s01105.o
 0002:00000020       __imp_cairo_clip_preserve  000000018005e020     libcairo-2:D__a__temp_msys64_mingw64_lib_libcairo_2_lib_s01107.o
 0002:00000028       __imp_cairo_close_path     000000018005e028     libcairo-2:D__a__temp_msys64_mingw64_lib_libcairo_2_lib_s01108.o
 0002:00000030       __imp_cairo_copy_path      000000018005e030     libcairo-2:D__a__temp_msys64_mingw64_lib_libcairo_2_lib_s01111.o
 0002:00000038       __imp_cairo_copy_path_flat 000000018005e038     libcairo-2:D__a__temp_msys64_mingw64_lib_libcairo_2_lib_s01112.o
 0002:00000040       __imp_cairo_create         000000018005e040     libcairo-2:D__a__temp_msys64_mingw64_lib_libcairo_2_lib_s01113.o
 0002:00000048       __imp_cairo_curve_to       000000018005e048     libcairo-2:D__a__temp_msys64_mingw64_lib_libcairo_2_lib_s01114.o
 0002:00000050       __imp_cairo_destroy        000000018005e050     libcairo-2:D__a__temp_msys64_mingw64_lib_libcairo_2_lib_s01116.o
 0002:00000058       __imp_cairo_fill           000000018005e058     libcairo-2:D__a__temp_msys64_mingw64_lib_libcairo_2_lib_s01139.o
 0002:00000060       __imp_cairo_fill_extents   000000018005e060     libcairo-2:D__a__temp_msys64_mingw64_lib_libcairo_2_lib_s01140.o
 0002:00000068       __imp_cairo_fill_preserve  000000018005e068     libcairo-2:D__a__temp_msys64_mingw64_lib_libcairo_2_lib_s01141.o
 0002:00000070       __imp_cairo_format_stride_for_width 000000018005e070     libcairo-2:D__a__temp_msys64_mingw64_lib_libcairo_2_lib_s01167.o
 0002:00000078       __imp_cairo_get_antialias  000000018005e078     libcairo-2:D__a__temp_msys64_mingw64_lib_libcairo_2_lib_s01176.o
 0002:00000080       __imp_cairo_get_current_point 000000018005e080     libcairo-2:D__a__temp_msys64_mingw64_lib_libcairo_2_lib_s01177.o
 0002:00000088       __imp_cairo_get_dash       000000018005e088     libcairo-2:D__a__temp_msys64_mingw64_lib_libcairo_2_lib_s01178.o
 0002:00000090       __imp_cairo_get_dash_count 000000018005e090     libcairo-2:D__a__temp_msys64_mingw64_lib_libcairo_2_lib_s01179.o
 0002:00000098       __imp_cairo_get_line_cap   000000018005e098     libcairo-2:D__a__temp_msys64_mingw64_lib_libcairo_2_lib_s01186.o
 0002:000000a0       __imp_cairo_get_line_join  000000018005e0a0     libcairo-2:D__a__temp_msys64_mingw64_lib_libcairo_2_lib_s01187.o
 0002:000000a8       __imp_cairo_get_line_width 000000018005e0a8     libcairo-2:D__a__temp_msys64_mingw64_lib_libcairo_2_lib_s01188.o
 0002:000000b0       __imp_cairo_get_matrix     000000018005e0b0     libcairo-2:D__a__temp_msys64_mingw64_lib_libcairo_2_lib_s01189.o
 0002:000000b8       __imp_cairo_get_miter_limit 000000018005e0b8     libcairo-2:D__a__temp_msys64_mingw64_lib_libcairo_2_lib_s01190.o
 0002:000000c0       __imp_cairo_get_operator   000000018005e0c0     libcairo-2:D__a__temp_msys64_mingw64_lib_libcairo_2_lib_s01191.o
 0002:000000c8       __imp_cairo_get_source     000000018005e0c8     libcairo-2:D__a__temp_msys64_mingw64_lib_libcairo_2_lib_s01194.o
 0002:000000d0       __imp_cairo_identity_matrix 000000018005e0d0     libcairo-2:D__a__temp_msys64_mingw64_lib_libcairo_2_lib_s01203.o
 0002:000000d8       __imp_cairo_image_surface_create 000000018005e0d8     libcairo-2:D__a__temp_msys64_mingw64_lib_libcairo_2_lib_s01204.o
 0002:000000e0       __imp_cairo_image_surface_create_for_data 000000018005e0e0     libcairo-2:D__a__temp_msys64_mingw64_lib_libcairo_2_lib_s01205.o
 0002:000000e8       __imp_cairo_image_surface_create_from_png 000000018005e0e8     libcairo-2:D__a__temp_msys64_mingw64_lib_libcairo_2_lib_s01206.o
 0002:000000f0       __imp_cairo_image_surface_create_from_png_stream 000000018005e0f0     libcairo-2:D__a__temp_msys64_mingw64_lib_libcairo_2_lib_s01207.o
 0002:000000f8       __imp_cairo_image_surface_get_data 000000018005e0f8     libcairo-2:D__a__temp_msys64_mingw64_lib_libcairo_2_lib_s01208.o
 0002:00000100       __imp_cairo_image_surface_get_format 000000018005e100     libcairo-2:D__a__temp_msys64_mingw64_lib_libcairo_2_lib_s01209.o
 0002:00000108       __imp_cairo_image_surface_get_height 000000018005e108     libcairo-2:D__a__temp_msys64_mingw64_lib_libcairo_2_lib_s01210.o
 0002:00000110       __imp_cairo_image_surface_get_stride 000000018005e110     libcairo-2:D__a__temp_msys64_mingw64_lib_libcairo_2_lib_s01211.o
 0002:00000118       __imp_cairo_image_surface_get_width 000000018005e118     libcairo-2:D__a__temp_msys64_mingw64_lib_libcairo_2_lib_s01212.o
 0002:00000120       __imp_cairo_in_fill        000000018005e120     libcairo-2:D__a__temp_msys64_mingw64_lib_libcairo_2_lib_s01214.o
 0002:00000128       __imp_cairo_in_stroke      000000018005e128     libcairo-2:D__a__temp_msys64_mingw64_lib_libcairo_2_lib_s01215.o
 0002:00000130       __imp_cairo_line_to        000000018005e130     libcairo-2:D__a__temp_msys64_mingw64_lib_libcairo_2_lib_s01216.o
 0002:00000138       __imp_cairo_mask_surface   000000018005e138     libcairo-2:D__a__temp_msys64_mingw64_lib_libcairo_2_lib_s01218.o
 0002:00000140       __imp_cairo_matrix_init    000000018005e140     libcairo-2:D__a__temp_msys64_mingw64_lib_libcairo_2_lib_s01219.o
 0002:00000148       __imp_cairo_matrix_invert  000000018005e148     libcairo-2:D__a__temp_msys64_mingw64_lib_libcairo_2_lib_s01224.o
 0002:00000150       __imp_cairo_move_to        000000018005e150     libcairo-2:D__a__temp_msys64_mingw64_lib_libcairo_2_lib_s01243.o
 0002:00000158       __imp_cairo_new_path       000000018005e158     libcairo-2:D__a__temp_msys64_mingw64_lib_libcairo_2_lib_s01244.o
 0002:00000160       __imp_cairo_paint          000000018005e160     libcairo-2:D__a__temp_msys64_mingw64_lib_libcairo_2_lib_s01246.o
 0002:00000168       __imp_cairo_paint_with_alpha 000000018005e168     libcairo-2:D__a__temp_msys64_mingw64_lib_libcairo_2_lib_s01247.o
 0002:00000170       __imp_cairo_path_destroy   000000018005e170     libcairo-2:D__a__temp_msys64_mingw64_lib_libcairo_2_lib_s01248.o
 0002:00000178       __imp_cairo_path_extents   000000018005e178     libcairo-2:D__a__temp_msys64_mingw64_lib_libcairo_2_lib_s01249.o
 0002:00000180       __imp_cairo_pattern_add_color_stop_rgba 000000018005e180     libcairo-2:D__a__temp_msys64_mingw64_lib_libcairo_2_lib_s01251.o
 0002:00000188       __imp_cairo_pattern_create_for_surface 000000018005e188     libcairo-2:D__a__temp_msys64_mingw64_lib_libcairo_2_lib_s01252.o
 0002:00000190       __imp_cairo_pattern_create_linear 000000018005e190     libcairo-2:D__a__temp_msys64_mingw64_lib_libcairo_2_lib_s01253.o
 0002:00000198       __imp_cairo_pattern_create_radial 000000018005e198     libcairo-2:D__a__temp_msys64_mingw64_lib_libcairo_2_lib_s01255.o
 0002:000001a0       __imp_cairo_pattern_destroy 000000018005e1a0     libcairo-2:D__a__temp_msys64_mingw64_lib_libcairo_2_lib_s01259.o
 0002:000001a8       __imp_cairo_pattern_get_color_stop_count 000000018005e1a8     libcairo-2:D__a__temp_msys64_mingw64_lib_libcairo_2_lib_s01260.o
 0002:000001b0       __imp_cairo_pattern_get_color_stop_rgba 000000018005e1b0     libcairo-2:D__a__temp_msys64_mingw64_lib_libcairo_2_lib_s01261.o
 0002:000001b8       __imp_cairo_pattern_get_filter 000000018005e1b8     libcairo-2:D__a__temp_msys64_mingw64_lib_libcairo_2_lib_s01263.o
 0002:000001c0       __imp_cairo_pattern_get_linear_points 000000018005e1c0     libcairo-2:D__a__temp_msys64_mingw64_lib_libcairo_2_lib_s01264.o
 0002:000001c8       __imp_cairo_pattern_get_radial_circles 000000018005e1c8     libcairo-2:D__a__temp_msys64_mingw64_lib_libcairo_2_lib_s01266.o
 0002:000001d0       __imp_cairo_pattern_get_surface 000000018005e1d0     libcairo-2:D__a__temp_msys64_mingw64_lib_libcairo_2_lib_s01269.o
 0002:000001d8       __imp_cairo_pattern_get_type 000000018005e1d8     libcairo-2:D__a__temp_msys64_mingw64_lib_libcairo_2_lib_s01270.o
 0002:000001e0       __imp_cairo_pattern_get_user_data 000000018005e1e0     libcairo-2:D__a__temp_msys64_mingw64_lib_libcairo_2_lib_s01271.o
 0002:000001e8       __imp_cairo_pattern_set_extend 000000018005e1e8     libcairo-2:D__a__temp_msys64_mingw64_lib_libcairo_2_lib_s01273.o
 0002:000001f0       __imp_cairo_pattern_set_filter 000000018005e1f0     libcairo-2:D__a__temp_msys64_mingw64_lib_libcairo_2_lib_s01274.o
 0002:000001f8       __imp_cairo_pattern_set_matrix 000000018005e1f8     libcairo-2:D__a__temp_msys64_mingw64_lib_libcairo_2_lib_s01275.o
 0002:00000200       __imp_cairo_pattern_set_user_data 000000018005e200     libcairo-2:D__a__temp_msys64_mingw64_lib_libcairo_2_lib_s01276.o
 0002:00000208       __imp_cairo_pdf_surface_create_for_stream 000000018005e208     libcairo-2:D__a__temp_msys64_mingw64_lib_libcairo_2_lib_s01281.o
 0002:00000210       __imp_cairo_pdf_surface_set_metadata 000000018005e210     libcairo-2:D__a__temp_msys64_mingw64_lib_libcairo_2_lib_s01284.o
 0002:00000218       __imp_cairo_pdf_surface_set_size 000000018005e218     libcairo-2:D__a__temp_msys64_mingw64_lib_libcairo_2_lib_s01286.o
 0002:00000220       __imp_cairo_pop_group_to_source 000000018005e220     libcairo-2:D__a__temp_msys64_mingw64_lib_libcairo_2_lib_s01290.o
 0002:00000228       __imp_cairo_push_group     000000018005e228     libcairo-2:D__a__temp_msys64_mingw64_lib_libcairo_2_lib_s01302.o
 0002:00000230       __imp_cairo_rectangle      000000018005e230     libcairo-2:D__a__temp_msys64_mingw64_lib_libcairo_2_lib_s01317.o
 0002:00000238       __imp_cairo_restore        000000018005e238     libcairo-2:D__a__temp_msys64_mingw64_lib_libcairo_2_lib_s01347.o
 0002:00000240       __imp_cairo_rotate         000000018005e240     libcairo-2:D__a__temp_msys64_mingw64_lib_libcairo_2_lib_s01348.o
 0002:00000248       __imp_cairo_save           000000018005e248     libcairo-2:D__a__temp_msys64_mingw64_lib_libcairo_2_lib_s01349.o
 0002:00000250       __imp_cairo_scale          000000018005e250     libcairo-2:D__a__temp_msys64_mingw64_lib_libcairo_2_lib_s01350.o
 0002:00000258       __imp_cairo_set_antialias  000000018005e258     libcairo-2:D__a__temp_msys64_mingw64_lib_libcairo_2_lib_s01377.o
 0002:00000260       __imp_cairo_set_dash       000000018005e260     libcairo-2:D__a__temp_msys64_mingw64_lib_libcairo_2_lib_s01378.o
 0002:00000268       __imp_cairo_set_fill_rule  000000018005e268     libcairo-2:D__a__temp_msys64_mingw64_lib_libcairo_2_lib_s01379.o
 0002:00000270       __imp_cairo_set_line_cap   000000018005e270     libcairo-2:D__a__temp_msys64_mingw64_lib_libcairo_2_lib_s01385.o
 0002:00000278       __imp_cairo_set_line_join  000000018005e278     libcairo-2:D__a__temp_msys64_mingw64_lib_libcairo_2_lib_s01386.o
 0002:00000280       __imp_cairo_set_line_width 000000018005e280     libcairo-2:D__a__temp_msys64_mingw64_lib_libcairo_2_lib_s01387.o
 0002:00000288       __imp_cairo_set_matrix     000000018005e288     libcairo-2:D__a__temp_msys64_mingw64_lib_libcairo_2_lib_s01388.o
 0002:00000290       __imp_cairo_set_miter_limit 000000018005e290     libcairo-2:D__a__temp_msys64_mingw64_lib_libcairo_2_lib_s01389.o
 0002:00000298       __imp_cairo_set_operator   000000018005e298     libcairo-2:D__a__temp_msys64_mingw64_lib_libcairo_2_lib_s01390.o
 0002:000002a0       __imp_cairo_set_source     000000018005e2a0     libcairo-2:D__a__temp_msys64_mingw64_lib_libcairo_2_lib_s01392.o
 0002:000002a8       __imp_cairo_set_source_rgba 000000018005e2a8     libcairo-2:D__a__temp_msys64_mingw64_lib_libcairo_2_lib_s01394.o
 0002:000002b0       __imp_cairo_set_source_surface 000000018005e2b0     libcairo-2:D__a__temp_msys64_mingw64_lib_libcairo_2_lib_s01395.o
 0002:000002b8       __imp_cairo_show_page      000000018005e2b8     libcairo-2:D__a__temp_msys64_mingw64_lib_libcairo_2_lib_s01399.o
 0002:000002c0       __imp_cairo_status         000000018005e2c0     libcairo-2:D__a__temp_msys64_mingw64_lib_libcairo_2_lib_s01402.o
 0002:000002c8       __imp_cairo_status_to_string 000000018005e2c8     libcairo-2:D__a__temp_msys64_mingw64_lib_libcairo_2_lib_s01403.o
 0002:000002d0       __imp_cairo_stroke         000000018005e2d0     libcairo-2:D__a__temp_msys64_mingw64_lib_libcairo_2_lib_s01404.o
 0002:000002d8       __imp_cairo_stroke_extents 000000018005e2d8     libcairo-2:D__a__temp_msys64_mingw64_lib_libcairo_2_lib_s01405.o
 0002:000002e0       __imp_cairo_stroke_preserve 000000018005e2e0     libcairo-2:D__a__temp_msys64_mingw64_lib_libcairo_2_lib_s01406.o
 0002:000002e8       __imp_cairo_surface_destroy 000000018005e2e8     libcairo-2:D__a__temp_msys64_mingw64_lib_libcairo_2_lib_s01412.o
 0002:000002f0       __imp_cairo_surface_finish 000000018005e2f0     libcairo-2:D__a__temp_msys64_mingw64_lib_libcairo_2_lib_s01413.o
 0002:000002f8       __imp_cairo_surface_flush  000000018005e2f8     libcairo-2:D__a__temp_msys64_mingw64_lib_libcairo_2_lib_s01414.o
 0002:00000300       __imp_cairo_surface_mark_dirty 000000018005e300     libcairo-2:D__a__temp_msys64_mingw64_lib_libcairo_2_lib_s01427.o
 0002:00000308       __imp_cairo_surface_mark_dirty_rectangle 000000018005e308     libcairo-2:D__a__temp_msys64_mingw64_lib_libcairo_2_lib_s01428.o
 0002:00000310       __imp_cairo_surface_set_mime_data 000000018005e310     libcairo-2:D__a__temp_msys64_mingw64_lib_libcairo_2_lib_s01442.o
 0002:00000318       __imp_cairo_surface_status 000000018005e318     libcairo-2:D__a__temp_msys64_mingw64_lib_libcairo_2_lib_s01445.o
 0002:00000320       __imp_cairo_svg_surface_create_for_stream 000000018005e320     libcairo-2:D__a__temp_msys64_mingw64_lib_libcairo_2_lib_s01452.o
 0002:00000328       __imp_cairo_transform      000000018005e328     libcairo-2:D__a__temp_msys64_mingw64_lib_libcairo_2_lib_s01471.o
 0002:00000330       __imp_cairo_translate      000000018005e330     libcairo-2:D__a__temp_msys64_mingw64_lib_libcairo_2_lib_s01472.o
 0002:00000338       __imp_cairo_user_to_device_distance 000000018005e338     libcairo-2:D__a__temp_msys64_mingw64_lib_libcairo_2_lib_s01485.o
 0002:00000340       __imp_cairo_version_string 000000018005e340     libcairo-2:D__a__temp_msys64_mingw64_lib_libcairo_2_lib_s01487.o
 0002:00000350       __imp_FT_Done_Face         000000018005e350     libfreetype-6:D__a__temp_msys64_mingw64_lib_libfreetype_6_lib_s00034.o
 0002:00000358       __imp_FT_Done_FreeType     000000018005e358     libfreetype-6:D__a__temp_msys64_mingw64_lib_libfreetype_6_lib_s00035.o
 0002:00000360       __imp_FT_Get_Sfnt_Name     000000018005e360     libfreetype-6:D__a__temp_msys64_mingw64_lib_libfreetype_6_lib_s00090.o
 0002:00000368       __imp_FT_Get_Sfnt_Name_Count 000000018005e368     libfreetype-6:D__a__temp_msys64_mingw64_lib_libfreetype_6_lib_s00091.o
 0002:00000370       __imp_FT_Get_Sfnt_Table    000000018005e370     libfreetype-6:D__a__temp_msys64_mingw64_lib_libfreetype_6_lib_s00092.o
 0002:00000378       __imp_FT_Init_FreeType     000000018005e378     libfreetype-6:D__a__temp_msys64_mingw64_lib_libfreetype_6_lib_s00113.o
 0002:00000380       __imp_FT_Open_Face         000000018005e380     libfreetype-6:D__a__temp_msys64_mingw64_lib_libfreetype_6_lib_s00139.o
 0002:00000390       __imp_DGifCloseFile        000000018005e390     libgif-7:D__a__temp_msys64_mingw64_lib_libgif_7_lib_s00000.o
 0002:00000398       __imp_DGifOpen             000000018005e398     libgif-7:D__a__temp_msys64_mingw64_lib_libgif_7_lib_s00014.o
 0002:000003a0       __imp_DGifSlurp            000000018005e3a0     libgif-7:D__a__temp_msys64_mingw64_lib_libgif_7_lib_s00018.o
 0002:000003b0       __imp_g_iconv              000000018005e3b0     libglib-2.0-0:D__a__temp_msys64_mingw64_lib_libglib_2_0_0_lib_s00537.o
 0002:000003b8       __imp_g_iconv_open         000000018005e3b8     libglib-2.0-0:D__a__temp_msys64_mingw64_lib_libglib_2_0_0_lib_s00539.o
 0002:000003c8       __imp_g_object_unref       000000018005e3c8     libgobject-2.0-0:D__a__temp_msys64_mingw64_lib_libgobject_2_0_0_lib_s00172.o
 0002:000003d8       __imp_jpeg_CreateCompress  000000018005e3d8     libjpeg-8:D__a__temp_msys64_mingw64_lib_libjpeg_8_lib_s00029.o
 0002:000003e0       __imp_jpeg_CreateDecompress 000000018005e3e0     libjpeg-8:D__a__temp_msys64_mingw64_lib_libjpeg_8_lib_s00030.o
 0002:000003e8       __imp_jpeg_abort_decompress 000000018005e3e8     libjpeg-8:D__a__temp_msys64_mingw64_lib_libjpeg_8_lib_s00033.o
 0002:000003f0       __imp_jpeg_destroy_compress 000000018005e3f0     libjpeg-8:D__a__temp_msys64_mingw64_lib_libjpeg_8_lib_s00046.o
 0002:000003f8       __imp_jpeg_destroy_decompress 000000018005e3f8     libjpeg-8:D__a__temp_msys64_mingw64_lib_libjpeg_8_lib_s00047.o
 0002:00000400       __imp_jpeg_finish_compress 000000018005e400     libjpeg-8:D__a__temp_msys64_mingw64_lib_libjpeg_8_lib_s00052.o
 0002:00000408       __imp_jpeg_finish_decompress 000000018005e408     libjpeg-8:D__a__temp_msys64_mingw64_lib_libjpeg_8_lib_s00053.o
 0002:00000410       __imp_jpeg_mem_src         000000018005e410     libjpeg-8:D__a__temp_msys64_mingw64_lib_libjpeg_8_lib_s00074.o
 0002:00000418       __imp_jpeg_read_header     000000018005e418     libjpeg-8:D__a__temp_msys64_mingw64_lib_libjpeg_8_lib_s00080.o
 0002:00000420       __imp_jpeg_read_scanlines  000000018005e420     libjpeg-8:D__a__temp_msys64_mingw64_lib_libjpeg_8_lib_s00083.o
 0002:00000428       __imp_jpeg_set_defaults    000000018005e428     libjpeg-8:D__a__temp_msys64_mingw64_lib_libjpeg_8_lib_s00087.o
 0002:00000430       __imp_jpeg_set_quality     000000018005e430     libjpeg-8:D__a__temp_msys64_mingw64_lib_libjpeg_8_lib_s00090.o
 0002:00000438       __imp_jpeg_simple_progression 000000018005e438     libjpeg-8:D__a__temp_msys64_mingw64_lib_libjpeg_8_lib_s00091.o
 0002:00000440       __imp_jpeg_start_compress  000000018005e440     libjpeg-8:D__a__temp_msys64_mingw64_lib_libjpeg_8_lib_s00093.o
 0002:00000448       __imp_jpeg_start_decompress 000000018005e448     libjpeg-8:D__a__temp_msys64_mingw64_lib_libjpeg_8_lib_s00094.o
 0002:00000450       __imp_jpeg_std_error       000000018005e450     libjpeg-8:D__a__temp_msys64_mingw64_lib_libjpeg_8_lib_s00096.o
 0002:00000458       __imp_jpeg_stdio_src       000000018005e458     libjpeg-8:D__a__temp_msys64_mingw64_lib_libjpeg_8_lib_s00098.o
 0002:00000460       __imp_jpeg_write_scanlines 000000018005e460     libjpeg-8:D__a__temp_msys64_mingw64_lib_libjpeg_8_lib_s00106.o
 0002:00000470       __imp_pango_context_get_language 000000018005e470     libpango-1.0-0:D__a__temp_msys64_mingw64_lib_libpango_1_0_0_lib_s00100.o
 0002:00000478       __imp_pango_context_get_metrics 000000018005e478     libpango-1.0-0:D__a__temp_msys64_mingw64_lib_libpango_1_0_0_lib_s00102.o
 0002:00000480       __imp_pango_font_description_better_match 000000018005e480     libpango-1.0-0:D__a__temp_msys64_mingw64_lib_libpango_1_0_0_lib_s00141.o
 0002:00000488       __imp_pango_font_description_copy 000000018005e488     libpango-1.0-0:D__a__temp_msys64_mingw64_lib_libpango_1_0_0_lib_s00142.o
 0002:00000490       __imp_pango_font_description_equal 000000018005e490     libpango-1.0-0:D__a__temp_msys64_mingw64_lib_libpango_1_0_0_lib_s00144.o
 0002:00000498       __imp_pango_font_description_free 000000018005e498     libpango-1.0-0:D__a__temp_msys64_mingw64_lib_libpango_1_0_0_lib_s00145.o
 0002:000004a0       __imp_pango_font_description_from_string 000000018005e4a0     libpango-1.0-0:D__a__temp_msys64_mingw64_lib_libpango_1_0_0_lib_s00146.o
 0002:000004a8       __imp_pango_font_description_get_family 000000018005e4a8     libpango-1.0-0:D__a__temp_msys64_mingw64_lib_libpango_1_0_0_lib_s00147.o
 0002:000004b0       __imp_pango_font_description_new 000000018005e4b0     libpango-1.0-0:D__a__temp_msys64_mingw64_lib_libpango_1_0_0_lib_s00161.o
 0002:000004b8       __imp_pango_font_description_set_absolute_size 000000018005e4b8     libpango-1.0-0:D__a__temp_msys64_mingw64_lib_libpango_1_0_0_lib_s00162.o
 0002:000004c0       __imp_pango_font_description_set_family 000000018005e4c0     libpango-1.0-0:D__a__temp_msys64_mingw64_lib_libpango_1_0_0_lib_s00163.o
 0002:000004c8       __imp_pango_font_description_set_family_static 000000018005e4c8     libpango-1.0-0:D__a__temp_msys64_mingw64_lib_libpango_1_0_0_lib_s00164.o
 0002:000004d0       __imp_pango_font_description_set_stretch 000000018005e4d0     libpango-1.0-0:D__a__temp_msys64_mingw64_lib_libpango_1_0_0_lib_s00167.o
 0002:000004d8       __imp_pango_font_description_set_style 000000018005e4d8     libpango-1.0-0:D__a__temp_msys64_mingw64_lib_libpango_1_0_0_lib_s00168.o
 0002:000004e0       __imp_pango_font_description_set_weight 000000018005e4e0     libpango-1.0-0:D__a__temp_msys64_mingw64_lib_libpango_1_0_0_lib_s00172.o
 0002:000004e8       __imp_pango_font_metrics_get_ascent 000000018005e4e8     libpango-1.0-0:D__a__temp_msys64_mingw64_lib_libpango_1_0_0_lib_s00213.o
 0002:000004f0       __imp_pango_font_metrics_unref 000000018005e4f0     libpango-1.0-0:D__a__temp_msys64_mingw64_lib_libpango_1_0_0_lib_s00223.o
 0002:000004f8       __imp_pango_layout_get_baseline 000000018005e4f8     libpango-1.0-0:D__a__temp_msys64_mingw64_lib_libpango_1_0_0_lib_s00297.o
 0002:00000500       __imp_pango_layout_get_context 000000018005e500     libpango-1.0-0:D__a__temp_msys64_mingw64_lib_libpango_1_0_0_lib_s00300.o
 0002:00000508       __imp_pango_layout_get_extents 000000018005e508     libpango-1.0-0:D__a__temp_msys64_mingw64_lib_libpango_1_0_0_lib_s00304.o
 0002:00000510       __imp_pango_layout_get_font_description 000000018005e510     libpango-1.0-0:D__a__temp_msys64_mingw64_lib_libpango_1_0_0_lib_s00305.o
 0002:00000518       __imp_pango_layout_get_line 000000018005e518     libpango-1.0-0:D__a__temp_msys64_mingw64_lib_libpango_1_0_0_lib_s00311.o
 0002:00000520       __imp_pango_layout_get_pixel_extents 000000018005e520     libpango-1.0-0:D__a__temp_msys64_mingw64_lib_libpango_1_0_0_lib_s00319.o
 0002:00000528       __imp_pango_layout_line_get_extents 000000018005e528     libpango-1.0-0:D__a__temp_msys64_mingw64_lib_libpango_1_0_0_lib_s00357.o
 0002:00000530       __imp_pango_layout_set_font_description 000000018005e530     libpango-1.0-0:D__a__temp_msys64_mingw64_lib_libpango_1_0_0_lib_s00378.o
 0002:00000538       __imp_pango_layout_set_text 000000018005e538     libpango-1.0-0:D__a__temp_msys64_mingw64_lib_libpango_1_0_0_lib_s00389.o
 0002:00000548       __imp_pango_cairo_create_layout 000000018005e548     libpangocairo-1.0-0:D__a__temp_msys64_mingw64_lib_libpangocairo_1_0_0_lib_s00007.o
 0002:00000550       __imp_pango_cairo_font_map_set_default 000000018005e550     libpangocairo-1.0-0:D__a__temp_msys64_mingw64_lib_libpangocairo_1_0_0_lib_s00020.o
 0002:00000558       __imp_pango_cairo_layout_path 000000018005e558     libpangocairo-1.0-0:D__a__temp_msys64_mingw64_lib_libpangocairo_1_0_0_lib_s00024.o
 0002:00000560       __imp_pango_cairo_show_layout 000000018005e560     libpangocairo-1.0-0:D__a__temp_msys64_mingw64_lib_libpangocairo_1_0_0_lib_s00029.o
 0002:00000568       __imp_pango_cairo_update_layout 000000018005e568     libpangocairo-1.0-0:D__a__temp_msys64_mingw64_lib_libpangocairo_1_0_0_lib_s00032.o
 0002:00000578       __imp_png_create_info_struct 000000018005e578     libpng16-16:D__a__temp_msys64_mingw64_lib_libpng16_16_lib_s00011.o
 0002:00000580       __imp_png_create_write_struct_2 000000018005e580     libpng16-16:D__a__temp_msys64_mingw64_lib_libpng16_16_lib_s00015.o
 0002:00000588       __imp_png_data_freer       000000018005e588     libpng16-16:D__a__temp_msys64_mingw64_lib_libpng16_16_lib_s00016.o
 0002:00000590       __imp_png_destroy_write_struct 000000018005e590     libpng16-16:D__a__temp_msys64_mingw64_lib_libpng16_16_lib_s00019.o
 0002:00000598       __imp_png_error            000000018005e598     libpng16-16:D__a__temp_msys64_mingw64_lib_libpng16_16_lib_s00020.o
 0002:000005a0       __imp_png_get_error_ptr    000000018005e5a0     libpng16-16:D__a__temp_msys64_mingw64_lib_libpng16_16_lib_s00044.o
 0002:000005a8       __imp_png_get_io_ptr       000000018005e5a8     libpng16-16:D__a__temp_msys64_mingw64_lib_libpng16_16_lib_s00058.o
 0002:000005b0       __imp_png_malloc           000000018005e5b0     libpng16-16:D__a__temp_msys64_mingw64_lib_libpng16_16_lib_s00129.o
 0002:000005b8       __imp_png_set_IHDR         000000018005e5b8     libpng16-16:D__a__temp_msys64_mingw64_lib_libpng16_16_lib_s00149.o
 0002:000005c0       __imp_png_set_PLTE         000000018005e5c0     libpng16-16:D__a__temp_msys64_mingw64_lib_libpng16_16_lib_s00150.o
 0002:000005c8       __imp_png_set_bKGD         000000018005e5c8     libpng16-16:D__a__temp_msys64_mingw64_lib_libpng16_16_lib_s00155.o
 0002:000005d0       __imp_png_set_compression_level 000000018005e5d0     libpng16-16:D__a__temp_msys64_mingw64_lib_libpng16_16_lib_s00168.o
 0002:000005d8       __imp_png_set_filler       000000018005e5d8     libpng16-16:D__a__temp_msys64_mingw64_lib_libpng16_16_lib_s00180.o
 0002:000005e0       __imp_png_set_filter       000000018005e5e0     libpng16-16:D__a__temp_msys64_mingw64_lib_libpng16_16_lib_s00181.o
 0002:000005e8       __imp_png_set_longjmp_fn   000000018005e5e8     libpng16-16:D__a__temp_msys64_mingw64_lib_libpng16_16_lib_s00198.o
 0002:000005f0       __imp_png_set_pHYs         000000018005e5f0     libpng16-16:D__a__temp_msys64_mingw64_lib_libpng16_16_lib_s00204.o
 0002:000005f8       __imp_png_set_packing      000000018005e5f8     libpng16-16:D__a__temp_msys64_mingw64_lib_libpng16_16_lib_s00205.o
 0002:00000600       __imp_png_set_packswap     000000018005e600     libpng16-16:D__a__temp_msys64_mingw64_lib_libpng16_16_lib_s00206.o
 0002:00000608       __imp_png_set_tRNS         000000018005e608     libpng16-16:D__a__temp_msys64_mingw64_lib_libpng16_16_lib_s00233.o
 0002:00000610       __imp_png_set_write_fn     000000018005e610     libpng16-16:D__a__temp_msys64_mingw64_lib_libpng16_16_lib_s00245.o
 0002:00000618       __imp_png_set_write_user_transform_fn 000000018005e618     libpng16-16:D__a__temp_msys64_mingw64_lib_libpng16_16_lib_s00247.o
 0002:00000620       __imp_png_write_end        000000018005e620     libpng16-16:D__a__temp_msys64_mingw64_lib_libpng16_16_lib_s00255.o
 0002:00000628       __imp_png_write_image      000000018005e628     libpng16-16:D__a__temp_msys64_mingw64_lib_libpng16_16_lib_s00259.o
 0002:00000630       __imp_png_write_info       000000018005e630     libpng16-16:D__a__temp_msys64_mingw64_lib_libpng16_16_lib_s00260.o
 0002:00000640       __imp_rsvg_handle_get_dimensions 000000018005e640     librsvg-2-2:D__a__temp_msys64_mingw64_lib_librsvg_2_2_lib_s00008.o
 0002:00000648       __imp_rsvg_handle_new_from_data 000000018005e648     librsvg-2-2:D__a__temp_msys64_mingw64_lib_librsvg_2_2_lib_s00023.o
 0002:00000650       __imp_rsvg_handle_render_cairo 000000018005e650     librsvg-2-2:D__a__temp_msys64_mingw64_lib_librsvg_2_2_lib_s00029.o
 0002:00000660       __imp_AddFontResourceExW   000000018005e660     gdi32:GDI32.dll
 0002:00000668       __imp_RemoveFontResourceExW 000000018005e668     gdi32:GDI32.dll
 0002:00000670       \177GDI32_NULL_THUNK_DATA  000000018005e670     gdi32:GDI32.dll
 0002:00000678       __imp_GetFileSizeEx        000000018005e678     kernel32:KERNEL32.dll
 0002:00000680       __imp_CreateFileW          000000018005e680     kernel32:KERNEL32.dll
 0002:00000688       __imp_VirtualQuery         000000018005e688     kernel32:KERNEL32.dll
 0002:00000690       __imp_CloseHandle          000000018005e690     kernel32:KERNEL32.dll
 0002:00000698       __imp_GetModuleHandleA     000000018005e698     kernel32:KERNEL32.dll
 0002:000006a0       __imp_MultiByteToWideChar  000000018005e6a0     kernel32:KERNEL32.dll
 0002:000006a8       __imp_ReadFile             000000018005e6a8     kernel32:KERNEL32.dll
 0002:000006b0       __imp_EnterCriticalSection 000000018005e6b0     kernel32:KERNEL32.dll
 0002:000006b8       __imp_LeaveCriticalSection 000000018005e6b8     kernel32:KERNEL32.dll
 0002:000006c0       __imp_InitializeCriticalSectionEx 000000018005e6c0     kernel32:KERNEL32.dll
 0002:000006c8       __imp_DeleteCriticalSection 000000018005e6c8     kernel32:KERNEL32.dll
 0002:000006d0       __imp_EncodePointer        000000018005e6d0     kernel32:KERNEL32.dll
 0002:000006d8       __imp_DecodePointer        000000018005e6d8     kernel32:KERNEL32.dll
 0002:000006e0       __imp_WideCharToMultiByte  000000018005e6e0     kernel32:KERNEL32.dll
 0002:000006e8       __imp_LCMapStringEx        000000018005e6e8     kernel32:KERNEL32.dll
 0002:000006f0       __imp_GetStringTypeW       000000018005e6f0     kernel32:KERNEL32.dll
 0002:000006f8       __imp_GetCPInfo            000000018005e6f8     kernel32:KERNEL32.dll
 0002:00000700       __imp_RtlCaptureContext    000000018005e700     kernel32:KERNEL32.dll
 0002:00000708       __imp_RtlLookupFunctionEntry 000000018005e708     kernel32:KERNEL32.dll
 0002:00000710       __imp_RtlVirtualUnwind     000000018005e710     kernel32:KERNEL32.dll
 0002:00000718       __imp_UnhandledExceptionFilter 000000018005e718     kernel32:KERNEL32.dll
 0002:00000720       __imp_SetUnhandledExceptionFilter 000000018005e720     kernel32:KERNEL32.dll
 0002:00000728       __imp_GetCurrentProcess    000000018005e728     kernel32:KERNEL32.dll
 0002:00000730       __imp_TerminateProcess     000000018005e730     kernel32:KERNEL32.dll
 0002:00000738       __imp_IsProcessorFeaturePresent 000000018005e738     kernel32:KERNEL32.dll
 0002:00000740       __imp_IsDebuggerPresent    000000018005e740     kernel32:KERNEL32.dll
 0002:00000748       __imp_GetStartupInfoW      000000018005e748     kernel32:KERNEL32.dll
 0002:00000750       __imp_GetModuleHandleW     000000018005e750     kernel32:KERNEL32.dll
 0002:00000758       __imp_QueryPerformanceCounter 000000018005e758     kernel32:KERNEL32.dll
 0002:00000760       __imp_GetCurrentProcessId  000000018005e760     kernel32:KERNEL32.dll
 0002:00000768       __imp_GetCurrentThreadId   000000018005e768     kernel32:KERNEL32.dll
 0002:00000770       __imp_GetSystemTimeAsFileTime 000000018005e770     kernel32:KERNEL32.dll
 0002:00000778       __imp_InitializeSListHead  000000018005e778     kernel32:KERNEL32.dll
 0002:00000780       __imp_RtlUnwindEx          000000018005e780     kernel32:KERNEL32.dll
 0002:00000788       __imp_RtlPcToFileHeader    000000018005e788     kernel32:KERNEL32.dll
 0002:00000790       __imp_RaiseException       000000018005e790     kernel32:KERNEL32.dll
 0002:00000798       __imp_InterlockedFlushSList 000000018005e798     kernel32:KERNEL32.dll
 0002:000007a0       __imp_GetLastError         000000018005e7a0     kernel32:KERNEL32.dll
 0002:000007a8       __imp_SetLastError         000000018005e7a8     kernel32:KERNEL32.dll
 0002:000007b0       __imp_RtlUnwind            000000018005e7b0     kernel32:KERNEL32.dll
 0002:000007b8       __imp_InitializeCriticalSectionAndSpinCount 000000018005e7b8     kernel32:KERNEL32.dll
 0002:000007c0       __imp_TlsAlloc             000000018005e7c0     kernel32:KERNEL32.dll
 0002:000007c8       __imp_TlsGetValue          000000018005e7c8     kernel32:KERNEL32.dll
 0002:000007d0       __imp_TlsSetValue          000000018005e7d0     kernel32:KERNEL32.dll
 0002:000007d8       __imp_TlsFree              000000018005e7d8     kernel32:KERNEL32.dll
 0002:000007e0       __imp_FreeLibrary          000000018005e7e0     kernel32:KERNEL32.dll
 0002:000007e8       __imp_GetProcAddress       000000018005e7e8     kernel32:KERNEL32.dll
 0002:000007f0       __imp_LoadLibraryExW       000000018005e7f0     kernel32:KERNEL32.dll
 0002:000007f8       __imp_GetStdHandle         000000018005e7f8     kernel32:KERNEL32.dll
 0002:00000800       __imp_GetFileType          000000018005e800     kernel32:KERNEL32.dll
 0002:00000808       __imp_GetModuleFileNameW   000000018005e808     kernel32:KERNEL32.dll
 0002:00000810       __imp_GetModuleHandleExW   000000018005e810     kernel32:KERNEL32.dll
 0002:00000818       __imp_WriteConsoleW        000000018005e818     kernel32:KERNEL32.dll
 0002:00000820       __imp_GetFileInformationByHandle 000000018005e820     kernel32:KERNEL32.dll
 0002:00000828       __imp_PeekNamedPipe        000000018005e828     kernel32:KERNEL32.dll
 0002:00000830       __imp_SystemTimeToTzSpecificLocalTime 000000018005e830     kernel32:KERNEL32.dll
 0002:00000838       __imp_FileTimeToSystemTime 000000018005e838     kernel32:KERNEL32.dll
 0002:00000840       __imp_ExitProcess          000000018005e840     kernel32:KERNEL32.dll
 0002:00000848       __imp_WriteFile            000000018005e848     kernel32:KERNEL32.dll
 0002:00000850       __imp_OutputDebugStringW   000000018005e850     kernel32:KERNEL32.dll
 0002:00000858       __imp_HeapFree             000000018005e858     kernel32:KERNEL32.dll
 0002:00000860       __imp_HeapAlloc            000000018005e860     kernel32:KERNEL32.dll
 0002:00000868       __imp_FlsAlloc             000000018005e868     kernel32:KERNEL32.dll
 0002:00000870       __imp_FlsGetValue          000000018005e870     kernel32:KERNEL32.dll
 0002:00000878       __imp_FlsSetValue          000000018005e878     kernel32:KERNEL32.dll
 0002:00000880       __imp_FlsFree              000000018005e880     kernel32:KERNEL32.dll
 0002:00000888       __imp_GetDateFormatW       000000018005e888     kernel32:KERNEL32.dll
 0002:00000890       __imp_GetTimeFormatW       000000018005e890     kernel32:KERNEL32.dll
 0002:00000898       __imp_CompareStringW       000000018005e898     kernel32:KERNEL32.dll
 0002:000008a0       __imp_LCMapStringW         000000018005e8a0     kernel32:KERNEL32.dll
 0002:000008a8       __imp_GetLocaleInfoW       000000018005e8a8     kernel32:KERNEL32.dll
 0002:000008b0       __imp_IsValidLocale        000000018005e8b0     kernel32:KERNEL32.dll
 0002:000008b8       __imp_GetUserDefaultLCID   000000018005e8b8     kernel32:KERNEL32.dll
 0002:000008c0       __imp_EnumSystemLocalesW   000000018005e8c0     kernel32:KERNEL32.dll
 0002:000008c8       __imp_SetFilePointerEx     000000018005e8c8     kernel32:KERNEL32.dll
 0002:000008d0       __imp_GetConsoleMode       000000018005e8d0     kernel32:KERNEL32.dll
 0002:000008d8       __imp_ReadConsoleW         000000018005e8d8     kernel32:KERNEL32.dll
 0002:000008e0       __imp_GetCurrentDirectoryW 000000018005e8e0     kernel32:KERNEL32.dll
 0002:000008e8       __imp_SetStdHandle         000000018005e8e8     kernel32:KERNEL32.dll
 0002:000008f0       __imp_HeapReAlloc          000000018005e8f0     kernel32:KERNEL32.dll
 0002:000008f8       __imp_GetTimeZoneInformation 000000018005e8f8     kernel32:KERNEL32.dll
 0002:00000900       __imp_FindClose            000000018005e900     kernel32:KERNEL32.dll
 0002:00000908       __imp_FindFirstFileExW     000000018005e908     kernel32:KERNEL32.dll
 0002:00000910       __imp_FindNextFileW        000000018005e910     kernel32:KERNEL32.dll
 0002:00000918       __imp_IsValidCodePage      000000018005e918     kernel32:KERNEL32.dll
 0002:00000920       __imp_GetACP               000000018005e920     kernel32:KERNEL32.dll
 0002:00000928       __imp_GetOEMCP             000000018005e928     kernel32:KERNEL32.dll
 0002:00000930       __imp_GetCommandLineA      000000018005e930     kernel32:KERNEL32.dll
 0002:00000938       __imp_GetCommandLineW      000000018005e938     kernel32:KERNEL32.dll
 0002:00000940       __imp_GetEnvironmentStringsW 000000018005e940     kernel32:KERNEL32.dll
 0002:00000948       __imp_FreeEnvironmentStringsW 000000018005e948     kernel32:KERNEL32.dll
 0002:00000950       __imp_SetEnvironmentVariableW 000000018005e950     kernel32:KERNEL32.dll
 0002:00000958       __imp_GetProcessHeap       000000018005e958     kernel32:KERNEL32.dll
 0002:00000960       __imp_FlushFileBuffers     000000018005e960     kernel32:KERNEL32.dll
 0002:00000968       __imp_GetConsoleOutputCP   000000018005e968     kernel32:KERNEL32.dll
 0002:00000970       __imp_HeapSize             000000018005e970     kernel32:KERNEL32.dll
 0002:00000978       __imp_SetEndOfFile         000000018005e978     kernel32:KERNEL32.dll
 0002:00000980       __imp_GetSystemInfo        000000018005e980     kernel32:KERNEL32.dll
 0002:00000988       __imp_VirtualProtect       000000018005e988     kernel32:KERNEL32.dll
 0002:00000990       __imp_LoadLibraryExA       000000018005e990     kernel32:KERNEL32.dll
 0002:00000998       \177KERNEL32_NULL_THUNK_DATA 000000018005e998     kernel32:KERNEL32.dll
 0002:000009a0       __guard_check_icall_fptr   000000018005e9a0     LIBCMT:guard_support.obj
 0002:000009a8       __guard_xfg_check_icall_fptr 000000018005e9a8     LIBCMT:guard_support.obj
 0002:000009b0       __guard_dispatch_icall_fptr 000000018005e9b0     LIBCMT:guard_support.obj
 0002:000009b8       __guard_xfg_dispatch_icall_fptr 000000018005e9b8     LIBCMT:guard_support.obj
 0002:000009c0       __guard_xfg_table_dispatch_icall_fptr 000000018005e9c0     LIBCMT:guard_support.obj
 0002:000009c8       __xc_a                     000000018005e9c8     LIBCMT:initializers.obj
 0002:000009f8       _register_canvas_          000000018005e9f8     init.obj
 0002:00000a70       __xc_z                     000000018005ea70     LIBCMT:initializers.obj
 0002:00000a78       __xi_a                     000000018005ea78     LIBCMT:initializers.obj
 0002:00000a80       __acrt_stdio_initializer   000000018005ea80     libucrt:stdio_initializer.obj
 0002:00000a88       __acrt_tran_fma3_initializer 000000018005ea88     libucrt:fma3_initializer.obj
 0002:00000a90       __acrt_timeset_initializer 000000018005ea90     libucrt:timeset_initializer.obj
 0002:00000a98       __acrt_multibyte_initializer 000000018005ea98     libucrt:multibyte_initializer.obj
 0002:00000aa0       __acrt_fmode_initializer   000000018005eaa0     libucrt:fmode_initializer.obj
 0002:00000aa8       __xi_z                     000000018005eaa8     LIBCMT:initializers.obj
 0002:00000ab0       __xp_a                     000000018005eab0     LIBCMT:initializers.obj
 0002:00000ab8       __acrt_locale_terminator   000000018005eab8     libucrt:locale_initializer.obj
 0002:00000ac0       __dcrt_console_output_terminator 000000018005eac0     libucrt:console_output_initializer.obj
 0002:00000ac8       __acrt_stdio_terminator    000000018005eac8     libucrt:stdio_initializer.obj
 0002:00000ad0       __xp_z                     000000018005ead0     LIBCMT:initializers.obj
 0002:00000ad8       __xt_a                     000000018005ead8     LIBCMT:initializers.obj
 0002:00000ae0       __xt_z                     000000018005eae0     LIBCMT:initializers.obj
 0002:00000af0       __sz_node_exe              000000018005eaf0     node:node.exe
 0002:00000b08       ??_7exception@std@@6B@     000000018005eb08     libcpmt:xthrow.obj
 0002:00000b18       ??_C@_0BC@EOODALEL@Unknown?5exception@ 000000018005eb18     libcpmt:xthrow.obj
 0002:00000b38       ??_7bad_alloc@std@@6B@     000000018005eb38     libcpmt:xthrow.obj
 0002:00000b48       ??_C@_0P@GHFPNOJB@bad?5allocation@ 000000018005eb48     libcpmt:xthrow.obj
 0002:00000b60       ??_7bad_function_call@std@@6B@ 000000018005eb60     libcpmt:xthrow.obj
 0002:00000b70       ??_C@_0BC@DPJNKNAF@bad?5function?5call@ 000000018005eb70     libcpmt:xthrow.obj
 0002:00000b90       ??_7logic_error@std@@6B@   000000018005eb90     libcpmt:xthrow.obj
 0002:00000ba8       ??_7length_error@std@@6B@  000000018005eba8     libcpmt:xthrow.obj
 0002:00000bc0       ??_7runtime_error@std@@6B@ 000000018005ebc0     libcpmt:xthrow.obj
 0002:00000bd0       ?nothrow@std@@3Unothrow_t@1@B 000000018005ebd0     libcpmt:nothrow.obj
 0002:00000be0       ??_7_Facet_base@std@@6B@   000000018005ebe0     libcpmt:locale0.obj
 0002:00000c00       ??_7_Locimp@locale@std@@6B@ 000000018005ec00     libcpmt:locale0.obj
 0002:00000c18       ??_C@_01NBENCBCI@?$CK@     000000018005ec18     libcpmt:locale0.obj
 0002:00000c1c       ??_C@_01GFHCPBMG@C@        000000018005ec1c     libcpmt:locale0.obj
 0002:00000c20       ?_BADOFF@std@@3_JB         000000018005ec20     libcpmt:ios.obj
 0002:00001390       ??_C@_0BN@LKKBCCDB@address?5family?5not?5supported@ 000000018005f390     libcpmt:syserror.obj
 0002:000013b0       ??_C@_0P@LDMLAFHI@address?5in?5use@ 000000018005f3b0     libcpmt:syserror.obj
 0002:000013c0       ??_C@_0BG@DHPCNBJB@address?5not?5available@ 000000018005f3c0     libcpmt:syserror.obj
 0002:000013d8       ??_C@_0BC@DFIBIBIL@already?5connected@ 000000018005f3d8     libcpmt:syserror.obj
 0002:000013f0       ??_C@_0BH@CAKOHOMI@argument?5list?5too?5long@ 000000018005f3f0     libcpmt:syserror.obj
 0002:00001408       ??_C@_0BH@CGIMPKIM@argument?5out?5of?5domain@ 000000018005f408     libcpmt:syserror.obj
 0002:00001420       ??_C@_0M@KGHGGJGL@bad?5address@ 000000018005f420     libcpmt:syserror.obj
 0002:00001430       ??_C@_0BE@MPJPGCEO@bad?5file?5descriptor@ 000000018005f430     libcpmt:syserror.obj
 0002:00001448       ??_C@_0M@PMMIEFCP@bad?5message@ 000000018005f448     libcpmt:syserror.obj
 0002:00001458       ??_C@_0M@KPHOFDBE@broken?5pipe@ 000000018005f458     libcpmt:syserror.obj
 0002:00001468       ??_C@_0BD@MGNDDEGM@connection?5aborted@ 000000018005f468     libcpmt:syserror.obj
 0002:00001480       ??_C@_0BP@KAIHPOGN@connection?5already?5in?5progress@ 000000018005f480     libcpmt:syserror.obj
 0002:000014a0       ??_C@_0BD@PJLIIJEL@connection?5refused@ 000000018005f4a0     libcpmt:syserror.obj
 0002:000014b8       ??_C@_0BB@IECNJNOI@connection?5reset@ 000000018005f4b8     libcpmt:syserror.obj
 0002:000014d0       ??_C@_0BC@PPHBOELF@cross?5device?5link@ 000000018005f4d0     libcpmt:syserror.obj
 0002:000014e8       ??_C@_0BN@KDMIFEIP@destination?5address?5required@ 000000018005f4e8     libcpmt:syserror.obj
 0002:00001508       ??_C@_0BI@NGCEHDD@device?5or?5resource?5busy@ 000000018005f508     libcpmt:syserror.obj
 0002:00001520       ??_C@_0BE@JIDOCPHM@directory?5not?5empty@ 000000018005f520     libcpmt:syserror.obj
 0002:00001538       ??_C@_0BI@BNCLIGPB@executable?5format?5error@ 000000018005f538     libcpmt:syserror.obj
 0002:00001550       ??_C@_0M@MIDIAGJP@file?5exists@ 000000018005f550     libcpmt:syserror.obj
 0002:00001560       ??_C@_0P@DNAJLBJK@file?5too?5large@ 000000018005f560     libcpmt:syserror.obj
 0002:00001570       ??_C@_0BC@EJHOMAAK@filename?5too?5long@ 000000018005f570     libcpmt:syserror.obj
 0002:00001588       ??_C@_0BH@KEFGLDAF@function?5not?5supported@ 000000018005f588     libcpmt:syserror.obj
 0002:000015a0       ??_C@_0BB@DHFDFGDM@host?5unreachable@ 000000018005f5a0     libcpmt:syserror.obj
 0002:000015b8       ??_C@_0BD@JPHBMONG@identifier?5removed@ 000000018005f5b8     libcpmt:syserror.obj
 0002:000015d0       ??_C@_0BG@CDNPAGJK@illegal?5byte?5sequence@ 000000018005f5d0     libcpmt:syserror.obj
 0002:000015e8       ??_C@_0CD@BNPLBMNA@inappropriate?5io?5control?5operat@ 000000018005f5e8     libcpmt:syserror.obj
 0002:00001610       ??_C@_0M@EGEKIIMP@interrupted@ 000000018005f610     libcpmt:syserror.obj
 0002:00001620       ??_C@_0BB@FCMFBGOM@invalid?5argument@ 000000018005f620     libcpmt:syserror.obj
 0002:00001638       ??_C@_0N@OHAFKDEK@invalid?5seek@ 000000018005f638     libcpmt:syserror.obj
 0002:00001648       ??_C@_08GLNPIFBN@io?5error@ 000000018005f648     libcpmt:syserror.obj
 0002:00001658       ??_C@_0P@FLLDBIDK@is?5a?5directory@ 000000018005f658     libcpmt:syserror.obj
 0002:00001668       ??_C@_0N@IFLPBIOP@message?5size@ 000000018005f668     libcpmt:syserror.obj
 0002:00001678       ??_C@_0N@KIIEAAIO@network?5down@ 000000018005f678     libcpmt:syserror.obj
 0002:00001688       ??_C@_0O@FNPDBHEE@network?5reset@ 000000018005f688     libcpmt:syserror.obj
 0002:00001698       ??_C@_0BE@IFNCKGE@network?5unreachable@ 000000018005f698     libcpmt:syserror.obj
 0002:000016b0       ??_C@_0BA@PFFCAOFK@no?5buffer?5space@ 000000018005f6b0     libcpmt:syserror.obj
 0002:000016c0       ??_C@_0BB@IEPBLJHK@no?5child?5process@ 000000018005f6c0     libcpmt:syserror.obj
 0002:000016d8       ??_C@_07PLECNNKG@no?5link@ 000000018005f6d8     libcpmt:syserror.obj
 0002:000016e0       ??_C@_0BC@NJECKMKE@no?5lock?5available@ 000000018005f6e0     libcpmt:syserror.obj
 0002:000016f8       ??_C@_0BF@PBGGPKKE@no?5message?5available@ 000000018005f6f8     libcpmt:syserror.obj
 0002:00001710       ??_C@_0L@EDOLMPAK@no?5message@ 000000018005f710     libcpmt:syserror.obj
 0002:00001720       ??_C@_0BD@EAMBFIDF@no?5protocol?5option@ 000000018005f720     libcpmt:syserror.obj
 0002:00001738       ??_C@_0BD@IJDJKDEA@no?5space?5on?5device@ 000000018005f738     libcpmt:syserror.obj
 0002:00001750       ??_C@_0BE@MKFDAFMP@no?5stream?5resources@ 000000018005f750     libcpmt:syserror.obj
 0002:00001768       ??_C@_0BK@IMCPHCBI@no?5such?5device?5or?5address@ 000000018005f768     libcpmt:syserror.obj
 0002:00001788       ??_C@_0P@FDINDDOK@no?5such?5device@ 000000018005f788     libcpmt:syserror.obj
 0002:00001798       ??_C@_0BK@NDOCBPGE@no?5such?5file?5or?5directory@ 000000018005f798     libcpmt:syserror.obj
 0002:000017b8       ??_C@_0BA@ENLPPKBN@no?5such?5process@ 000000018005f7b8     libcpmt:syserror.obj
 0002:000017c8       ??_C@_0BA@DOCPFFJG@not?5a?5directory@ 000000018005f7c8     libcpmt:syserror.obj
 0002:000017d8       ??_C@_0N@POEIPGGF@not?5a?5socket@ 000000018005f7d8     libcpmt:syserror.obj
 0002:000017e8       ??_C@_0N@LGAPMMPI@not?5a?5stream@ 000000018005f7e8     libcpmt:syserror.obj
 0002:000017f8       ??_C@_0O@GLMIBBEG@not?5connected@ 000000018005f7f8     libcpmt:syserror.obj
 0002:00001808       ??_C@_0BC@ENOOLCNF@not?5enough?5memory@ 000000018005f808     libcpmt:syserror.obj
 0002:00001820       ??_C@_0O@NHEDABJP@not?5supported@ 000000018005f820     libcpmt:syserror.obj
 0002:00001830       ??_C@_0BD@MOLBPMEA@operation?5canceled@ 000000018005f830     libcpmt:syserror.obj
 0002:00001848       ??_C@_0BG@KDKHOPCO@operation?5in?5progress@ 000000018005f848     libcpmt:syserror.obj
 0002:00001860       ??_C@_0BI@OHIEJAAB@operation?5not?5permitted@ 000000018005f860     libcpmt:syserror.obj
 0002:00001878       ??_C@_0BI@LNEGIFLN@operation?5not?5supported@ 000000018005f878     libcpmt:syserror.obj
 0002:00001890       ??_C@_0BG@OEMDKMEE@operation?5would?5block@ 000000018005f890     libcpmt:syserror.obj
 0002:000018a8       ??_C@_0L@BLPOFLNJ@owner?5dead@ 000000018005f8a8     libcpmt:syserror.obj
 0002:000018b8       ??_C@_0BC@CIJDGCDI@permission?5denied@ 000000018005f8b8     libcpmt:syserror.obj
 0002:000018d0       ??_C@_0P@FNPOCJBE@protocol?5error@ 000000018005f8d0     libcpmt:syserror.obj
 0002:000018e0       ??_C@_0BH@JPPPLHJB@protocol?5not?5supported@ 000000018005f8e0     libcpmt:syserror.obj
 0002:000018f8       ??_C@_0BG@EICBIHDP@read?5only?5file?5system@ 000000018005f8f8     libcpmt:syserror.obj
 0002:00001910       ??_C@_0BO@BJBOMOEJ@resource?5deadlock?5would?5occur@ 000000018005f910     libcpmt:syserror.obj
 0002:00001930       ??_C@_0BP@LKNGHENJ@resource?5unavailable?5try?5again@ 000000018005f930     libcpmt:syserror.obj
 0002:00001950       ??_C@_0BE@GOIPJJHG@result?5out?5of?5range@ 000000018005f950     libcpmt:syserror.obj
 0002:00001968       ??_C@_0BG@MPLKFPAE@state?5not?5recoverable@ 000000018005f968     libcpmt:syserror.obj
 0002:00001980       ??_C@_0P@DIIFGFCG@stream?5timeout@ 000000018005f980     libcpmt:syserror.obj
 0002:00001990       ??_C@_0P@IPFDMIFL@text?5file?5busy@ 000000018005f990     libcpmt:syserror.obj
 0002:000019a0       ??_C@_09KJPPMAOI@timed?5out@ 000000018005f9a0     libcpmt:syserror.obj
 0002:000019b0       ??_C@_0BO@HACHBEKI@too?5many?5files?5open?5in?5system@ 000000018005f9b0     libcpmt:syserror.obj
 0002:000019d0       ??_C@_0BE@GHAFMPAH@too?5many?5files?5open@ 000000018005f9d0     libcpmt:syserror.obj
 0002:000019e8       ??_C@_0P@HCOMKFCC@too?5many?5links@ 000000018005f9e8     libcpmt:syserror.obj
 0002:000019f8       ??_C@_0BO@EFGOJEF@too?5many?5symbolic?5link?5levels@ 000000018005f9f8     libcpmt:syserror.obj
 0002:00001a18       ??_C@_0BA@KGKGOOJA@value?5too?5large@ 000000018005fa18     libcpmt:syserror.obj
 0002:00001a28       ??_C@_0BE@MIEJDDNH@wrong?5protocol?5type@ 000000018005fa28     libcpmt:syserror.obj
 0002:00001a40       ??_C@_0O@BFJCFAAK@unknown?5error@ 000000018005fa40     libcpmt:syserror.obj
 0002:00001a58       ??_7bad_array_new_length@std@@6B@ 000000018005fa58     libcpmt:locale.obj
 0002:00001a70       ??_7?$ctype@D@std@@6B@     000000018005fa70     libcpmt:locale.obj
 0002:00001bd0       ??_C@_11LOCGONAA@@         000000018005fbd0     libcpmt:wlocale.obj
 0002:00001bd4       ??_C@_13IMODFHAA@?$AA?9@   000000018005fbd4     libcpmt:wlocale.obj
 0002:00001bd8       ??_C@_01JOAMLHOP@?9@       000000018005fbd8     libcpmt:wlocale.obj
 0002:00001c80       __xmm@ffffffffffffffffffffffffffffffff 000000018005fc80     LIBCMT:utility.obj
 0002:00001c98       ??_7type_info@@6B@         000000018005fc98     LIBCMT:std_type_info_static.obj
 0002:00001ca0       _pRawDllMain               000000018005fca0     LIBCMT:dll_dllmain.obj
 0002:00001ca0       _pDefaultRawDllMain        000000018005fca0     LIBCMT:dll_dllmain.obj
 0002:00001cb8       ?s_negLengthTab@FH4@@3QBCB 000000018005fcb8     libvcruntime:risctrnsctrl.obj
 0002:00001cc8       ?s_shiftTab@FH4@@3QBEB     000000018005fcc8     libvcruntime:risctrnsctrl.obj
 0002:00001e18       _pDestructExceptionObject  000000018005fe18     libvcruntime:ehhelpers.obj
 0002:00001e28       ??_7bad_exception@std@@6B@ 000000018005fe28     libvcruntime:frame.obj
 0002:00001e38       ??_C@_0O@DPKOEFFH@bad?5exception@ 000000018005fe38     libvcruntime:frame.obj
 0002:00002550       ??_C@_08EHJDFFNH@__based?$CI@ 0000000180060550     libvcruntime:undname.obj
 0002:00002560       ??_C@_07KOLFKCDI@__cdecl@  0000000180060560     libvcruntime:undname.obj
 0002:00002568       ??_C@_08GHMPAG@__pascal@   0000000180060568     libvcruntime:undname.obj
 0002:00002578       ??_C@_09IFJBGAPI@__stdcall@ 0000000180060578     libvcruntime:undname.obj
 0002:00002588       ??_C@_0L@NPHFGOKO@__thiscall@ 0000000180060588     libvcruntime:undname.obj
 0002:00002598       ??_C@_0L@JMKHOMEK@__fastcall@ 0000000180060598     libvcruntime:undname.obj
 0002:000025a8       ??_C@_0N@BCKKPABJ@__vectorcall@ 00000001800605a8     libvcruntime:undname.obj
 0002:000025b8       ??_C@_09HIJEGCPM@__clrcall@ 00000001800605b8     libvcruntime:undname.obj
 0002:000025c4       ??_C@_06GHPCKEAG@__eabi@   00000001800605c4     libvcruntime:undname.obj
 0002:000025d0       ??_C@_09IOPIDJLG@__swift_1@ 00000001800605d0     libvcruntime:undname.obj
 0002:000025e0       ??_C@_09KFNFGKHF@__swift_2@ 00000001800605e0     libvcruntime:undname.obj
 0002:000025f0       ??_C@_07JOMMBBKO@__ptr64@  00000001800605f0     libvcruntime:undname.obj
 0002:000025f8       ??_C@_0L@PILCLIHE@__restrict@ 00000001800605f8     libvcruntime:undname.obj
 0002:00002608       ??_C@_0M@GFIIJFMG@__unaligned@ 0000000180060608     libvcruntime:undname.obj
 0002:00002618       ??_C@_09DHDLOLLB@restrict?$CI@ 0000000180060618     libvcruntime:undname.obj
 0002:00002624       ??_C@_04NIHEBCM@?5new@     0000000180060624     libvcruntime:undname.obj
 0002:00002630       ??_C@_07FPCDHGMM@?5delete@ 0000000180060630     libvcruntime:undname.obj
 0002:00002638       ??_C@_01NEMOKFLO@?$DN@     0000000180060638     libvcruntime:undname.obj
 0002:0000263c       ??_C@_02GPIOPFAK@?$DO?$DO@ 000000018006063c     libvcruntime:undname.obj
 0002:00002640       ??_C@_02FODMEDOG@?$DM?$DM@ 0000000180060640     libvcruntime:undname.obj
 0002:00002644       ??_C@_01DCLJPIOD@?$CB@     0000000180060644     libvcruntime:undname.obj
 0002:00002648       ??_C@_02EGOFBIJA@?$DN?$DN@ 0000000180060648     libvcruntime:undname.obj
 0002:0000264c       ??_C@_02FDNJECIE@?$CB?$DN@ 000000018006064c     libvcruntime:undname.obj
 0002:00002650       ??_C@_02GPECMEKF@?$FL?$FN@ 0000000180060650     libvcruntime:undname.obj
 0002:00002658       ??_C@_08LHJFAFGD@operator@ 0000000180060658     libvcruntime:undname.obj
 0002:00002664       ??_C@_02HBOOOICD@?9?$DO@   0000000180060664     libvcruntime:undname.obj
 0002:00002668       ??_C@_02ECNGHCIF@?$CL?$CL@ 0000000180060668     libvcruntime:undname.obj
 0002:0000266c       ??_C@_02BAABKJLB@?9?9@     000000018006066c     libvcruntime:undname.obj
 0002:00002670       ??_C@_01MIFGBAGJ@?$CL@     0000000180060670     libvcruntime:undname.obj
 0002:00002674       ??_C@_01HNPIGOCE@?$CG@     0000000180060674     libvcruntime:undname.obj
 0002:00002678       ??_C@_03MNHNFDLC@?9?$DO?$CK@ 0000000180060678     libvcruntime:undname.obj
 0002:0000267c       ??_C@_01KMDKNFGN@?1@       000000018006067c     libvcruntime:undname.obj
 0002:00002680       ??_C@_01FGNFDNOH@?$CF@     0000000180060680     libvcruntime:undname.obj
 0002:00002684       ??_C@_01MNNFJEPP@?$DM@     0000000180060684     libvcruntime:undname.obj
 0002:00002688       ??_C@_02EHCHHCKH@?$DM?$DN@ 0000000180060688     libvcruntime:undname.obj
 0002:0000268c       ??_C@_01PPODPGHN@?$DO@     000000018006068c     libvcruntime:undname.obj
 0002:00002690       ??_C@_02EEKDKGMJ@?$DO?$DN@ 0000000180060690     libvcruntime:undname.obj
 0002:00002694       ??_C@_02HCKGKOFO@?$CI?$CJ@ 0000000180060694     libvcruntime:undname.obj
 0002:00002698       ??_C@_01PJKLJHI@?$HO@      0000000180060698     libvcruntime:undname.obj
 0002:0000269c       ??_C@_01JKBOJNNK@?$FO@     000000018006069c     libvcruntime:undname.obj
 0002:000026a0       ??_C@_01DNKMNLPK@?$HM@     00000001800606a0     libvcruntime:undname.obj
 0002:000026a4       ??_C@_02PPKAJPJL@?$CG?$CG@ 00000001800606a4     libvcruntime:undname.obj
 0002:000026a8       ??_C@_02NONPIBCD@?$HM?$HM@ 00000001800606a8     libvcruntime:undname.obj
 0002:000026ac       ??_C@_02FPIMKNGF@?$CK?$DN@ 00000001800606ac     libvcruntime:undname.obj
 0002:000026b0       ??_C@_02FOEOMHFC@?$CL?$DN@ 00000001800606b0     libvcruntime:undname.obj
 0002:000026b4       ??_C@_02FKMDLLOA@?9?$DN@   00000001800606b4     libvcruntime:undname.obj
 0002:000026b8       ??_C@_02FJEHGPIO@?1?$DN@   00000001800606b8     libvcruntime:undname.obj
 0002:000026bc       ??_C@_02FENAOKFI@?$CF?$DN@ 00000001800606bc     libvcruntime:undname.obj
 0002:000026c0       ??_C@_03IKFCCPFF@?$DO?$DO?$DN@ 00000001800606c0     libvcruntime:undname.obj
 0002:000026c4       ??_C@_03CDNPDDLA@?$DM?$DM?$DN@ 00000001800606c4     libvcruntime:undname.obj
 0002:000026c8       ??_C@_02FGJGFEAB@?$CG?$DN@ 00000001800606c8     libvcruntime:undname.obj
 0002:000026cc       ??_C@_02DHLNPPGH@?$HM?$DN@ 00000001800606cc     libvcruntime:undname.obj
 0002:000026d0       ??_C@_02MHEGNOJ@?$FO?$DN@  00000001800606d0     libvcruntime:undname.obj
 0002:000026d8       ??_C@_09IFPLHPGF@?$GAvftable?8@ 00000001800606d8     libvcruntime:undname.obj
 0002:000026e8       ??_C@_09BLBHBJP@?$GAvbtable?8@ 00000001800606e8     libvcruntime:undname.obj
 0002:000026f8       ??_C@_07FEEIOKP@?$GAvcall?8@ 00000001800606f8     libvcruntime:undname.obj
 0002:00002700       ??_C@_08LLFFHHDJ@?$GAtypeof?8@ 0000000180060700     libvcruntime:undname.obj
 0002:00002710       ??_C@_0BF@KDPPACIK@?$GAlocal?5static?5guard?8@ 0000000180060710     libvcruntime:undname.obj
 0002:00002728       ??_C@_08OBABFOLI@?$GAstring?8@ 0000000180060728     libvcruntime:undname.obj
 0002:00002738       ??_C@_0BD@JDLKDPAB@?$GAvbase?5destructor?8@ 0000000180060738     libvcruntime:undname.obj
 0002:00002750       ??_C@_0BN@DEGPLNFK@?$GAvector?5deleting?5destructor?8@ 0000000180060750     libvcruntime:undname.obj
 0002:00002770       ??_C@_0BO@OBMKPJIG@?$GAdefault?5constructor?5closure?8@ 0000000180060770     libvcruntime:undname.obj
 0002:00002790       ??_C@_0BN@IMDCHIKM@?$GAscalar?5deleting?5destructor?8@ 0000000180060790     libvcruntime:undname.obj
 0002:000027b0       ??_C@_0BO@PFGOCPJJ@?$GAvector?5constructor?5iterator?8@ 00000001800607b0     libvcruntime:undname.obj
 0002:000027d0       ??_C@_0BN@LFPFMEDL@?$GAvector?5destructor?5iterator?8@ 00000001800607d0     libvcruntime:undname.obj
 0002:000027f0       ??_C@_0CE@IKBNEHA@?$GAvector?5vbase?5constructor?5itera@ 00000001800607f0     libvcruntime:undname.obj
 0002:00002818       ??_C@_0BL@NILFHHPC@?$GAvirtual?5displacement?5map?8@ 0000000180060818     libvcruntime:undname.obj
 0002:00002838       ??_C@_0CB@JONCMFFK@?$GAeh?5vector?5constructor?5iterator@ 0000000180060838     libvcruntime:undname.obj
 0002:00002860       ??_C@_0CA@GCEOPDGL@?$GAeh?5vector?5destructor?5iterator?8@ 0000000180060860     libvcruntime:undname.obj
 0002:00002880       ??_C@_0CH@OOJPLCPH@?$GAeh?5vector?5vbase?5constructor?5it@ 0000000180060880     libvcruntime:undname.obj
 0002:000028a8       ??_C@_0BL@LLKPOHJI@?$GAcopy?5constructor?5closure?8@ 00000001800608a8     libvcruntime:undname.obj
 0002:000028c8       ??_C@_0BA@KBCDOMBN@?$GAudt?5returning?8@ 00000001800608c8     libvcruntime:undname.obj
 0002:000028d8       ??_C@_03KLGMFNMG@?$GAEH@   00000001800608d8     libvcruntime:undname.obj
 0002:000028dc       ??_C@_05KHLCHHI@?$GARTTI@  00000001800608dc     libvcruntime:undname.obj
 0002:000028e8       ??_C@_0BA@KKLDJDLB@?$GAlocal?5vftable?8@ 00000001800608e8     libvcruntime:undname.obj
 0002:000028f8       ??_C@_0CE@IIHCMGGL@?$GAlocal?5vftable?5constructor?5clos@ 00000001800608f8     libvcruntime:undname.obj
 0002:0000291c       ??_C@_06FHBGPFGH@?5new?$FL?$FN@ 000000018006091c     libvcruntime:undname.obj
 0002:00002928       ??_C@_09LBNFPBCA@?5delete?$FL?$FN@ 0000000180060928     libvcruntime:undname.obj
 0002:00002938       ??_C@_0P@HJKNJFNN@?$GAomni?5callsig?8@ 0000000180060938     libvcruntime:undname.obj
 0002:00002948       ??_C@_0BL@CNOONJFP@?$GAplacement?5delete?5closure?8@ 0000000180060948     libvcruntime:undname.obj
 0002:00002968       ??_C@_0BN@CKNJLHMB@?$GAplacement?5delete?$FL?$FN?5closure?8@ 0000000180060968     libvcruntime:undname.obj
 0002:00002988       ??_C@_0CG@CFDHKGGD@?$GAmanaged?5vector?5constructor?5ite@ 0000000180060988     libvcruntime:undname.obj
 0002:000029b0       ??_C@_0CF@IMGKMJNO@?$GAmanaged?5vector?5destructor?5iter@ 00000001800609b0     libvcruntime:undname.obj
 0002:000029d8       ??_C@_0CG@HLDDJMAG@?$GAeh?5vector?5copy?5constructor?5ite@ 00000001800609d8     libvcruntime:undname.obj
 0002:00002a00       ??_C@_0CM@FCBBDIGB@?$GAeh?5vector?5vbase?5copy?5construct@ 0000000180060a00     libvcruntime:undname.obj
 0002:00002a30       ??_C@_0BL@CLIPGLGB@?$GAdynamic?5initializer?5for?5?8@ 0000000180060a30     libvcruntime:undname.obj
 0002:00002a50       ??_C@_0CB@PDBIFEP@?$GAdynamic?5atexit?5destructor?5for?5@ 0000000180060a50     libvcruntime:undname.obj
 0002:00002a78       ??_C@_0CD@CGAJBKEJ@?$GAvector?5copy?5constructor?5iterat@ 0000000180060a78     libvcruntime:undname.obj
 0002:00002aa0       ??_C@_0CJ@GJELGAMM@?$GAvector?5vbase?5copy?5constructor?5@ 0000000180060aa0     libvcruntime:undname.obj
 0002:00002ad0       ??_C@_0CL@FGIJHLCE@?$GAmanaged?5vector?5copy?5constructo@ 0000000180060ad0     libvcruntime:undname.obj
 0002:00002b00       ??_C@_0BM@PMGGMLDN@?$GAlocal?5static?5thread?5guard?8@ 0000000180060b00     libvcruntime:undname.obj
 0002:00002b20       ??_C@_0N@BDNMDMOL@operator?5?$CC?$CC?5@ 0000000180060b20     libvcruntime:undname.obj
 0002:00002b30       ??_C@_0BC@GGEBGALA@operator?5co_await@ 0000000180060b30     libvcruntime:undname.obj
 0002:00002b48       ??_C@_0M@GAAIMMOH@operator?$DM?$DN?$DO@ 0000000180060b48     libvcruntime:undname.obj
 0002:00002b58       ??_C@_0BC@DAFEJGAK@?5Type?5Descriptor?8@ 0000000180060b58     libvcruntime:undname.obj
 0002:00002b70       ??_C@_0BM@LDKODKLH@?5Base?5Class?5Descriptor?5at?5?$CI@ 0000000180060b70     libvcruntime:undname.obj
 0002:00002b90       ??_C@_0BD@LGICGFMM@?5Base?5Class?5Array?8@ 0000000180060b90     libvcruntime:undname.obj
 0002:00002ba8       ??_C@_0BN@MECKDCOJ@?5Class?5Hierarchy?5Descriptor?8@ 0000000180060ba8     libvcruntime:undname.obj
 0002:00002bc8       ??_C@_0BK@CFCOFLF@?5Complete?5Object?5Locator?8@ 0000000180060bc8     libvcruntime:undname.obj
 0002:00002be8       ??_C@_0BG@JNJLAMPM@?$GAanonymous?5namespace?8@ 0000000180060be8     libvcruntime:undname.obj
 0002:00002c18       ??_C@_1DM@KHCHBNEB@?$AAa?$AAp?$AAi?$AA?9?$AAm?$AAs?$AA?9?$AAw?$AAi?$AAn?$AA?9?$AAc?$AAo?$AAr?$AAe@ 0000000180060c18     libvcruntime:winapi_downlevel.obj
 0002:00002c58       ??_C@_1DK@LPPGFMPP@?$AAa?$AAp?$AAi?$AA?9?$AAm?$AAs?$AA?9?$AAw?$AAi?$AAn?$AA?9?$AAc?$AAo?$AAr?$AAe@ 0000000180060c58     libvcruntime:winapi_downlevel.obj
 0002:00002c98       ??_C@_1BC@GDMECMAK@?$AAk?$AAe?$AAr?$AAn?$AAe?$AAl?$AA3?$AA2@ 0000000180060c98     libvcruntime:winapi_downlevel.obj
 0002:00002cb0       ??_C@_1BA@PFFKHIOG@?$AAa?$AAp?$AAi?$AA?9?$AAm?$AAs?$AA?9@ 0000000180060cb0     libvcruntime:winapi_downlevel.obj
 0002:00002cc8       ??_C@_08KNHFBNJ@FlsAlloc@  0000000180060cc8     libvcruntime:winapi_downlevel.obj
 0002:00002ce0       ??_C@_07PEJMOBNF@FlsFree@  0000000180060ce0     libvcruntime:winapi_downlevel.obj
 0002:00002cf0       ??_C@_0M@GDNOONDI@FlsGetValue@ 0000000180060cf0     libvcruntime:winapi_downlevel.obj
 0002:00002d08       ??_C@_0M@JCPCPOEF@FlsSetValue@ 0000000180060d08     libvcruntime:winapi_downlevel.obj
 0002:00002d20       ??_C@_0BM@HCFOFFN@InitializeCriticalSectionEx@ 0000000180060d20     libvcruntime:winapi_downlevel.obj
 0002:00002d40       ??_C@_1FE@LHBLIKM@?$AAA?$AAs?$AAs?$AAe?$AAr?$AAt?$AAi?$AAo?$AAn?$AA?5?$AAf?$AAa?$AAi?$AAl?$AAe@ 0000000180060d40     libucrt:assert.obj
 0002:00002da0       ??_C@_1EK@MBDPDCGA@?$AAM?$AAi?$AAc?$AAr?$AAo?$AAs?$AAo?$AAf?$AAt?$AA?5?$AAV?$AAi?$AAs?$AAu?$AAa@ 0000000180060da0     libucrt:assert.obj
 0002:00002df0       ??_C@_1CE@OJBNHDMO@?$AAA?$AAs?$AAs?$AAe?$AAr?$AAt?$AAi?$AAo?$AAn?$AA?5?$AAf?$AAa?$AAi?$AAl?$AAe@ 0000000180060df0     libucrt:assert.obj
 0002:00002e18       ??_C@_1BE@PHKBBGE@?$AAP?$AAr?$AAo?$AAg?$AAr?$AAa?$AAm?$AA?3?$AA?5@ 0000000180060e18     libucrt:assert.obj
 0002:00002e30       ??_C@_1O@HEMHKNDC@?$AAF?$AAi?$AAl?$AAe?$AA?3?$AA?5@ 0000000180060e30     libucrt:assert.obj
 0002:00002e40       ??_C@_1O@KCAFKHJE@?$AAL?$AAi?$AAn?$AAe?$AA?3?$AA?5@ 0000000180060e40     libucrt:assert.obj
 0002:00002e50       ??_C@_1BK@PEDCIPMA@?$AAE?$AAx?$AAp?$AAr?$AAe?$AAs?$AAs?$AAi?$AAo?$AAn?$AA?3?$AA?5@ 0000000180060e50     libucrt:assert.obj
 0002:00002e70       ??_C@_1OA@EGMLFBHJ@?$AAF?$AAo?$AAr?$AA?5?$AAi?$AAn?$AAf?$AAo?$AAr?$AAm?$AAa?$AAt?$AAi?$AAo?$AAn@ 0000000180060e70     libucrt:assert.obj
 0002:00002f50       ??_C@_1HK@POCJMFGK@?$AA?$CI?$AAP?$AAr?$AAe?$AAs?$AAs?$AA?5?$AAR?$AAe?$AAt?$AAr?$AAy?$AA?5?$AAt?$AAo@ 0000000180060f50     libucrt:assert.obj
 0002:00002fd0       ??_C@_17LGKOMLJ@?$AA?4?$AA?4?$AA?4@ 0000000180060fd0     libucrt:assert.obj
 0002:00002fd8       ??_C@_13LBAGMAIH@?$AA?6@   0000000180060fd8     libucrt:assert.obj
 0002:00002fdc       ??_C@_15IABLJNFO@?$AA?6?$AA?6@ 0000000180060fdc     libucrt:assert.obj
 0002:00002fe8       ??_C@_1CO@EAEJAADC@?$AA?$DM?$AAp?$AAr?$AAo?$AAg?$AAr?$AAa?$AAm?$AA?5?$AAn?$AAa?$AAm?$AAe?$AA?5?$AAu@ 0000000180060fe8     libucrt:assert.obj
 0002:00003020       ?standard_lookup_table_spectre@__crt_stdio_output@@3V?$spectre_mitigated_lookup_table@Ustate_transition_pair@__crt_stdio_output@@$0IA@@1@B 0000000180061020     libucrt:output.obj
 0002:00003120       ??_C@_1O@CEDCILHN@?$AA?$CI?$AAn?$AAu?$AAl?$AAl?$AA?$CJ@ 0000000180061120     libucrt:output.obj
 0002:00003130       ??_C@_06OJHGLDPL@?$CInull?$CJ@ 0000000180061130     libucrt:output.obj
 0002:000032a8       ??_C@_19DOGDICKI@?$AA?4?$AAe?$AAx?$AAe@ 00000001800612a8     libucrt:stat.obj
 0002:000032b8       ??_C@_19BDKLHPGC@?$AA?4?$AAc?$AAm?$AAd@ 00000001800612b8     libucrt:stat.obj
 0002:000032c8       ??_C@_19PINKOIBI@?$AA?4?$AAb?$AAa?$AAt@ 00000001800612c8     libucrt:stat.obj
 0002:000032d8       ??_C@_19CDGLJBOD@?$AA?4?$AAc?$AAo?$AAm@ 00000001800612d8     libucrt:stat.obj
 0002:000032f0       __newctype                 00000001800612f0     libucrt:ctype.obj
 0002:000035f0       __newclmap                 00000001800615f0     libucrt:ctype.obj
 0002:00003770       __newcumap                 0000000180061770     libucrt:ctype.obj
 0002:000038f0       _wctype                    00000001800618f0     libucrt:ctype.obj
 0002:00003b00       ?large_power_data@?1??multiply_by_power_of_ten@__crt_strtox@@YA_NAEAUbig_integer@2@I@Z@4QBIB 0000000180061b00     libucrt:strtod.obj
 0002:00004410       ?large_power_indices@?1??multiply_by_power_of_ten@__crt_strtox@@YA_NAEAUbig_integer@2@I@Z@4QBUunpack_index@?1??12@YA_N0I@Z@B 0000000180062410     libucrt:strtod.obj
 0002:000044a8       ?small_powers_of_ten@?1??multiply_by_power_of_ten@__crt_strtox@@YA_NAEAUbig_integer@2@I@Z@4QBIB 00000001800624a8     libucrt:strtod.obj
 0002:00006178       ??_C@_1M@PBPMMENC@?$AAa?$AAm?$AA?1?$AAp?$AAm@ 0000000180064178     libucrt:wcsftime.obj
 0002:00006188       ??_C@_17BLFJJHMM@?$AAa?$AA?1?$AAp@ 0000000180064188     libucrt:wcsftime.obj
 0002:00006190       ??_C@_13HOIJIPNN@?$AA?5@   0000000180064190     libucrt:wcsftime.obj
 0002:00006194       ??_C@_13CGOKJPIL@?$AA?1@   0000000180064194     libucrt:wcsftime.obj
 0002:00006198       ??_C@_13EBCNDICG@?$AA?3@   0000000180064198     libucrt:wcsftime.obj
 0002:0000619c       ??_C@_13KDLDGPGJ@?$AA?7@   000000018006419c     libucrt:wcsftime.obj
 0002:000061a0       ??_C@_13KJIIAINM@?$AA?$CL@ 00000001800641a0     libucrt:wcsftime.obj
 0002:000061a4       ??_C@_13EJFHHPOP@?$AA?$CF@ 00000001800641a4     libucrt:wcsftime.obj
 0002:000061b0       __acrt_exception_action_table 00000001800641b0     libucrt:exception_filter.obj
 0002:00006270       __acrt_signal_action_table_count 0000000180064270     libucrt:exception_filter.obj
 0002:00006278       __acrt_signal_action_first_fpe_index 0000000180064278     libucrt:exception_filter.obj
 0002:00006280       __acrt_signal_action_fpe_count 0000000180064280     libucrt:exception_filter.obj
 0002:000062d8       ??_C@_1BI@BGOHAHKC@?$AAm?$AAs?$AAc?$AAo?$AAr?$AAe?$AAe?$AA?4?$AAd?$AAl?$AAl@ 00000001800642d8     libucrt:exit.obj
 0002:000062f0       ??_C@_0P@MIGLKIOC@CorExitProcess@ 00000001800642f0     libucrt:exit.obj
 0002:000064d0       __lc_category              00000001800644d0     libucrt:wsetlocale.obj
 0002:00006560       ??_C@_1O@GIFLHMA@?$AAL?$AAC?$AA_?$AAA?$AAL?$AAL@ 0000000180064560     libucrt:wsetlocale.obj
 0002:00006570       ??_C@_1BG@PPOMIBNJ@?$AAL?$AAC?$AA_?$AAC?$AAO?$AAL?$AAL?$AAA?$AAT?$AAE@ 0000000180064570     libucrt:wsetlocale.obj
 0002:00006588       ??_C@_1BC@FFJGAPJM@?$AAL?$AAC?$AA_?$AAC?$AAT?$AAY?$AAP?$AAE@ 0000000180064588     libucrt:wsetlocale.obj
 0002:000065a0       ??_C@_1BI@PCKFNJFB@?$AAL?$AAC?$AA_?$AAM?$AAO?$AAN?$AAE?$AAT?$AAA?$AAR?$AAY@ 00000001800645a0     libucrt:wsetlocale.obj
 0002:000065b8       ??_C@_1BG@ENIEDKID@?$AAL?$AAC?$AA_?$AAN?$AAU?$AAM?$AAE?$AAR?$AAI?$AAC@ 00000001800645b8     libucrt:wsetlocale.obj
 0002:000065d0       ??_C@_1BA@HAAOMIIG@?$AAL?$AAC?$AA_?$AAT?$AAI?$AAM?$AAE@ 00000001800645d0     libucrt:wsetlocale.obj
 0002:000065e0       ??_C@_15NBPDDFIP@?$AA?$DN?$AA?$DL@ 00000001800645e0     libucrt:wsetlocale.obj
 0002:000065e8       ??_C@_13PJJBFPED@?$AA?$DL@ 00000001800645e8     libucrt:wsetlocale.obj
 0002:000065ec       ??_C@_13NMPKAAJP@?$AA?$DN@ 00000001800645ec     libucrt:wsetlocale.obj
 0002:000065f0       ??_C@_17EFJLDFDO@?$AA?9?$AA_?$AA?4@ 00000001800645f0     libucrt:wsetlocale.obj
 0002:000065f8       ??_C@_13FHBKNHDA@?$AAC@    00000001800645f8     libucrt:wsetlocale.obj
 0002:00006600       ??_C@_17MBJJLFDM@?$AA_?$AA?4?$AA?0@ 0000000180064600     libucrt:wsetlocale.obj
 0002:00006608       ??_C@_13ENNFDPBH@?$AA_@    0000000180064608     libucrt:wsetlocale.obj
 0002:0000660c       ??_C@_13JOFGPIOO@?$AA?4@   000000018006460c     libucrt:wsetlocale.obj
 0002:00006610       __lc_time_c                0000000180064610     libucrt:nlsdata.obj
 0002:000068d0       ??_C@_03KOEHGMDN@Sun@      00000001800648d0     libucrt:nlsdata.obj
 0002:000068d4       ??_C@_03PDAGKDH@Mon@       00000001800648d4     libucrt:nlsdata.obj
 0002:000068d8       ??_C@_03NAGEINEP@Tue@      00000001800648d8     libucrt:nlsdata.obj
 0002:000068dc       ??_C@_03MHOMLAJA@Wed@      00000001800648dc     libucrt:nlsdata.obj
 0002:000068e0       ??_C@_03IOFIKPDN@Thu@      00000001800648e0     libucrt:nlsdata.obj
 0002:000068e4       ??_C@_03IDIOELNC@Fri@      00000001800648e4     libucrt:nlsdata.obj
 0002:000068e8       ??_C@_03FEFJNEK@Sat@       00000001800648e8     libucrt:nlsdata.obj
 0002:000068ec       ??_C@_06OOPIFAJ@Sunday@    00000001800648ec     libucrt:nlsdata.obj
 0002:000068f4       ??_C@_06JLEDEDGH@Monday@   00000001800648f4     libucrt:nlsdata.obj
 0002:00006900       ??_C@_07BAAGCFCM@Tuesday@  0000000180064900     libucrt:nlsdata.obj
 0002:00006908       ??_C@_09DLIGFAKA@Wednesday@ 0000000180064908     libucrt:nlsdata.obj
 0002:00006918       ??_C@_08HACCIKIA@Thursday@ 0000000180064918     libucrt:nlsdata.obj
 0002:00006924       ??_C@_06JECMNKMI@Friday@   0000000180064924     libucrt:nlsdata.obj
 0002:00006930       ??_C@_08INBOOONO@Saturday@ 0000000180064930     libucrt:nlsdata.obj
 0002:0000693c       ??_C@_03JIHJHPIE@Jan@      000000018006493c     libucrt:nlsdata.obj
 0002:00006940       ??_C@_03HJBDCHOM@Feb@      0000000180064940     libucrt:nlsdata.obj
 0002:00006944       ??_C@_03ODNJBKGA@Mar@      0000000180064944     libucrt:nlsdata.obj
 0002:00006948       ??_C@_03LEOLGMJP@Apr@      0000000180064948     libucrt:nlsdata.obj
 0002:0000694c       ??_C@_03CNMDKL@May@        000000018006494c     libucrt:nlsdata.obj
 0002:00006950       ??_C@_03IDFGHECI@Jun@      0000000180064950     libucrt:nlsdata.obj
 0002:00006954       ??_C@_03LBGABGKK@Jul@      0000000180064954     libucrt:nlsdata.obj
 0002:00006958       ??_C@_03IFJFEIGA@Aug@      0000000180064958     libucrt:nlsdata.obj
 0002:0000695c       ??_C@_03GGCAPAJC@Sep@      000000018006495c     libucrt:nlsdata.obj
 0002:00006960       ??_C@_03BMAOKBAD@Oct@      0000000180064960     libucrt:nlsdata.obj
 0002:00006964       ??_C@_03JPJOFNIA@Nov@      0000000180064964     libucrt:nlsdata.obj
 0002:00006968       ??_C@_03MKABNOCG@Dec@      0000000180064968     libucrt:nlsdata.obj
 0002:00006970       ??_C@_07CGJPFGJA@January@  0000000180064970     libucrt:nlsdata.obj
 0002:00006978       ??_C@_08GNJGEPFN@February@ 0000000180064978     libucrt:nlsdata.obj
 0002:00006984       ??_C@_05HPCKOFNC@March@    0000000180064984     libucrt:nlsdata.obj
 0002:0000698c       ??_C@_05DMJDNLEJ@April@    000000018006498c     libucrt:nlsdata.obj
 0002:00006994       ??_C@_04CNLMGBGM@June@     0000000180064994     libucrt:nlsdata.obj
 0002:0000699c       ??_C@_04MIEPOIFP@July@     000000018006499c     libucrt:nlsdata.obj
 0002:000069a4       ??_C@_06LBBHFDDG@August@   00000001800649a4     libucrt:nlsdata.obj
 0002:000069b0       ??_C@_09BHHEALKD@September@ 00000001800649b0     libucrt:nlsdata.obj
 0002:000069c0       ??_C@_07JJNFCEND@October@  00000001800649c0     libucrt:nlsdata.obj
 0002:000069c8       ??_C@_08HCHEGEOA@November@ 00000001800649c8     libucrt:nlsdata.obj
 0002:000069d8       ??_C@_08EDHMEBNP@December@ 00000001800649d8     libucrt:nlsdata.obj
 0002:000069e4       ??_C@_02DEDBPAFC@AM@       00000001800649e4     libucrt:nlsdata.obj
 0002:000069e8       ??_C@_02CJNFDJBF@PM@       00000001800649e8     libucrt:nlsdata.obj
 0002:000069f0       ??_C@_08BPBNCDIB@MM?1dd?1yy@ 00000001800649f0     libucrt:nlsdata.obj
 0002:00006a00       ??_C@_0BE@CKGJFCPC@dddd?0?5MMMM?5dd?0?5yyyy@ 0000000180064a00     libucrt:nlsdata.obj
 0002:00006a18       ??_C@_08JCCMCCIL@HH?3mm?3ss@ 0000000180064a18     libucrt:nlsdata.obj
 0002:00006a28       ??_C@_17MBGCMIPB@?$AAS?$AAu?$AAn@ 0000000180064a28     libucrt:nlsdata.obj
 0002:00006a30       ??_C@_17KBOMKBF@?$AAM?$AAo?$AAn@ 0000000180064a30     libucrt:nlsdata.obj
 0002:00006a38       ??_C@_17BMKGEGOJ@?$AAT?$AAu?$AAe@ 0000000180064a38     libucrt:nlsdata.obj
 0002:00006a40       ??_C@_17CJEDCEPE@?$AAW?$AAe?$AAd@ 0000000180064a40     libucrt:nlsdata.obj
 0002:00006a48       ??_C@_17PDPHAADD@?$AAT?$AAh?$AAu@ 0000000180064a48     libucrt:nlsdata.obj
 0002:00006a50       ??_C@_17HFOLPPLP@?$AAF?$AAr?$AAi@ 0000000180064a50     libucrt:nlsdata.obj
 0002:00006a58       ??_C@_17GGIBDPIH@?$AAS?$AAa?$AAt@ 0000000180064a58     libucrt:nlsdata.obj
 0002:00006a60       ??_C@_1O@IHNHDHPB@?$AAS?$AAu?$AAn?$AAd?$AAa?$AAy@ 0000000180064a60     libucrt:nlsdata.obj
 0002:00006a70       ??_C@_1O@MMNBFLIA@?$AAM?$AAo?$AAn?$AAd?$AAa?$AAy@ 0000000180064a70     libucrt:nlsdata.obj
 0002:00006a80       ??_C@_1BA@ENFBFFEK@?$AAT?$AAu?$AAe?$AAs?$AAd?$AAa?$AAy@ 0000000180064a80     libucrt:nlsdata.obj
 0002:00006a90       ??_C@_1BE@EBOGMDOH@?$AAW?$AAe?$AAd?$AAn?$AAe?$AAs?$AAd?$AAa?$AAy@ 0000000180064a90     libucrt:nlsdata.obj
 0002:00006aa8       ??_C@_1BC@HHMNLIHE@?$AAT?$AAh?$AAu?$AAr?$AAs?$AAd?$AAa?$AAy@ 0000000180064aa8     libucrt:nlsdata.obj
 0002:00006ac0       ??_C@_1O@PDICJHAG@?$AAF?$AAr?$AAi?$AAd?$AAa?$AAy@ 0000000180064ac0     libucrt:nlsdata.obj
 0002:00006ad0       ??_C@_1BC@ENMNNPAJ@?$AAS?$AAa?$AAt?$AAu?$AAr?$AAd?$AAa?$AAy@ 0000000180064ad0     libucrt:nlsdata.obj
 0002:00006ae8       ??_C@_17DKNBKCHM@?$AAJ?$AAa?$AAn@ 0000000180064ae8     libucrt:nlsdata.obj
 0002:00006af0       ??_C@_17LMDJEKJN@?$AAF?$AAe?$AAb@ 0000000180064af0     libucrt:nlsdata.obj
 0002:00006af8       ??_C@_17CKNLEDEC@?$AAM?$AAa?$AAr@ 0000000180064af8     libucrt:nlsdata.obj
 0002:00006b00       ??_C@_17LFPOIHDD@?$AAA?$AAp?$AAr@ 0000000180064b00     libucrt:nlsdata.obj
 0002:00006b08       ??_C@_17PNNKMEED@?$AAM?$AAa?$AAy@ 0000000180064b08     libucrt:nlsdata.obj
 0002:00006b10       ??_C@_17KCJGOCPB@?$AAJ?$AAu?$AAn@ 0000000180064b10     libucrt:nlsdata.obj
 0002:00006b18       ??_C@_17IJPCKHK@?$AAJ?$AAu?$AAl@ 0000000180064b18     libucrt:nlsdata.obj
 0002:00006b20       ??_C@_17ICPELBCN@?$AAA?$AAu?$AAg@ 0000000180064b20     libucrt:nlsdata.obj
 0002:00006b28       ??_C@_17HCHCOKMG@?$AAS?$AAe?$AAp@ 0000000180064b28     libucrt:nlsdata.obj
 0002:00006b30       ??_C@_17FNLKOI@?$AAO?$AAc?$AAt@ 0000000180064b30     libucrt:nlsdata.obj
 0002:00006b38       ??_C@_17BBDMLCIG@?$AAN?$AAo?$AAv@ 0000000180064b38     libucrt:nlsdata.obj
 0002:00006b40       ??_C@_17EGKACKIF@?$AAD?$AAe?$AAc@ 0000000180064b40     libucrt:nlsdata.obj
 0002:00006b48       ??_C@_1BA@EFMEIEBA@?$AAJ?$AAa?$AAn?$AAu?$AAa?$AAr?$AAy@ 0000000180064b48     libucrt:nlsdata.obj
 0002:00006b58       ??_C@_1BC@JGDDFFAM@?$AAF?$AAe?$AAb?$AAr?$AAu?$AAa?$AAr?$AAy@ 0000000180064b58     libucrt:nlsdata.obj
 0002:00006b70       ??_C@_1M@IKEENEDF@?$AAM?$AAa?$AAr?$AAc?$AAh@ 0000000180064b70     libucrt:nlsdata.obj
 0002:00006b80       ??_C@_1M@GJNLMHFD@?$AAA?$AAp?$AAr?$AAi?$AAl@ 0000000180064b80     libucrt:nlsdata.obj
 0002:00006b90       ??_C@_19EPFLPGAP@?$AAJ?$AAu?$AAn?$AAe@ 0000000180064b90     libucrt:nlsdata.obj
 0002:00006ba0       ??_C@_19BIFMLPCD@?$AAJ?$AAu?$AAl?$AAy@ 0000000180064ba0     libucrt:nlsdata.obj
 0002:00006bb0       ??_C@_1O@PAHLKOAC@?$AAA?$AAu?$AAg?$AAu?$AAs?$AAt@ 0000000180064bb0     libucrt:nlsdata.obj
 0002:00006bc0       ??_C@_1BE@DKAAMBJL@?$AAS?$AAe?$AAp?$AAt?$AAe?$AAm?$AAb?$AAe?$AAr@ 0000000180064bc0     libucrt:nlsdata.obj
 0002:00006bd8       ??_C@_1BA@EPANDLNG@?$AAO?$AAc?$AAt?$AAo?$AAb?$AAe?$AAr@ 0000000180064bd8     libucrt:nlsdata.obj
 0002:00006be8       ??_C@_1BC@BGLIFPF@?$AAN?$AAo?$AAv?$AAe?$AAm?$AAb?$AAe?$AAr@ 0000000180064be8     libucrt:nlsdata.obj
 0002:00006c00       ??_C@_1BC@FEMKIFH@?$AAD?$AAe?$AAc?$AAe?$AAm?$AAb?$AAe?$AAr@ 0000000180064c00     libucrt:nlsdata.obj
 0002:00006c14       ??_C@_15ODEHAHHF@?$AAA?$AAM@ 0000000180064c14     libucrt:nlsdata.obj
 0002:00006c1c       ??_C@_15CLMNNGEL@?$AAP?$AAM@ 0000000180064c1c     libucrt:nlsdata.obj
 0002:00006c28       ??_C@_1BC@IEBCMHCM@?$AAM?$AAM?$AA?1?$AAd?$AAd?$AA?1?$AAy?$AAy@ 0000000180064c28     libucrt:nlsdata.obj
 0002:00006c40       ??_C@_1CI@KNAKOEBC@?$AAd?$AAd?$AAd?$AAd?$AA?0?$AA?5?$AAM?$AAM?$AAM?$AAM?$AA?5?$AAd?$AAd?$AA?0?$AA?5@ 0000000180064c40     libucrt:nlsdata.obj
 0002:00006c68       ??_C@_1BC@GDGBMEMK@?$AAH?$AAH?$AA?3?$AAm?$AAm?$AA?3?$AAs?$AAs@ 0000000180064c68     libucrt:nlsdata.obj
 0002:00006c80       ??_C@_1M@BMHNFIME@?$AAe?$AAn?$AA?9?$AAU?$AAS@ 0000000180064c80     libucrt:nlsdata.obj
 0002:00006c90       _days                      0000000180064c90     libucrt:days.obj
 0002:00006cc8       _lpdays                    0000000180064cc8     libucrt:days.obj
 0002:00006de0       ??_C@_1EA@JGEFHKEI@?$AAa?$AAp?$AAi?$AA?9?$AAm?$AAs?$AA?9?$AAw?$AAi?$AAn?$AA?9?$AAc?$AAo?$AAr?$AAe@ 0000000180064de0     libucrt:winapi_thunks.obj
 0002:00006e20       ??_C@_1DI@IJCEHOCB@?$AAa?$AAp?$AAi?$AA?9?$AAm?$AAs?$AA?9?$AAw?$AAi?$AAn?$AA?9?$AAc?$AAo?$AAr?$AAe@ 0000000180064e20     libucrt:winapi_thunks.obj
 0002:00006e60       ??_C@_1EI@MPIAOHOC@?$AAa?$AAp?$AAi?$AA?9?$AAm?$AAs?$AA?9?$AAw?$AAi?$AAn?$AA?9?$AAc?$AAo?$AAr?$AAe@ 0000000180064e60     libucrt:winapi_thunks.obj
 0002:00006eb0       ??_C@_1FK@FPHCKFIE@?$AAa?$AAp?$AAi?$AA?9?$AAm?$AAs?$AA?9?$AAw?$AAi?$AAn?$AA?9?$AAc?$AAo?$AAr?$AAe@ 0000000180064eb0     libucrt:winapi_thunks.obj
 0002:00006f10       ??_C@_1EM@DILCGIIO@?$AAa?$AAp?$AAi?$AA?9?$AAm?$AAs?$AA?9?$AAw?$AAi?$AAn?$AA?9?$AAc?$AAo?$AAr?$AAe@ 0000000180064f10     libucrt:winapi_thunks.obj
 0002:00006f60       ??_C@_1DM@LNCGDDPN@?$AAa?$AAp?$AAi?$AA?9?$AAm?$AAs?$AA?9?$AAw?$AAi?$AAn?$AA?9?$AAc?$AAo?$AAr?$AAe@ 0000000180064f60     libucrt:winapi_thunks.obj
 0002:00006fa0       ??_C@_1DO@FPAPJEMD@?$AAa?$AAp?$AAi?$AA?9?$AAm?$AAs?$AA?9?$AAw?$AAi?$AAn?$AA?9?$AAc?$AAo?$AAr?$AAe@ 0000000180064fa0     libucrt:winapi_thunks.obj
 0002:00006fe0       ??_C@_1DK@NDHNAHIO@?$AAa?$AAp?$AAi?$AA?9?$AAm?$AAs?$AA?9?$AAw?$AAi?$AAn?$AA?9?$AAc?$AAo?$AAr?$AAe@ 0000000180064fe0     libucrt:winapi_thunks.obj
 0002:00007020       ??_C@_1DM@KGHDGBCM@?$AAa?$AAp?$AAi?$AA?9?$AAm?$AAs?$AA?9?$AAw?$AAi?$AAn?$AA?9?$AAc?$AAo?$AAr?$AAe@ 0000000180065020     libucrt:winapi_thunks.obj
 0002:00007060       ??_C@_1EO@IJIOEFOH@?$AAa?$AAp?$AAi?$AA?9?$AAm?$AAs?$AA?9?$AAw?$AAi?$AAn?$AA?9?$AAr?$AAt?$AAc?$AAo@ 0000000180065060     libucrt:winapi_thunks.obj
 0002:000070b0       ??_C@_1FG@HHGEKANL@?$AAa?$AAp?$AAi?$AA?9?$AAm?$AAs?$AA?9?$AAw?$AAi?$AAn?$AA?9?$AAs?$AAe?$AAc?$AAu@ 00000001800650b0     libucrt:winapi_thunks.obj
 0002:00007110       ??_C@_1EG@DBIOJECG@?$AAe?$AAx?$AAt?$AA?9?$AAm?$AAs?$AA?9?$AAw?$AAi?$AAn?$AA?9?$AAn?$AAt?$AAu?$AAs@ 0000000180065110     libucrt:winapi_thunks.obj
 0002:00007160       ??_C@_1EO@FIHMJCLF@?$AAe?$AAx?$AAt?$AA?9?$AAm?$AAs?$AA?9?$AAw?$AAi?$AAn?$AA?9?$AAn?$AAt?$AAu?$AAs@ 0000000180065160     libucrt:winapi_thunks.obj
 0002:000071b0       ??_C@_1BC@DNHGCMLG@?$AAa?$AAd?$AAv?$AAa?$AAp?$AAi?$AA3?$AA2@ 00000001800651b0     libucrt:winapi_thunks.obj
 0002:000071c8       ??_C@_1M@OAIMIKLP@?$AAn?$AAt?$AAd?$AAl?$AAl@ 00000001800651c8     libucrt:winapi_thunks.obj
 0002:000071e0       ??_C@_1EG@DPGNFKGC@?$AAa?$AAp?$AAi?$AA?9?$AAm?$AAs?$AA?9?$AAw?$AAi?$AAn?$AA?9?$AAa?$AAp?$AAp?$AAm@ 00000001800651e0     libucrt:winapi_thunks.obj
 0002:00007228       ??_C@_1O@BCCLBEOE@?$AAu?$AAs?$AAe?$AAr?$AA3?$AA2@ 0000000180065228     libucrt:winapi_thunks.obj
 0002:00007238       ??_C@_1BA@IAIFMGEF@?$AAe?$AAx?$AAt?$AA?9?$AAm?$AAs?$AA?9@ 0000000180065238     libucrt:winapi_thunks.obj
 0002:00007250       ??_C@_0BA@FHFNEAED@AreFileApisANSI@ 0000000180065250     libucrt:winapi_thunks.obj
 0002:00007268       ??_C@_0BA@IHGNDAEB@CompareStringEx@ 0000000180065268     libucrt:winapi_thunks.obj
 0002:00007280       ??_C@_0BE@LJANKFHF@EnumSystemLocalesEx@ 0000000180065280     libucrt:winapi_thunks.obj
 0002:000072a0       ??_C@_0BA@HNOPNCHB@GetActiveWindow@ 00000001800652a0     libucrt:winapi_thunks.obj
 0002:000072b8       ??_C@_0BA@EPCJIIPD@GetDateFormatEx@ 00000001800652b8     libucrt:winapi_thunks.obj
 0002:000072d0       ??_C@_0BD@HHGDFDBJ@GetLastActivePopup@ 00000001800652d0     libucrt:winapi_thunks.obj
 0002:000072f0       ??_C@_0BA@ONOKGCMP@GetLocaleInfoEx@ 00000001800652f0     libucrt:winapi_thunks.obj
 0002:00007308       ??_C@_0BI@DFKBFLJE@GetProcessWindowStation@ 0000000180065308     libucrt:winapi_thunks.obj
 0002:00007328       ??_C@_0BA@CIJJKCJJ@GetTimeFormatEx@ 0000000180065328     libucrt:winapi_thunks.obj
 0002:00007340       ??_C@_0BJ@PBCCBIPI@GetUserDefaultLocaleName@ 0000000180065340     libucrt:winapi_thunks.obj
 0002:00007368       ??_C@_0BK@DEKFELLI@GetUserObjectInformationW@ 0000000180065368     libucrt:winapi_thunks.obj
 0002:00007398       ??_C@_0BC@CELBKLLA@IsValidLocaleName@ 0000000180065398     libucrt:winapi_thunks.obj
 0002:000073b8       ??_C@_0O@KKBNKAPF@LCMapStringEx@ 00000001800653b8     libucrt:winapi_thunks.obj
 0002:000073d0       ??_C@_0BB@CDHDDLLP@LCIDToLocaleName@ 00000001800653d0     libucrt:winapi_thunks.obj
 0002:000073f0       ??_C@_0BB@HBDEELFH@LocaleNameToLCID@ 00000001800653f0     libucrt:winapi_thunks.obj
 0002:00007410       ??_C@_0M@CHKKJDAI@MessageBoxA@ 0000000180065410     libucrt:winapi_thunks.obj
 0002:00007428       ??_C@_0M@DLDCCGNP@MessageBoxW@ 0000000180065428     libucrt:winapi_thunks.obj
 0002:00007438       ??_C@_0CF@OJOFEIGO@AppPolicyGetProcessTerminationM@ 0000000180065438     libucrt:winapi_thunks.obj
 0002:00007468       ??_C@_0CE@OICFMIKE@AppPolicyGetShowDeveloperDiagno@ 0000000180065468     libucrt:winapi_thunks.obj
 0002:00007490       ??_C@_0BL@ODDJNEDA@AppPolicyGetWindowingModel@ 0000000180065490     libucrt:winapi_thunks.obj
 0002:00007530       ??_C@_03OEIAHPBN@INF@      0000000180065530     libucrt:cvt.obj
 0002:00007534       ??_C@_03OJHLLCGB@inf@      0000000180065534     libucrt:cvt.obj
 0002:00007538       ??_C@_03LKNCIKJB@NAN@      0000000180065538     libucrt:cvt.obj
 0002:0000753c       ??_C@_03LHCJEHON@nan@      000000018006553c     libucrt:cvt.obj
 0002:00007540       ??_C@_09OFJJIMPC@NAN?$CISNAN?$CJ@ 0000000180065540     libucrt:cvt.obj
 0002:00007550       ??_C@_09IPFBKMDL@nan?$CIsnan?$CJ@ 0000000180065550     libucrt:cvt.obj
 0002:00007560       ??_C@_08IKHNHAJ@NAN?$CIIND?$CJ@ 0000000180065560     libucrt:cvt.obj
 0002:00007570       ??_C@_08OFCDMILK@nan?$CIind?$CJ@ 0000000180065570     libucrt:cvt.obj
 0002:0000757c       ??_C@_05KLBDPFGC@e?$CL000@ 000000018006557c     libucrt:cvt.obj
 0002:00007584       ?ccs@?1???$__acrt_stdio_parse_mode@D@@YA?AU__acrt_stdio_stream_mode@@QEBD@Z@4QBDB 0000000180065584     libucrt:openfile.obj
 0002:00007588       ?utf8_encoding@?1???$__acrt_stdio_parse_mode@D@@YA?AU__acrt_stdio_stream_mode@@QEBD@Z@4QBDB 0000000180065588     libucrt:openfile.obj
 0002:00007590       ?utf16_encoding@?1???$__acrt_stdio_parse_mode@D@@YA?AU__acrt_stdio_stream_mode@@QEBD@Z@4QBDB 0000000180065590     libucrt:openfile.obj
 0002:00007598       ?unicode_encoding@?1???$__acrt_stdio_parse_mode@D@@YA?AU__acrt_stdio_stream_mode@@QEBD@Z@4QBDB 0000000180065598     libucrt:openfile.obj
 0002:000075c8       ??_C@_03JGHBODFD@pow@      00000001800655c8     libucrt:fpexcept.obj
 0002:000075cc       ??_C@_05HGHHAHAP@log10@    00000001800655cc     libucrt:fpexcept.obj
 0002:000075d4       ??_C@_04PDIFKINK@acos@     00000001800655d4     libucrt:fpexcept.obj
 0002:000075dc       ??_C@_04EIAKFFMI@sqrt@     00000001800655dc     libucrt:fpexcept.obj
 0002:000075f0       __log_256_lead             00000001800655f0     libucrt:log_256_lead_tail_table.obj
 0002:00007e00       __log_256_tail             0000000180065e00     libucrt:log_256_lead_tail_table.obj
 0002:00008610       __two_to_jby64_head_table  0000000180066610     libucrt:two_to_jby64_head_tail_table.obj
 0002:00008810       __two_to_jby64_tail_table  0000000180066810     libucrt:two_to_jby64_head_tail_table.obj
 0002:00008a10       ??_C@_04MBFDLNIM@powf@     0000000180066a10     libucrt:pow_special.obj
 0002:00008a20       __two_to_jby64_table       0000000180066a20     libucrt:two_to_jby64_table.obj
 0002:00008c20       __log_F_inv_qword          0000000180066c20     libucrt:log_f_inv_qword_table.obj
 0002:00009430       ??_C@_15HNJCPLHL@?$AAT?$AAZ@ 0000000180067430     libucrt:tzset.obj
 0002:00009458       ??_C@_1M@HPNHIDJI@?$AAj?$AAa?$AA?9?$AAJ?$AAP@ 0000000180067458     libucrt:mbctype.obj
 0002:00009468       ??_C@_1M@BIBDDEMK@?$AAz?$AAh?$AA?9?$AAC?$AAN@ 0000000180067468     libucrt:mbctype.obj
 0002:00009478       ??_C@_1M@JLOOOEGK@?$AAk?$AAo?$AA?9?$AAK?$AAR@ 0000000180067478     libucrt:mbctype.obj
 0002:00009488       ??_C@_1M@CLNBBOPM@?$AAz?$AAh?$AA?9?$AAT?$AAW@ 0000000180067488     libucrt:mbctype.obj
 0002:000094a0       __acrt_rg_language         00000001800674a0     libucrt:get_qualified_locale.obj
 0002:000098b0       __acrt_rg_language_count   00000001800678b0     libucrt:get_qualified_locale.obj
 0002:000098c0       __acrt_rg_country          00000001800678c0     libucrt:get_qualified_locale.obj
 0002:00009a30       __acrt_rg_country_count    0000000180067a30     libucrt:get_qualified_locale.obj
 0002:00009a38       ??_C@_1BC@LLOKLNP@?$AAa?$AAm?$AAe?$AAr?$AAi?$AAc?$AAa?$AAn@ 0000000180067a38     libucrt:get_qualified_locale.obj
 0002:00009a50       ??_C@_1CC@HEIGCDGG@?$AAa?$AAm?$AAe?$AAr?$AAi?$AAc?$AAa?$AAn?$AA?5?$AAe?$AAn?$AAg?$AAl?$AAi?$AAs@ 0000000180067a50     libucrt:get_qualified_locale.obj
 0002:00009a78       ??_C@_1CC@IHCNOMIN@?$AAa?$AAm?$AAe?$AAr?$AAi?$AAc?$AAa?$AAn?$AA?9?$AAe?$AAn?$AAg?$AAl?$AAi?$AAs@ 0000000180067a78     libucrt:get_qualified_locale.obj
 0002:00009aa0       ??_C@_1BG@GKAGPCGG@?$AAa?$AAu?$AAs?$AAt?$AAr?$AAa?$AAl?$AAi?$AAa?$AAn@ 0000000180067aa0     libucrt:get_qualified_locale.obj
 0002:00009ab8       ??_C@_1BA@GMENCENF@?$AAb?$AAe?$AAl?$AAg?$AAi?$AAa?$AAn@ 0000000180067ab8     libucrt:get_qualified_locale.obj
 0002:00009ac8       ??_C@_1BC@PJMIIAAN@?$AAc?$AAa?$AAn?$AAa?$AAd?$AAi?$AAa?$AAn@ 0000000180067ac8     libucrt:get_qualified_locale.obj
 0002:00009ae0       ??_C@_17NOIMNFBF@?$AAc?$AAh?$AAh@ 0000000180067ae0     libucrt:get_qualified_locale.obj
 0002:00009ae8       ??_C@_17GGDALCHA@?$AAc?$AAh?$AAi@ 0000000180067ae8     libucrt:get_qualified_locale.obj
 0002:00009af0       ??_C@_1BA@NPNJKIBL@?$AAc?$AAh?$AAi?$AAn?$AAe?$AAs?$AAe@ 0000000180067af0     libucrt:get_qualified_locale.obj
 0002:00009b00       ??_C@_1CC@DINBAMMJ@?$AAc?$AAh?$AAi?$AAn?$AAe?$AAs?$AAe?$AA?9?$AAh?$AAo?$AAn?$AAg?$AAk?$AAo?$AAn@ 0000000180067b00     libucrt:get_qualified_locale.obj
 0002:00009b28       ??_C@_1CG@IOBJPACO@?$AAc?$AAh?$AAi?$AAn?$AAe?$AAs?$AAe?$AA?9?$AAs?$AAi?$AAm?$AAp?$AAl?$AAi?$AAf@ 0000000180067b28     libucrt:get_qualified_locale.obj
 0002:00009b50       ??_C@_1CE@GAJNDCKG@?$AAc?$AAh?$AAi?$AAn?$AAe?$AAs?$AAe?$AA?9?$AAs?$AAi?$AAn?$AAg?$AAa?$AAp?$AAo@ 0000000180067b50     libucrt:get_qualified_locale.obj
 0002:00009b78       ??_C@_1CI@PAJPIOOD@?$AAc?$AAh?$AAi?$AAn?$AAe?$AAs?$AAe?$AA?9?$AAt?$AAr?$AAa?$AAd?$AAi?$AAt?$AAi@ 0000000180067b78     libucrt:get_qualified_locale.obj
 0002:00009ba0       ??_C@_1BM@NILJBMMD@?$AAd?$AAu?$AAt?$AAc?$AAh?$AA?9?$AAb?$AAe?$AAl?$AAg?$AAi?$AAa?$AAn@ 0000000180067ba0     libucrt:get_qualified_locale.obj
 0002:00009bc0       ??_C@_1CC@OOJPJNEJ@?$AAe?$AAn?$AAg?$AAl?$AAi?$AAs?$AAh?$AA?9?$AAa?$AAm?$AAe?$AAr?$AAi?$AAc?$AAa@ 0000000180067bc0     libucrt:get_qualified_locale.obj
 0002:00009be8       ??_C@_1BI@IOLFEEM@?$AAe?$AAn?$AAg?$AAl?$AAi?$AAs?$AAh?$AA?9?$AAa?$AAu?$AAs@ 0000000180067be8     libucrt:get_qualified_locale.obj
 0002:00009c00       ??_C@_1BO@HFFNLENJ@?$AAe?$AAn?$AAg?$AAl?$AAi?$AAs?$AAh?$AA?9?$AAb?$AAe?$AAl?$AAi?$AAz?$AAe@ 0000000180067c00     libucrt:get_qualified_locale.obj
 0002:00009c20       ??_C@_1BI@HAPKJMPO@?$AAe?$AAn?$AAg?$AAl?$AAi?$AAs?$AAh?$AA?9?$AAc?$AAa?$AAn@ 0000000180067c20     libucrt:get_qualified_locale.obj
 0002:00009c38       ??_C@_1CE@HLNDMIOJ@?$AAe?$AAn?$AAg?$AAl?$AAi?$AAs?$AAh?$AA?9?$AAc?$AAa?$AAr?$AAi?$AAb?$AAb?$AAe@ 0000000180067c38     libucrt:get_qualified_locale.obj
 0002:00009c60       ??_C@_1BI@LDHJHHAC@?$AAe?$AAn?$AAg?$AAl?$AAi?$AAs?$AAh?$AA?9?$AAi?$AAr?$AAe@ 0000000180067c60     libucrt:get_qualified_locale.obj
 0002:00009c78       ??_C@_1CA@NJMMCFOC@?$AAe?$AAn?$AAg?$AAl?$AAi?$AAs?$AAh?$AA?9?$AAj?$AAa?$AAm?$AAa?$AAi?$AAc?$AAa@ 0000000180067c78     libucrt:get_qualified_locale.obj
 0002:00009c98       ??_C@_1BG@BHJEBBGG@?$AAe?$AAn?$AAg?$AAl?$AAi?$AAs?$AAh?$AA?9?$AAn?$AAz@ 0000000180067c98     libucrt:get_qualified_locale.obj
 0002:00009cb0       ??_C@_1CK@FGOEJJCO@?$AAe?$AAn?$AAg?$AAl?$AAi?$AAs?$AAh?$AA?9?$AAs?$AAo?$AAu?$AAt?$AAh?$AA?5?$AAa@ 0000000180067cb0     libucrt:get_qualified_locale.obj
 0002:00009ce0       ??_C@_1DE@PDBJPCJ@?$AAe?$AAn?$AAg?$AAl?$AAi?$AAs?$AAh?$AA?9?$AAt?$AAr?$AAi?$AAn?$AAi?$AAd?$AAa@ 0000000180067ce0     libucrt:get_qualified_locale.obj
 0002:00009d18       ??_C@_1BG@JGCANDME@?$AAe?$AAn?$AAg?$AAl?$AAi?$AAs?$AAh?$AA?9?$AAu?$AAk@ 0000000180067d18     libucrt:get_qualified_locale.obj
 0002:00009d30       ??_C@_1BG@DINKMLE@?$AAe?$AAn?$AAg?$AAl?$AAi?$AAs?$AAh?$AA?9?$AAu?$AAs@ 0000000180067d30     libucrt:get_qualified_locale.obj
 0002:00009d48       ??_C@_1BI@NMFDBHJE@?$AAe?$AAn?$AAg?$AAl?$AAi?$AAs?$AAh?$AA?9?$AAu?$AAs?$AAa@ 0000000180067d48     libucrt:get_qualified_locale.obj
 0002:00009d60       ??_C@_1BO@OIHKJKII@?$AAf?$AAr?$AAe?$AAn?$AAc?$AAh?$AA?9?$AAb?$AAe?$AAl?$AAg?$AAi?$AAa?$AAn@ 0000000180067d60     libucrt:get_qualified_locale.obj
 0002:00009d80       ??_C@_1CA@NKAELJKI@?$AAf?$AAr?$AAe?$AAn?$AAc?$AAh?$AA?9?$AAc?$AAa?$AAn?$AAa?$AAd?$AAi?$AAa?$AAn@ 0000000180067d80     libucrt:get_qualified_locale.obj
 0002:00009da0       ??_C@_1CE@MGKCNLGN@?$AAf?$AAr?$AAe?$AAn?$AAc?$AAh?$AA?9?$AAl?$AAu?$AAx?$AAe?$AAm?$AAb?$AAo?$AAu@ 0000000180067da0     libucrt:get_qualified_locale.obj
 0002:00009dc8       ??_C@_1BK@CEGEAILM@?$AAf?$AAr?$AAe?$AAn?$AAc?$AAh?$AA?9?$AAs?$AAw?$AAi?$AAs?$AAs@ 0000000180067dc8     libucrt:get_qualified_locale.obj
 0002:00009de8       ??_C@_1CA@PAFKEOCC@?$AAg?$AAe?$AAr?$AAm?$AAa?$AAn?$AA?9?$AAa?$AAu?$AAs?$AAt?$AAr?$AAi?$AAa?$AAn@ 0000000180067de8     libucrt:get_qualified_locale.obj
 0002:00009e08       ??_C@_1CI@HCFHGOFD@?$AAg?$AAe?$AAr?$AAm?$AAa?$AAn?$AA?9?$AAl?$AAi?$AAc?$AAh?$AAt?$AAe?$AAn?$AAs@ 0000000180067e08     libucrt:get_qualified_locale.obj
 0002:00009e30       ??_C@_1CE@FEDDNPDG@?$AAg?$AAe?$AAr?$AAm?$AAa?$AAn?$AA?9?$AAl?$AAu?$AAx?$AAe?$AAm?$AAb?$AAo?$AAu@ 0000000180067e30     libucrt:get_qualified_locale.obj
 0002:00009e58       ??_C@_1BK@LIMINNMN@?$AAg?$AAe?$AAr?$AAm?$AAa?$AAn?$AA?9?$AAs?$AAw?$AAi?$AAs?$AAs@ 0000000180067e58     libucrt:get_qualified_locale.obj
 0002:00009e78       ??_C@_1BM@LGMDBEPD@?$AAi?$AAr?$AAi?$AAs?$AAh?$AA?9?$AAe?$AAn?$AAg?$AAl?$AAi?$AAs?$AAh@ 0000000180067e78     libucrt:get_qualified_locale.obj
 0002:00009e98       ??_C@_1BM@NNCFBAEE@?$AAi?$AAt?$AAa?$AAl?$AAi?$AAa?$AAn?$AA?9?$AAs?$AAw?$AAi?$AAs?$AAs@ 0000000180067e98     libucrt:get_qualified_locale.obj
 0002:00009eb8       ??_C@_1BE@FEDJNPIB@?$AAn?$AAo?$AAr?$AAw?$AAe?$AAg?$AAi?$AAa?$AAn@ 0000000180067eb8     libucrt:get_qualified_locale.obj
 0002:00009ed0       ??_C@_1CC@CILKDEIE@?$AAn?$AAo?$AAr?$AAw?$AAe?$AAg?$AAi?$AAa?$AAn?$AA?9?$AAb?$AAo?$AAk?$AAm?$AAa@ 0000000180067ed0     libucrt:get_qualified_locale.obj
 0002:00009ef8       ??_C@_1CE@DHMMHEPL@?$AAn?$AAo?$AAr?$AAw?$AAe?$AAg?$AAi?$AAa?$AAn?$AA?9?$AAn?$AAy?$AAn?$AAo?$AAr@ 0000000180067ef8     libucrt:get_qualified_locale.obj
 0002:00009f20       ??_C@_1CK@OPNMHECD@?$AAp?$AAo?$AAr?$AAt?$AAu?$AAg?$AAu?$AAe?$AAs?$AAe?$AA?9?$AAb?$AAr?$AAa?$AAz@ 0000000180067f20     libucrt:get_qualified_locale.obj
 0002:00009f50       ??_C@_1CE@KEEHCDB@?$AAs?$AAp?$AAa?$AAn?$AAi?$AAs?$AAh?$AA?9?$AAa?$AAr?$AAg?$AAe?$AAn?$AAt?$AAi@ 0000000180067f50     libucrt:get_qualified_locale.obj
 0002:00009f78       ??_C@_1CA@GIAOLHJD@?$AAs?$AAp?$AAa?$AAn?$AAi?$AAs?$AAh?$AA?9?$AAb?$AAo?$AAl?$AAi?$AAv?$AAi?$AAa@ 0000000180067f78     libucrt:get_qualified_locale.obj
 0002:00009f98       ??_C@_1BM@OJNDFNPD@?$AAs?$AAp?$AAa?$AAn?$AAi?$AAs?$AAh?$AA?9?$AAc?$AAh?$AAi?$AAl?$AAe@ 0000000180067f98     libucrt:get_qualified_locale.obj
 0002:00009fb8       ??_C@_1CC@OCOLPALL@?$AAs?$AAp?$AAa?$AAn?$AAi?$AAs?$AAh?$AA?9?$AAc?$AAo?$AAl?$AAo?$AAm?$AAb?$AAi@ 0000000180067fb8     libucrt:get_qualified_locale.obj
 0002:00009fe0       ??_C@_1CG@BPOFMKBB@?$AAs?$AAp?$AAa?$AAn?$AAi?$AAs?$AAh?$AA?9?$AAc?$AAo?$AAs?$AAt?$AAa?$AA?5?$AAr@ 0000000180067fe0     libucrt:get_qualified_locale.obj
 0002:0000a008       ??_C@_1DG@IGOBAPBB@?$AAs?$AAp?$AAa?$AAn?$AAi?$AAs?$AAh?$AA?9?$AAd?$AAo?$AAm?$AAi?$AAn?$AAi?$AAc@ 0000000180068008     libucrt:get_qualified_locale.obj
 0002:0000a040       ??_C@_1CA@JHAPGEGI@?$AAs?$AAp?$AAa?$AAn?$AAi?$AAs?$AAh?$AA?9?$AAe?$AAc?$AAu?$AAa?$AAd?$AAo?$AAr@ 0000000180068040     libucrt:get_qualified_locale.obj
 0002:0000a060       ??_C@_1CI@LAPALJPP@?$AAs?$AAp?$AAa?$AAn?$AAi?$AAs?$AAh?$AA?9?$AAe?$AAl?$AA?5?$AAs?$AAa?$AAl?$AAv@ 0000000180068060     libucrt:get_qualified_locale.obj
 0002:0000a088       ??_C@_1CE@PDGBOFOM@?$AAs?$AAp?$AAa?$AAn?$AAi?$AAs?$AAh?$AA?9?$AAg?$AAu?$AAa?$AAt?$AAe?$AAm?$AAa@ 0000000180068088     libucrt:get_qualified_locale.obj
 0002:0000a0b0       ??_C@_1CC@NBEBAODI@?$AAs?$AAp?$AAa?$AAn?$AAi?$AAs?$AAh?$AA?9?$AAh?$AAo?$AAn?$AAd?$AAu?$AAr?$AAa@ 00000001800680b0     libucrt:get_qualified_locale.obj
 0002:0000a0d8       ??_C@_1CA@LLKGHBMF@?$AAs?$AAp?$AAa?$AAn?$AAi?$AAs?$AAh?$AA?9?$AAm?$AAe?$AAx?$AAi?$AAc?$AAa?$AAn@ 00000001800680d8     libucrt:get_qualified_locale.obj
 0002:0000a0f8       ??_C@_1BO@LKNDOIGD@?$AAs?$AAp?$AAa?$AAn?$AAi?$AAs?$AAh?$AA?9?$AAm?$AAo?$AAd?$AAe?$AAr?$AAn@ 00000001800680f8     libucrt:get_qualified_locale.obj
 0002:0000a118       ??_C@_1CE@NMDMOEEB@?$AAs?$AAp?$AAa?$AAn?$AAi?$AAs?$AAh?$AA?9?$AAn?$AAi?$AAc?$AAa?$AAr?$AAa?$AAg@ 0000000180068118     libucrt:get_qualified_locale.obj
 0002:0000a140       ??_C@_1BO@LLCBEJGB@?$AAs?$AAp?$AAa?$AAn?$AAi?$AAs?$AAh?$AA?9?$AAp?$AAa?$AAn?$AAa?$AAm?$AAa@ 0000000180068140     libucrt:get_qualified_locale.obj
 0002:0000a160       ??_C@_1CC@FKPGGIHO@?$AAs?$AAp?$AAa?$AAn?$AAi?$AAs?$AAh?$AA?9?$AAp?$AAa?$AAr?$AAa?$AAg?$AAu?$AAa@ 0000000180068160     libucrt:get_qualified_locale.obj
 0002:0000a188       ??_C@_1BK@CDEIHOOP@?$AAs?$AAp?$AAa?$AAn?$AAi?$AAs?$AAh?$AA?9?$AAp?$AAe?$AAr?$AAu@ 0000000180068188     libucrt:get_qualified_locale.obj
 0002:0000a1a8       ??_C@_1CI@GAHAKKGP@?$AAs?$AAp?$AAa?$AAn?$AAi?$AAs?$AAh?$AA?9?$AAp?$AAu?$AAe?$AAr?$AAt?$AAo?$AA?5@ 00000001800681a8     libucrt:get_qualified_locale.obj
 0002:0000a1d0       ??_C@_1CA@NKJBCAGP@?$AAs?$AAp?$AAa?$AAn?$AAi?$AAs?$AAh?$AA?9?$AAu?$AAr?$AAu?$AAg?$AAu?$AAa?$AAy@ 00000001800681d0     libucrt:get_qualified_locale.obj
 0002:0000a1f0       ??_C@_1CE@ODILCONM@?$AAs?$AAp?$AAa?$AAn?$AAi?$AAs?$AAh?$AA?9?$AAv?$AAe?$AAn?$AAe?$AAz?$AAu?$AAe@ 00000001800681f0     libucrt:get_qualified_locale.obj
 0002:0000a218       ??_C@_1CA@OBNMCGFO@?$AAs?$AAw?$AAe?$AAd?$AAi?$AAs?$AAh?$AA?9?$AAf?$AAi?$AAn?$AAl?$AAa?$AAn?$AAd@ 0000000180068218     libucrt:get_qualified_locale.obj
 0002:0000a238       ??_C@_1M@PIPDDPPI@?$AAs?$AAw?$AAi?$AAs?$AAs@ 0000000180068238     libucrt:get_qualified_locale.obj
 0002:0000a244       ??_C@_15PJPFLCCM@?$AAu?$AAk@ 0000000180068244     libucrt:get_qualified_locale.obj
 0002:0000a24c       ??_C@_15GMFIMNFM@?$AAu?$AAs@ 000000018006824c     libucrt:get_qualified_locale.obj
 0002:0000a258       ??_C@_17HAEBFAGL@?$AAu?$AAs?$AAa@ 0000000180068258     libucrt:get_qualified_locale.obj
 0002:0000a260       ??_C@_1BA@DPFJEPHB@?$AAa?$AAm?$AAe?$AAr?$AAi?$AAc?$AAa@ 0000000180068260     libucrt:get_qualified_locale.obj
 0002:0000a270       ??_C@_1BA@ELOGGFK@?$AAb?$AAr?$AAi?$AAt?$AAa?$AAi?$AAn@ 0000000180068270     libucrt:get_qualified_locale.obj
 0002:0000a280       ??_C@_1M@GHBGIGDA@?$AAc?$AAh?$AAi?$AAn?$AAa@ 0000000180068280     libucrt:get_qualified_locale.obj
 0002:0000a290       ??_C@_1M@NCHEJOPO@?$AAc?$AAz?$AAe?$AAc?$AAh@ 0000000180068290     libucrt:get_qualified_locale.obj
 0002:0000a2a0       ??_C@_1BA@BKPAPBLA@?$AAe?$AAn?$AAg?$AAl?$AAa?$AAn?$AAd@ 00000001800682a0     libucrt:get_qualified_locale.obj
 0002:0000a2b0       ??_C@_1BM@HKBCKIPC@?$AAg?$AAr?$AAe?$AAa?$AAt?$AA?5?$AAb?$AAr?$AAi?$AAt?$AAa?$AAi?$AAn@ 00000001800682b0     libucrt:get_qualified_locale.obj
 0002:0000a2d0       ??_C@_1BA@PPCHPGJB@?$AAh?$AAo?$AAl?$AAl?$AAa?$AAn?$AAd@ 00000001800682d0     libucrt:get_qualified_locale.obj
 0002:0000a2e0       ??_C@_1BE@JBMPEGDG@?$AAh?$AAo?$AAn?$AAg?$AA?9?$AAk?$AAo?$AAn?$AAg@ 00000001800682e0     libucrt:get_qualified_locale.obj
 0002:0000a2f8       ??_C@_1BI@KOELBBPJ@?$AAn?$AAe?$AAw?$AA?9?$AAz?$AAe?$AAa?$AAl?$AAa?$AAn?$AAd@ 00000001800682f8     libucrt:get_qualified_locale.obj
 0002:0000a310       ??_C@_15HIEBHAIO@?$AAn?$AAz@ 0000000180068310     libucrt:get_qualified_locale.obj
 0002:0000a318       ??_C@_1BC@CHBCPFPI@?$AAp?$AAr?$AA?5?$AAc?$AAh?$AAi?$AAn?$AAa@ 0000000180068318     libucrt:get_qualified_locale.obj
 0002:0000a330       ??_C@_1BC@JAOIIFKD@?$AAp?$AAr?$AA?9?$AAc?$AAh?$AAi?$AAn?$AAa@ 0000000180068330     libucrt:get_qualified_locale.obj
 0002:0000a348       ??_C@_1BI@BEHPPHKC@?$AAp?$AAu?$AAe?$AAr?$AAt?$AAo?$AA?9?$AAr?$AAi?$AAc?$AAo@ 0000000180068348     libucrt:get_qualified_locale.obj
 0002:0000a360       ??_C@_1O@PAEOFKDI@?$AAs?$AAl?$AAo?$AAv?$AAa?$AAk@ 0000000180068360     libucrt:get_qualified_locale.obj
 0002:0000a370       ??_C@_1BK@FIHMCKAM@?$AAs?$AAo?$AAu?$AAt?$AAh?$AA?5?$AAa?$AAf?$AAr?$AAi?$AAc?$AAa@ 0000000180068370     libucrt:get_qualified_locale.obj
 0002:0000a390       ??_C@_1BI@NAEOODKB@?$AAs?$AAo?$AAu?$AAt?$AAh?$AA?5?$AAk?$AAo?$AAr?$AAe?$AAa@ 0000000180068390     libucrt:get_qualified_locale.obj
 0002:0000a3a8       ??_C@_1BK@FBDGGIFF@?$AAs?$AAo?$AAu?$AAt?$AAh?$AA?9?$AAa?$AAf?$AAr?$AAi?$AAc?$AAa@ 00000001800683a8     libucrt:get_qualified_locale.obj
 0002:0000a3c8       ??_C@_1BI@GHLEJDPK@?$AAs?$AAo?$AAu?$AAt?$AAh?$AA?9?$AAk?$AAo?$AAr?$AAe?$AAa@ 00000001800683c8     libucrt:get_qualified_locale.obj
 0002:0000a3e0       ??_C@_1CE@PLHLOMJF@?$AAt?$AAr?$AAi?$AAn?$AAi?$AAd?$AAa?$AAd?$AA?5?$AA?$CG?$AA?5?$AAt?$AAo?$AAb?$AAa@ 00000001800683e0     libucrt:get_qualified_locale.obj
 0002:0000a408       ??_C@_1BO@MODIMHHI@?$AAu?$AAn?$AAi?$AAt?$AAe?$AAd?$AA?9?$AAk?$AAi?$AAn?$AAg?$AAd?$AAo?$AAm@ 0000000180068408     libucrt:get_qualified_locale.obj
 0002:0000a428       ??_C@_1BM@FFHJONBJ@?$AAu?$AAn?$AAi?$AAt?$AAe?$AAd?$AA?9?$AAs?$AAt?$AAa?$AAt?$AAe?$AAs@ 0000000180068428     libucrt:get_qualified_locale.obj
 0002:0000a448       ??_C@_19MPDNHKDG@?$AAu?$AAt?$AAf?$AA8@ 0000000180068448     libucrt:get_qualified_locale.obj
 0002:0000a458       ??_C@_17DNCLJFIF@?$AAA?$AAC?$AAP@ 0000000180068458     libucrt:get_qualified_locale.obj
 0002:0000a460       ??_C@_1M@FPEIIFAM@?$AAu?$AAt?$AAf?$AA?9?$AA8@ 0000000180068460     libucrt:get_qualified_locale.obj
 0002:0000a470       ??_C@_17CIKBIHLH@?$AAO?$AAC?$AAP@ 0000000180068470     libucrt:get_qualified_locale.obj
 0002:0000a478       __rglangidNotDefault       0000000180068478     libucrt:getqloc_downlevel.obj
 0002:0000b300       ??_C@_15EMKDOKLE@?$AAa?$AAr@ 0000000180069300     libucrt:lcidtoname_downlevel.obj
 0002:0000b308       ??_C@_15KNPADPLH@?$AAb?$AAg@ 0000000180069308     libucrt:lcidtoname_downlevel.obj
 0002:0000b310       ??_C@_15EDMHLDMO@?$AAc?$AAa@ 0000000180069310     libucrt:lcidtoname_downlevel.obj
 0002:0000b318       ??_C@_1O@BPEAJADD@?$AAz?$AAh?$AA?9?$AAC?$AAH?$AAS@ 0000000180069318     libucrt:lcidtoname_downlevel.obj
 0002:0000b328       ??_C@_15LJNHCMNK@?$AAc?$AAs@ 0000000180069328     libucrt:lcidtoname_downlevel.obj
 0002:0000b330       ??_C@_15FOMCIDHG@?$AAd?$AAa@ 0000000180069330     libucrt:lcidtoname_downlevel.obj
 0002:0000b338       ??_C@_15NBKABECB@?$AAd?$AAe@ 0000000180069338     libucrt:lcidtoname_downlevel.obj
 0002:0000b340       ??_C@_15GHPEIIAO@?$AAe?$AAl@ 0000000180069340     libucrt:lcidtoname_downlevel.obj
 0002:0000b348       ??_C@_15MNPNEAIF@?$AAe?$AAn@ 0000000180069348     libucrt:lcidtoname_downlevel.obj
 0002:0000b350       ??_C@_15GPIOMPMH@?$AAe?$AAs@ 0000000180069350     libucrt:lcidtoname_downlevel.obj
 0002:0000b358       ??_C@_15NGLOAKJC@?$AAf?$AAi@ 0000000180069358     libucrt:lcidtoname_downlevel.obj
 0002:0000b360       ??_C@_15FBKGNKAM@?$AAf?$AAr@ 0000000180069360     libucrt:lcidtoname_downlevel.obj
 0002:0000b368       ??_C@_15KGGCNEFK@?$AAh?$AAe@ 0000000180069368     libucrt:lcidtoname_downlevel.obj
 0002:0000b370       ??_C@_15PGHLIDMF@?$AAh?$AAu@ 0000000180069370     libucrt:lcidtoname_downlevel.obj
 0002:0000b378       ??_C@_15BIEMAPLM@?$AAi?$AAs@ 0000000180069378     libucrt:lcidtoname_downlevel.obj
 0002:0000b380       ??_C@_15IFJLDHAF@?$AAi?$AAt@ 0000000180069380     libucrt:lcidtoname_downlevel.obj
 0002:0000b388       ??_C@_15GEMIOCAG@?$AAj?$AAa@ 0000000180069388     libucrt:lcidtoname_downlevel.obj
 0002:0000b390       ??_C@_15EPELEGJA@?$AAk?$AAo@ 0000000180069390     libucrt:lcidtoname_downlevel.obj
 0002:0000b398       ??_C@_15NDDHIMN@?$AAn?$AAl@ 0000000180069398     libucrt:lcidtoname_downlevel.obj
 0002:0000b3a0       ??_C@_15BPIGNHCD@?$AAn?$AAo@ 00000001800693a0     libucrt:lcidtoname_downlevel.obj
 0002:0000b3a8       ??_C@_15DEOPBLCG@?$AAp?$AAl@ 00000001800693a8     libucrt:lcidtoname_downlevel.obj
 0002:0000b3b0       ??_C@_15KBECGEFG@?$AAp?$AAt@ 00000001800693b0     libucrt:lcidtoname_downlevel.obj
 0002:0000b3b8       ??_C@_15GLJCBFMD@?$AAr?$AAo@ 00000001800693b8     libucrt:lcidtoname_downlevel.obj
 0002:0000b3c0       ??_C@_15FEDGKCDI@?$AAr?$AAu@ 00000001800693c0     libucrt:lcidtoname_downlevel.obj
 0002:0000b3c8       ??_C@_15GLKMLLHM@?$AAh?$AAr@ 00000001800693c8     libucrt:lcidtoname_downlevel.obj
 0002:0000b3d0       ??_C@_15CPKMFBDB@?$AAs?$AAk@ 00000001800693d0     libucrt:lcidtoname_downlevel.obj
 0002:0000b3d8       ??_C@_15BAAIOGMK@?$AAs?$AAq@ 00000001800693d8     libucrt:lcidtoname_downlevel.obj
 0002:0000b3e0       ??_C@_15INNPNOHD@?$AAs?$AAv@ 00000001800693e0     libucrt:lcidtoname_downlevel.obj
 0002:0000b3e8       ??_C@_15CABMMOGH@?$AAt?$AAh@ 00000001800693e8     libucrt:lcidtoname_downlevel.obj
 0002:0000b3f0       ??_C@_15BPLIHJJM@?$AAt?$AAr@ 00000001800693f0     libucrt:lcidtoname_downlevel.obj
 0002:0000b3f8       ??_C@_15NEOEKKDJ@?$AAu?$AAr@ 00000001800693f8     libucrt:lcidtoname_downlevel.obj
 0002:0000b400       ??_C@_15NFICGAJK@?$AAi?$AAd@ 0000000180069400     libucrt:lcidtoname_downlevel.obj
 0002:0000b408       ??_C@_15HPJPHDM@?$AAb?$AAe@ 0000000180069408     libucrt:lcidtoname_downlevel.obj
 0002:0000b410       ??_C@_15LCHLGJII@?$AAs?$AAl@ 0000000180069410     libucrt:lcidtoname_downlevel.obj
 0002:0000b418       ??_C@_15PCFJPHHO@?$AAe?$AAt@ 0000000180069418     libucrt:lcidtoname_downlevel.obj
 0002:0000b420       ??_C@_15HPFPGODN@?$AAl?$AAv@ 0000000180069420     libucrt:lcidtoname_downlevel.obj
 0002:0000b428       ??_C@_15NFFGKGLG@?$AAl?$AAt@ 0000000180069428     libucrt:lcidtoname_downlevel.obj
 0002:0000b430       ??_C@_15BDAKCCHN@?$AAf?$AAa@ 0000000180069430     libucrt:lcidtoname_downlevel.obj
 0002:0000b438       ??_C@_15NFGIAIAJ@?$AAv?$AAi@ 0000000180069438     libucrt:lcidtoname_downlevel.obj
 0002:0000b440       ??_C@_15LMKNDMHN@?$AAh?$AAy@ 0000000180069440     libucrt:lcidtoname_downlevel.obj
 0002:0000b448       ??_C@_15IJBHMCFL@?$AAa?$AAz@ 0000000180069448     libucrt:lcidtoname_downlevel.obj
 0002:0000b450       ??_C@_15EKOFJABL@?$AAe?$AAu@ 0000000180069450     libucrt:lcidtoname_downlevel.obj
 0002:0000b458       ??_C@_15BGHADCNK@?$AAm?$AAk@ 0000000180069458     libucrt:lcidtoname_downlevel.obj
 0002:0000b460       ??_C@_15JDNICKHM@?$AAa?$AAf@ 0000000180069460     libucrt:lcidtoname_downlevel.obj
 0002:0000b468       ??_C@_15KPJEDBKD@?$AAk?$AAa@ 0000000180069468     libucrt:lcidtoname_downlevel.obj
 0002:0000b470       ??_C@_15PDNFFFEO@?$AAf?$AAo@ 0000000180069470     libucrt:lcidtoname_downlevel.obj
 0002:0000b478       ??_C@_15OMLEGLOC@?$AAh?$AAi@ 0000000180069478     libucrt:lcidtoname_downlevel.obj
 0002:0000b480       ??_C@_15IDNNENKK@?$AAm?$AAs@ 0000000180069480     libucrt:lcidtoname_downlevel.obj
 0002:0000b488       ??_C@_15MACJNBMH@?$AAk?$AAk@ 0000000180069488     libucrt:lcidtoname_downlevel.obj
 0002:0000b490       ??_C@_15DKDJEOND@?$AAk?$AAy@ 0000000180069490     libucrt:lcidtoname_downlevel.obj
 0002:0000b498       ??_C@_15DFGDLJBG@?$AAs?$AAw@ 0000000180069498     libucrt:lcidtoname_downlevel.obj
 0002:0000b4a0       ??_C@_15BBFAICNG@?$AAu?$AAz@ 00000001800694a0     libucrt:lcidtoname_downlevel.obj
 0002:0000b4a8       ??_C@_15DKNDCGEA@?$AAt?$AAt@ 00000001800694a8     libucrt:lcidtoname_downlevel.obj
 0002:0000b4b0       ??_C@_15MGIFMDPL@?$AAp?$AAa@ 00000001800694b0     libucrt:lcidtoname_downlevel.obj
 0002:0000b4b8       ??_C@_15HCNDBBA@?$AAg?$AAu@ 00000001800694b8     libucrt:lcidtoname_downlevel.obj
 0002:0000b4c0       ??_C@_15FNBEIBON@?$AAt?$AAa@ 00000001800694c0     libucrt:lcidtoname_downlevel.obj
 0002:0000b4c8       ??_C@_15NCHGBGLK@?$AAt?$AAe@ 00000001800694c8     libucrt:lcidtoname_downlevel.obj
 0002:0000b4d0       ??_C@_15PHPHCBPF@?$AAk?$AAn@ 00000001800694d0     libucrt:lcidtoname_downlevel.obj
 0002:0000b4d8       ??_C@_15DLGBCKMP@?$AAm?$AAr@ 00000001800694d8     libucrt:lcidtoname_downlevel.obj
 0002:0000b4e0       ??_C@_15EABBLBFF@?$AAs?$AAa@ 00000001800694e0     libucrt:lcidtoname_downlevel.obj
 0002:0000b4e8       ??_C@_15CBKOMCOI@?$AAm?$AAn@ 00000001800694e8     libucrt:lcidtoname_downlevel.obj
 0002:0000b4f0       ??_C@_15CKDMCJAF@?$AAg?$AAl@ 00000001800694f0     libucrt:lcidtoname_downlevel.obj
 0002:0000b4f8       ??_C@_17CNJFBPG@?$AAk?$AAo?$AAk@ 00000001800694f8     libucrt:lcidtoname_downlevel.obj
 0002:0000b500       ??_C@_17FFBJICPL@?$AAs?$AAy?$AAr@ 0000000180069500     libucrt:lcidtoname_downlevel.obj
 0002:0000b508       ??_C@_17KPNDCPAF@?$AAd?$AAi?$AAv@ 0000000180069508     libucrt:lcidtoname_downlevel.obj
 0002:0000b510       ??_C@_1M@OKAHONE@?$AAa?$AAr?$AA?9?$AAS?$AAA@ 0000000180069510     libucrt:lcidtoname_downlevel.obj
 0002:0000b520       ??_C@_1M@FFFIGIGK@?$AAb?$AAg?$AA?9?$AAB?$AAG@ 0000000180069520     libucrt:lcidtoname_downlevel.obj
 0002:0000b530       ??_C@_1M@BJNKEDC@?$AAc?$AAa?$AA?9?$AAE?$AAS@ 0000000180069530     libucrt:lcidtoname_downlevel.obj
 0002:0000b540       ??_C@_1M@IJJHFJHA@?$AAc?$AAs?$AA?9?$AAC?$AAZ@ 0000000180069540     libucrt:lcidtoname_downlevel.obj
 0002:0000b550       ??_C@_1M@CLPEOBGI@?$AAd?$AAa?$AA?9?$AAD?$AAK@ 0000000180069550     libucrt:lcidtoname_downlevel.obj
 0002:0000b560       ??_C@_1M@MCMADGCB@?$AAd?$AAe?$AA?9?$AAD?$AAE@ 0000000180069560     libucrt:lcidtoname_downlevel.obj
 0002:0000b570       ??_C@_1M@OOCKEMAM@?$AAe?$AAl?$AA?9?$AAG?$AAR@ 0000000180069570     libucrt:lcidtoname_downlevel.obj
 0002:0000b580       ??_C@_1M@DDNJFGID@?$AAf?$AAi?$AA?9?$AAF?$AAI@ 0000000180069580     libucrt:lcidtoname_downlevel.obj
 0002:0000b590       ??_C@_1M@GLIPPMAC@?$AAf?$AAr?$AA?9?$AAF?$AAR@ 0000000180069590     libucrt:lcidtoname_downlevel.obj
 0002:0000b5a0       ??_C@_1M@GFMCHPE@?$AAh?$AAe?$AA?9?$AAI?$AAL@ 00000001800695a0     libucrt:lcidtoname_downlevel.obj
 0002:0000b5b0       ??_C@_1M@MHLPGNKM@?$AAh?$AAu?$AA?9?$AAH?$AAU@ 00000001800695b0     libucrt:lcidtoname_downlevel.obj
 0002:0000b5c0       ??_C@_1M@LPDDNNPN@?$AAi?$AAs?$AA?9?$AAI?$AAS@ 00000001800695c0     libucrt:lcidtoname_downlevel.obj
 0002:0000b5d0       ??_C@_1M@MADIPODN@?$AAi?$AAt?$AA?9?$AAI?$AAT@ 00000001800695d0     libucrt:lcidtoname_downlevel.obj
 0002:0000b5e0       ??_C@_1M@IHBJJGG@?$AAn?$AAl?$AA?9?$AAN?$AAL@ 00000001800695e0     libucrt:lcidtoname_downlevel.obj
 0002:0000b5f0       ??_C@_1M@EANAGDL@?$AAn?$AAb?$AA?9?$AAN?$AAO@ 00000001800695f0     libucrt:lcidtoname_downlevel.obj
 0002:0000b600       ??_C@_1M@NEIEMEGP@?$AAp?$AAl?$AA?9?$AAP?$AAL@ 0000000180069600     libucrt:lcidtoname_downlevel.obj
 0002:0000b610       ??_C@_1M@BOCFIGEP@?$AAp?$AAt?$AA?9?$AAB?$AAR@ 0000000180069610     libucrt:lcidtoname_downlevel.obj
 0002:0000b620       ??_C@_1M@IMPFOPBG@?$AAr?$AAo?$AA?9?$AAR?$AAO@ 0000000180069620     libucrt:lcidtoname_downlevel.obj
 0002:0000b630       ??_C@_1M@IDNNEJMM@?$AAr?$AAu?$AA?9?$AAR?$AAU@ 0000000180069630     libucrt:lcidtoname_downlevel.obj
 0002:0000b640       ??_C@_1M@LILEEOGM@?$AAh?$AAr?$AA?9?$AAH?$AAR@ 0000000180069640     libucrt:lcidtoname_downlevel.obj
 0002:0000b650       ??_C@_1M@FKIFEHPB@?$AAs?$AAk?$AA?9?$AAS?$AAK@ 0000000180069650     libucrt:lcidtoname_downlevel.obj
 0002:0000b660       ??_C@_1M@LJMAMNPJ@?$AAs?$AAq?$AA?9?$AAA?$AAL@ 0000000180069660     libucrt:lcidtoname_downlevel.obj
 0002:0000b670       ??_C@_1M@GIAKDKJK@?$AAs?$AAv?$AA?9?$AAS?$AAE@ 0000000180069670     libucrt:lcidtoname_downlevel.obj
 0002:0000b680       ??_C@_1M@MKJKIKCL@?$AAt?$AAh?$AA?9?$AAT?$AAH@ 0000000180069680     libucrt:lcidtoname_downlevel.obj
 0002:0000b690       ??_C@_1M@MFLCCMPB@?$AAt?$AAr?$AA?9?$AAT?$AAR@ 0000000180069690     libucrt:lcidtoname_downlevel.obj
 0002:0000b6a0       ??_C@_1M@OIJHDKJN@?$AAu?$AAr?$AA?9?$AAP?$AAK@ 00000001800696a0     libucrt:lcidtoname_downlevel.obj
 0002:0000b6b0       ??_C@_1M@LHIPCIEK@?$AAi?$AAd?$AA?9?$AAI?$AAD@ 00000001800696b0     libucrt:lcidtoname_downlevel.obj
 0002:0000b6c0       ??_C@_1M@MFMOBGI@?$AAu?$AAk?$AA?9?$AAU?$AAA@ 00000001800696c0     libucrt:lcidtoname_downlevel.obj
 0002:0000b6d0       ??_C@_1M@OBGLJIPL@?$AAb?$AAe?$AA?9?$AAB?$AAY@ 00000001800696d0     libucrt:lcidtoname_downlevel.obj
 0002:0000b6e0       ??_C@_1M@BCFAJEAD@?$AAs?$AAl?$AA?9?$AAS?$AAI@ 00000001800696e0     libucrt:lcidtoname_downlevel.obj
 0002:0000b6f0       ??_C@_1M@FKFFEDDN@?$AAe?$AAt?$AA?9?$AAE?$AAE@ 00000001800696f0     libucrt:lcidtoname_downlevel.obj
 0002:0000b700       ??_C@_1M@KGKKAACI@?$AAl?$AAv?$AA?9?$AAL?$AAV@ 0000000180069700     libucrt:lcidtoname_downlevel.obj
 0002:0000b710       ??_C@_1M@IFGBIJO@?$AAl?$AAt?$AA?9?$AAL?$AAT@ 0000000180069710     libucrt:lcidtoname_downlevel.obj
 0002:0000b720       ??_C@_1M@FGEAHEDM@?$AAf?$AAa?$AA?9?$AAI?$AAR@ 0000000180069720     libucrt:lcidtoname_downlevel.obj
 0002:0000b730       ??_C@_1M@KBMAIBFN@?$AAv?$AAi?$AA?9?$AAV?$AAN@ 0000000180069730     libucrt:lcidtoname_downlevel.obj
 0002:0000b740       ??_C@_1M@GPCBKDJK@?$AAh?$AAy?$AA?9?$AAA?$AAM@ 0000000180069740     libucrt:lcidtoname_downlevel.obj
 0002:0000b750       ??_C@_1BG@BECMDDJB@?$AAa?$AAz?$AA?9?$AAA?$AAZ?$AA?9?$AAL?$AAa?$AAt?$AAn@ 0000000180069750     libucrt:lcidtoname_downlevel.obj
 0002:0000b768       ??_C@_1M@MAOFCAEA@?$AAe?$AAu?$AA?9?$AAE?$AAS@ 0000000180069768     libucrt:lcidtoname_downlevel.obj
 0002:0000b778       ??_C@_1M@IGHABKPI@?$AAm?$AAk?$AA?9?$AAM?$AAK@ 0000000180069778     libucrt:lcidtoname_downlevel.obj
 0002:0000b788       ??_C@_1M@IAIGNEJG@?$AAt?$AAn?$AA?9?$AAZ?$AAA@ 0000000180069788     libucrt:lcidtoname_downlevel.obj
 0002:0000b798       ??_C@_1M@IIJCOJFA@?$AAx?$AAh?$AA?9?$AAZ?$AAA@ 0000000180069798     libucrt:lcidtoname_downlevel.obj
 0002:0000b7a8       ??_C@_1M@LGPJHNJH@?$AAz?$AAu?$AA?9?$AAZ?$AAA@ 00000001800697a8     libucrt:lcidtoname_downlevel.obj
 0002:0000b7b8       ??_C@_1M@HOKAOIO@?$AAa?$AAf?$AA?9?$AAZ?$AAA@ 00000001800697b8     libucrt:lcidtoname_downlevel.obj
 0002:0000b7c8       ??_C@_1M@DPCLHLIE@?$AAk?$AAa?$AA?9?$AAG?$AAE@ 00000001800697c8     libucrt:lcidtoname_downlevel.obj
 0002:0000b7d8       ??_C@_1M@BLKMHJBI@?$AAf?$AAo?$AA?9?$AAF?$AAO@ 00000001800697d8     libucrt:lcidtoname_downlevel.obj
 0002:0000b7e8       ??_C@_1M@LGGJAPPB@?$AAh?$AAi?$AA?9?$AAI?$AAN@ 00000001800697e8     libucrt:lcidtoname_downlevel.obj
 0002:0000b7f8       ??_C@_1M@FIKPIHFE@?$AAm?$AAt?$AA?9?$AAM?$AAT@ 00000001800697f8     libucrt:lcidtoname_downlevel.obj
 0002:0000b808       ??_C@_1M@HEGGPBFA@?$AAs?$AAe?$AA?9?$AAN?$AAO@ 0000000180069808     libucrt:lcidtoname_downlevel.obj
 0002:0000b818       ??_C@_1M@EIBJEEPA@?$AAm?$AAs?$AA?9?$AAM?$AAY@ 0000000180069818     libucrt:lcidtoname_downlevel.obj
 0002:0000b828       ??_C@_1M@FHLBGMPP@?$AAk?$AAk?$AA?9?$AAK?$AAZ@ 0000000180069828     libucrt:lcidtoname_downlevel.obj
 0002:0000b838       ??_C@_1M@NGJJLCGI@?$AAk?$AAy?$AA?9?$AAK?$AAG@ 0000000180069838     libucrt:lcidtoname_downlevel.obj
 0002:0000b848       ??_C@_1M@GIENNBFC@?$AAs?$AAw?$AA?9?$AAK?$AAE@ 0000000180069848     libucrt:lcidtoname_downlevel.obj
 0002:0000b858       ??_C@_1BG@NDGMJIMJ@?$AAu?$AAz?$AA?9?$AAU?$AAZ?$AA?9?$AAL?$AAa?$AAt?$AAn@ 0000000180069858     libucrt:lcidtoname_downlevel.obj
 0002:0000b870       ??_C@_1M@IDCCIHBC@?$AAt?$AAt?$AA?9?$AAR?$AAU@ 0000000180069870     libucrt:lcidtoname_downlevel.obj
 0002:0000b880       ??_C@_1M@LOICPMOJ@?$AAb?$AAn?$AA?9?$AAI?$AAN@ 0000000180069880     libucrt:lcidtoname_downlevel.obj
 0002:0000b890       ??_C@_1M@KPKKNEAH@?$AAp?$AAa?$AA?9?$AAI?$AAN@ 0000000180069890     libucrt:lcidtoname_downlevel.obj
 0002:0000b8a0       ??_C@_1M@PJGPPBOG@?$AAg?$AAu?$AA?9?$AAI?$AAN@ 00000001800698a0     libucrt:lcidtoname_downlevel.obj
 0002:0000b8b0       ??_C@_1M@KMKMOPHI@?$AAt?$AAa?$AA?9?$AAI?$AAN@ 00000001800698b0     libucrt:lcidtoname_downlevel.obj
 0002:0000b8c0       ??_C@_1M@KFEHEPAC@?$AAt?$AAe?$AA?9?$AAI?$AAN@ 00000001800698c0     libucrt:lcidtoname_downlevel.obj
 0002:0000b8d0       ??_C@_1M@CDCLMGHI@?$AAk?$AAn?$AA?9?$AAI?$AAN@ 00000001800698d0     libucrt:lcidtoname_downlevel.obj
 0002:0000b8e0       ??_C@_1M@MIODLDKF@?$AAm?$AAl?$AA?9?$AAI?$AAN@ 00000001800698e0     libucrt:lcidtoname_downlevel.obj
 0002:0000b8f0       ??_C@_1M@PBIEACPO@?$AAm?$AAr?$AA?9?$AAI?$AAN@ 00000001800698f0     libucrt:lcidtoname_downlevel.obj
 0002:0000b900       ??_C@_1M@NIDEAGPH@?$AAs?$AAa?$AA?9?$AAI?$AAN@ 0000000180069900     libucrt:lcidtoname_downlevel.obj
 0002:0000b910       ??_C@_1M@FHIHCBIO@?$AAm?$AAn?$AA?9?$AAM?$AAN@ 0000000180069910     libucrt:lcidtoname_downlevel.obj
 0002:0000b920       ??_C@_1M@JAIJPENP@?$AAc?$AAy?$AA?9?$AAG?$AAB@ 0000000180069920     libucrt:lcidtoname_downlevel.obj
 0002:0000b930       ??_C@_1M@PHGFBEPN@?$AAg?$AAl?$AA?9?$AAE?$AAS@ 0000000180069930     libucrt:lcidtoname_downlevel.obj
 0002:0000b940       ??_C@_1O@KPIPDNCP@?$AAk?$AAo?$AAk?$AA?9?$AAI?$AAN@ 0000000180069940     libucrt:lcidtoname_downlevel.obj
 0002:0000b950       ??_C@_1O@KNHJLDJA@?$AAs?$AAy?$AAr?$AA?9?$AAS?$AAY@ 0000000180069950     libucrt:lcidtoname_downlevel.obj
 0002:0000b960       ??_C@_1O@MKEKBLAH@?$AAd?$AAi?$AAv?$AA?9?$AAM?$AAV@ 0000000180069960     libucrt:lcidtoname_downlevel.obj
 0002:0000b970       ??_C@_1O@OHDCKDDF@?$AAq?$AAu?$AAz?$AA?9?$AAB?$AAO@ 0000000180069970     libucrt:lcidtoname_downlevel.obj
 0002:0000b980       ??_C@_1M@LEPJNLFD@?$AAn?$AAs?$AA?9?$AAZ?$AAA@ 0000000180069980     libucrt:lcidtoname_downlevel.obj
 0002:0000b990       ??_C@_1M@OMLEIIJB@?$AAm?$AAi?$AA?9?$AAN?$AAZ@ 0000000180069990     libucrt:lcidtoname_downlevel.obj
 0002:0000b9a0       ??_C@_1M@PMPEAILG@?$AAa?$AAr?$AA?9?$AAI?$AAQ@ 00000001800699a0     libucrt:lcidtoname_downlevel.obj
 0002:0000b9b0       ??_C@_1M@CNKPNOEE@?$AAd?$AAe?$AA?9?$AAC?$AAH@ 00000001800699b0     libucrt:lcidtoname_downlevel.obj
 0002:0000b9c0       ??_C@_1M@LKMGMLKO@?$AAe?$AAn?$AA?9?$AAG?$AAB@ 00000001800699c0     libucrt:lcidtoname_downlevel.obj
 0002:0000b9d0       ??_C@_1M@PGKJFFGL@?$AAe?$AAs?$AA?9?$AAM?$AAX@ 00000001800699d0     libucrt:lcidtoname_downlevel.obj
 0002:0000b9e0       ??_C@_1M@DNNANBDC@?$AAf?$AAr?$AA?9?$AAB?$AAE@ 00000001800699e0     libucrt:lcidtoname_downlevel.obj
 0002:0000b9f0       ??_C@_1M@HLGMDFHM@?$AAi?$AAt?$AA?9?$AAC?$AAH@ 00000001800699f0     libucrt:lcidtoname_downlevel.obj
 0002:0000ba00       ??_C@_1M@CLLBGJH@?$AAn?$AAl?$AA?9?$AAB?$AAE@ 0000000180069a00     libucrt:lcidtoname_downlevel.obj
 0002:0000ba10       ??_C@_1M@BODBOGLF@?$AAn?$AAn?$AA?9?$AAN?$AAO@ 0000000180069a10     libucrt:lcidtoname_downlevel.obj
 0002:0000ba20       ??_C@_1M@HFFAHKAD@?$AAp?$AAt?$AA?9?$AAP?$AAT@ 0000000180069a20     libucrt:lcidtoname_downlevel.obj
 0002:0000ba30       ??_C@_1BG@LNOAKHIE@?$AAs?$AAr?$AA?9?$AAS?$AAP?$AA?9?$AAL?$AAa?$AAt?$AAn@ 0000000180069a30     libucrt:lcidtoname_downlevel.obj
 0002:0000ba48       ??_C@_1M@HBMHBGAK@?$AAs?$AAv?$AA?9?$AAF?$AAI@ 0000000180069a48     libucrt:lcidtoname_downlevel.obj
 0002:0000ba58       ??_C@_1BG@DGCJGJBE@?$AAa?$AAz?$AA?9?$AAA?$AAZ?$AA?9?$AAC?$AAy?$AAr?$AAl@ 0000000180069a58     libucrt:lcidtoname_downlevel.obj
 0002:0000ba70       ??_C@_1M@KEJDAAHB@?$AAs?$AAe?$AA?9?$AAS?$AAE@ 0000000180069a70     libucrt:lcidtoname_downlevel.obj
 0002:0000ba80       ??_C@_1M@HEIBJJAD@?$AAm?$AAs?$AA?9?$AAB?$AAN@ 0000000180069a80     libucrt:lcidtoname_downlevel.obj
 0002:0000ba90       ??_C@_1BG@PBGJMCEM@?$AAu?$AAz?$AA?9?$AAU?$AAZ?$AA?9?$AAC?$AAy?$AAr?$AAl@ 0000000180069a90     libucrt:lcidtoname_downlevel.obj
 0002:0000baa8       ??_C@_1O@LAOBCMDF@?$AAq?$AAu?$AAz?$AA?9?$AAE?$AAC@ 0000000180069aa8     libucrt:lcidtoname_downlevel.obj
 0002:0000bab8       ??_C@_1M@POEEMAIO@?$AAa?$AAr?$AA?9?$AAE?$AAG@ 0000000180069ab8     libucrt:lcidtoname_downlevel.obj
 0002:0000bac8       ??_C@_1M@EFAKDEDL@?$AAz?$AAh?$AA?9?$AAH?$AAK@ 0000000180069ac8     libucrt:lcidtoname_downlevel.obj
 0002:0000bad8       ??_C@_1M@HKKIJHGI@?$AAd?$AAe?$AA?9?$AAA?$AAT@ 0000000180069ad8     libucrt:lcidtoname_downlevel.obj
 0002:0000bae8       ??_C@_1M@KBFBEHJF@?$AAe?$AAn?$AA?9?$AAA?$AAU@ 0000000180069ae8     libucrt:lcidtoname_downlevel.obj
 0002:0000baf8       ??_C@_1M@MNPLFAAH@?$AAe?$AAs?$AA?9?$AAE?$AAS@ 0000000180069af8     libucrt:lcidtoname_downlevel.obj
 0002:0000bb08       ??_C@_1M@HJOOJFMA@?$AAf?$AAr?$AA?9?$AAC?$AAA@ 0000000180069b08     libucrt:lcidtoname_downlevel.obj
 0002:0000bb18       ??_C@_1BG@JPOFPNAB@?$AAs?$AAr?$AA?9?$AAS?$AAP?$AA?9?$AAC?$AAy?$AAr?$AAl@ 0000000180069b18     libucrt:lcidtoname_downlevel.obj
 0002:0000bb30       ??_C@_1M@LNFOCMOB@?$AAs?$AAe?$AA?9?$AAF?$AAI@ 0000000180069b30     libucrt:lcidtoname_downlevel.obj
 0002:0000bb40       ??_C@_1O@MGJBOAMB@?$AAq?$AAu?$AAz?$AA?9?$AAP?$AAE@ 0000000180069b40     libucrt:lcidtoname_downlevel.obj
 0002:0000bb50       ??_C@_1M@GJINLBOK@?$AAa?$AAr?$AA?9?$AAL?$AAY@ 0000000180069b50     libucrt:lcidtoname_downlevel.obj
 0002:0000bb60       ??_C@_1M@GGMNHJNL@?$AAz?$AAh?$AA?9?$AAS?$AAG@ 0000000180069b60     libucrt:lcidtoname_downlevel.obj
 0002:0000bb70       ??_C@_1M@HOIKODND@?$AAd?$AAe?$AA?9?$AAL?$AAU@ 0000000180069b70     libucrt:lcidtoname_downlevel.obj
 0002:0000bb80       ??_C@_1M@DDOCCGFG@?$AAe?$AAn?$AA?9?$AAC?$AAA@ 0000000180069b80     libucrt:lcidtoname_downlevel.obj
 0002:0000bb90       ??_C@_1M@BNOEMJLF@?$AAe?$AAs?$AA?9?$AAG?$AAT@ 0000000180069b90     libucrt:lcidtoname_downlevel.obj
 0002:0000bba0       ??_C@_1M@EOGNKEK@?$AAf?$AAr?$AA?9?$AAC?$AAH@ 0000000180069ba0     libucrt:lcidtoname_downlevel.obj
 0002:0000bbb0       ??_C@_1M@FLIDJFHL@?$AAh?$AAr?$AA?9?$AAB?$AAA@ 0000000180069bb0     libucrt:lcidtoname_downlevel.obj
 0002:0000bbc0       ??_C@_1O@FMCELNAJ@?$AAs?$AAm?$AAj?$AA?9?$AAN?$AAO@ 0000000180069bc0     libucrt:lcidtoname_downlevel.obj
 0002:0000bbd0       ??_C@_1M@JHGLJMGJ@?$AAa?$AAr?$AA?9?$AAD?$AAZ@ 0000000180069bd0     libucrt:lcidtoname_downlevel.obj
 0002:0000bbe0       ??_C@_1M@JKKFDCNP@?$AAz?$AAh?$AA?9?$AAM?$AAO@ 0000000180069be0     libucrt:lcidtoname_downlevel.obj
 0002:0000bbf0       ??_C@_1M@GEEFALPE@?$AAd?$AAe?$AA?9?$AAL?$AAI@ 0000000180069bf0     libucrt:lcidtoname_downlevel.obj
 0002:0000bc00       ??_C@_1M@IGEOFBG@?$AAe?$AAn?$AA?9?$AAN?$AAZ@ 0000000180069c00     libucrt:lcidtoname_downlevel.obj
 0002:0000bc10       ??_C@_1M@KDBONEHP@?$AAe?$AAs?$AA?9?$AAC?$AAR@ 0000000180069c10     libucrt:lcidtoname_downlevel.obj
 0002:0000bc20       ??_C@_1M@FHMDOHNN@?$AAf?$AAr?$AA?9?$AAL?$AAU@ 0000000180069c20     libucrt:lcidtoname_downlevel.obj
 0002:0000bc30       ??_C@_1BG@NFKKMAFG@?$AAb?$AAs?$AA?9?$AAB?$AAA?$AA?9?$AAL?$AAa?$AAt?$AAn@ 0000000180069c30     libucrt:lcidtoname_downlevel.obj
 0002:0000bc48       ??_C@_1O@IMNBEMCI@?$AAs?$AAm?$AAj?$AA?9?$AAS?$AAE@ 0000000180069c48     libucrt:lcidtoname_downlevel.obj
 0002:0000bc58       ??_C@_1M@DHHMBNDP@?$AAa?$AAr?$AA?9?$AAM?$AAA@ 0000000180069c58     libucrt:lcidtoname_downlevel.obj
 0002:0000bc68       ??_C@_1M@BNBLJCGH@?$AAe?$AAn?$AA?9?$AAI?$AAE@ 0000000180069c68     libucrt:lcidtoname_downlevel.obj
 0002:0000bc78       ??_C@_1M@GEPAFMDL@?$AAe?$AAs?$AA?9?$AAP?$AAA@ 0000000180069c78     libucrt:lcidtoname_downlevel.obj
 0002:0000bc88       ??_C@_1M@OJONDMDL@?$AAf?$AAr?$AA?9?$AAM?$AAC@ 0000000180069c88     libucrt:lcidtoname_downlevel.obj
 0002:0000bc98       ??_C@_1BG@OBCNFJB@?$AAs?$AAr?$AA?9?$AAB?$AAA?$AA?9?$AAL?$AAa?$AAt?$AAn@ 0000000180069c98     libucrt:lcidtoname_downlevel.obj
 0002:0000bcb0       ??_C@_1O@KEMEEGPO@?$AAs?$AAm?$AAa?$AA?9?$AAN?$AAO@ 0000000180069cb0     libucrt:lcidtoname_downlevel.obj
 0002:0000bcc0       ??_C@_1M@ELMGFODK@?$AAa?$AAr?$AA?9?$AAT?$AAN@ 0000000180069cc0     libucrt:lcidtoname_downlevel.obj
 0002:0000bcd0       ??_C@_1M@BHDLHFAF@?$AAe?$AAn?$AA?9?$AAZ?$AAA@ 0000000180069cd0     libucrt:lcidtoname_downlevel.obj
 0002:0000bce0       ??_C@_1M@BMGIGLIF@?$AAe?$AAs?$AA?9?$AAD?$AAO@ 0000000180069ce0     libucrt:lcidtoname_downlevel.obj
 0002:0000bcf0       ??_C@_1BG@CMBHIPBE@?$AAs?$AAr?$AA?9?$AAB?$AAA?$AA?9?$AAC?$AAy?$AAr?$AAl@ 0000000180069cf0     libucrt:lcidtoname_downlevel.obj
 0002:0000bd08       ??_C@_1O@HEDBLHNP@?$AAs?$AAm?$AAa?$AA?9?$AAS?$AAE@ 0000000180069d08     libucrt:lcidtoname_downlevel.obj
 0002:0000bd18       ??_C@_1M@DAGCADIM@?$AAa?$AAr?$AA?9?$AAO?$AAM@ 0000000180069d18     libucrt:lcidtoname_downlevel.obj
 0002:0000bd28       ??_C@_1M@FODLMICG@?$AAe?$AAn?$AA?9?$AAJ?$AAM@ 0000000180069d28     libucrt:lcidtoname_downlevel.obj
 0002:0000bd38       ??_C@_1M@DNMLCIHB@?$AAe?$AAs?$AA?9?$AAV?$AAE@ 0000000180069d38     libucrt:lcidtoname_downlevel.obj
 0002:0000bd48       ??_C@_1O@EOKHMKJK@?$AAs?$AAm?$AAs?$AA?9?$AAF?$AAI@ 0000000180069d48     libucrt:lcidtoname_downlevel.obj
 0002:0000bd58       ??_C@_1M@CAFJMKOF@?$AAa?$AAr?$AA?9?$AAY?$AAE@ 0000000180069d58     libucrt:lcidtoname_downlevel.obj
 0002:0000bd68       ??_C@_1M@CBFHIJLI@?$AAe?$AAn?$AA?9?$AAC?$AAB@ 0000000180069d68     libucrt:lcidtoname_downlevel.obj
 0002:0000bd78       ??_C@_1M@BGNFLDN@?$AAe?$AAs?$AA?9?$AAC?$AAO@ 0000000180069d78     libucrt:lcidtoname_downlevel.obj
 0002:0000bd88       ??_C@_1O@JMPHMAMC@?$AAs?$AAm?$AAn?$AA?9?$AAF?$AAI@ 0000000180069d88     libucrt:lcidtoname_downlevel.obj
 0002:0000bd98       ??_C@_1M@JLANABKE@?$AAa?$AAr?$AA?9?$AAS?$AAY@ 0000000180069d98     libucrt:lcidtoname_downlevel.obj
 0002:0000bda8       ??_C@_1M@HPKGCFGN@?$AAe?$AAn?$AA?9?$AAB?$AAZ@ 0000000180069da8     libucrt:lcidtoname_downlevel.obj
 0002:0000bdb8       ??_C@_1M@OLJCMLGM@?$AAe?$AAs?$AA?9?$AAP?$AAE@ 0000000180069db8     libucrt:lcidtoname_downlevel.obj
 0002:0000bdc8       ??_C@_1M@MKKGFKLE@?$AAa?$AAr?$AA?9?$AAJ?$AAO@ 0000000180069dc8     libucrt:lcidtoname_downlevel.obj
 0002:0000bdd8       ??_C@_1M@EKPGLDNI@?$AAe?$AAn?$AA?9?$AAT?$AAT@ 0000000180069dd8     libucrt:lcidtoname_downlevel.obj
 0002:0000bde8       ??_C@_1M@OONGHFHE@?$AAe?$AAs?$AA?9?$AAA?$AAR@ 0000000180069de8     libucrt:lcidtoname_downlevel.obj
 0002:0000bdf8       ??_C@_1M@OOJFGBHE@?$AAa?$AAr?$AA?9?$AAL?$AAB@ 0000000180069df8     libucrt:lcidtoname_downlevel.obj
 0002:0000be08       ??_C@_1M@GCEJHNEG@?$AAe?$AAn?$AA?9?$AAZ?$AAW@ 0000000180069e08     libucrt:lcidtoname_downlevel.obj
 0002:0000be18       ??_C@_1M@JNOCAHJI@?$AAe?$AAs?$AA?9?$AAE?$AAC@ 0000000180069e18     libucrt:lcidtoname_downlevel.obj
 0002:0000be28       ??_C@_1M@JEFHPGGB@?$AAa?$AAr?$AA?9?$AAK?$AAW@ 0000000180069e28     libucrt:lcidtoname_downlevel.obj
 0002:0000be38       ??_C@_1M@MLKIBJOJ@?$AAe?$AAn?$AA?9?$AAP?$AAH@ 0000000180069e38     libucrt:lcidtoname_downlevel.obj
 0002:0000be48       ??_C@_1M@BDNIPEND@?$AAe?$AAs?$AA?9?$AAC?$AAL@ 0000000180069e48     libucrt:lcidtoname_downlevel.obj
 0002:0000be58       ??_C@_1M@MPNMEKBD@?$AAa?$AAr?$AA?9?$AAA?$AAE@ 0000000180069e58     libucrt:lcidtoname_downlevel.obj
 0002:0000be68       ??_C@_1M@KBJALCPI@?$AAe?$AAs?$AA?9?$AAU?$AAY@ 0000000180069e68     libucrt:lcidtoname_downlevel.obj
 0002:0000be78       ??_C@_1M@LLCCOAGA@?$AAa?$AAr?$AA?9?$AAB?$AAH@ 0000000180069e78     libucrt:lcidtoname_downlevel.obj
 0002:0000be88       ??_C@_1M@PBFNCDEL@?$AAe?$AAs?$AA?9?$AAP?$AAY@ 0000000180069e88     libucrt:lcidtoname_downlevel.obj
 0002:0000be98       ??_C@_1M@EDGINPNP@?$AAa?$AAr?$AA?9?$AAQ?$AAA@ 0000000180069e98     libucrt:lcidtoname_downlevel.obj
 0002:0000bea8       ??_C@_1M@MKDBIIJI@?$AAe?$AAs?$AA?9?$AAB?$AAO@ 0000000180069ea8     libucrt:lcidtoname_downlevel.obj
 0002:0000beb8       ??_C@_1M@CPKKEBLD@?$AAe?$AAs?$AA?9?$AAS?$AAV@ 0000000180069eb8     libucrt:lcidtoname_downlevel.obj
 0002:0000bec8       ??_C@_1M@NDBGMMJL@?$AAe?$AAs?$AA?9?$AAH?$AAN@ 0000000180069ec8     libucrt:lcidtoname_downlevel.obj
 0002:0000bed8       ??_C@_1M@JIJIBHDP@?$AAe?$AAs?$AA?9?$AAN?$AAI@ 0000000180069ed8     libucrt:lcidtoname_downlevel.obj
 0002:0000bee8       ??_C@_1M@CGFMKEEK@?$AAe?$AAs?$AA?9?$AAP?$AAR@ 0000000180069ee8     libucrt:lcidtoname_downlevel.obj
 0002:0000bef8       ??_C@_1O@ICJHKIIK@?$AAz?$AAh?$AA?9?$AAC?$AAH?$AAT@ 0000000180069ef8     libucrt:lcidtoname_downlevel.obj
 0002:0000bf08       ??_C@_15CLNEJCE@?$AAs?$AAr@ 0000000180069f08     libucrt:lcidtoname_downlevel.obj
 0002:0000cd50       ??_C@_1M@KAHEKEIG@?$AAa?$AAf?$AA?9?$AAz?$AAa@ 000000018006ad50     libucrt:lcidtoname_downlevel.obj
 0002:0000cd60       ??_C@_1M@GIECOABL@?$AAa?$AAr?$AA?9?$AAa?$AAe@ 000000018006ad60     libucrt:lcidtoname_downlevel.obj
 0002:0000cd70       ??_C@_1M@BMLMEKGI@?$AAa?$AAr?$AA?9?$AAb?$AAh@ 000000018006ad70     libucrt:lcidtoname_downlevel.obj
 0002:0000cd80       ??_C@_1M@DAPFDGGB@?$AAa?$AAr?$AA?9?$AAd?$AAz@ 000000018006ad80     libucrt:lcidtoname_downlevel.obj
 0002:0000cd90       ??_C@_1M@FJNKGKIG@?$AAa?$AAr?$AA?9?$AAe?$AAg@ 000000018006ad90     libucrt:lcidtoname_downlevel.obj
 0002:0000cda0       ??_C@_1M@FLGKKCLO@?$AAa?$AAr?$AA?9?$AAi?$AAq@ 000000018006ada0     libucrt:lcidtoname_downlevel.obj
 0002:0000cdb0       ??_C@_1M@GNDIPALM@?$AAa?$AAr?$AA?9?$AAj?$AAo@ 000000018006adb0     libucrt:lcidtoname_downlevel.obj
 0002:0000cdc0       ??_C@_1M@DDMJFMGJ@?$AAa?$AAr?$AA?9?$AAk?$AAw@ 000000018006adc0     libucrt:lcidtoname_downlevel.obj
 0002:0000cdd0       ??_C@_1M@EJALMLHM@?$AAa?$AAr?$AA?9?$AAl?$AAb@ 000000018006add0     libucrt:lcidtoname_downlevel.obj
 0002:0000cde0       ??_C@_1M@MOBDBLOC@?$AAa?$AAr?$AA?9?$AAl?$AAy@ 000000018006ade0     libucrt:lcidtoname_downlevel.obj
 0002:0000cdf0       ??_C@_1M@JAOCLHDH@?$AAa?$AAr?$AA?9?$AAm?$AAa@ 000000018006adf0     libucrt:lcidtoname_downlevel.obj
 0002:0000ce00       ??_C@_1M@JHPMKJIE@?$AAa?$AAr?$AA?9?$AAo?$AAm@ 000000018006ae00     libucrt:lcidtoname_downlevel.obj
 0002:0000ce10       ??_C@_1M@OEPGHFNH@?$AAa?$AAr?$AA?9?$AAq?$AAa@ 000000018006ae10     libucrt:lcidtoname_downlevel.obj
 0002:0000ce20       ??_C@_1M@KJDONENM@?$AAa?$AAr?$AA?9?$AAs?$AAa@ 000000018006ae20     libucrt:lcidtoname_downlevel.obj
 0002:0000ce30       ??_C@_1M@DMJDKLKM@?$AAa?$AAr?$AA?9?$AAs?$AAy@ 000000018006ae30     libucrt:lcidtoname_downlevel.obj
 0002:0000ce40       ??_C@_1M@OMFIPEDC@?$AAa?$AAr?$AA?9?$AAt?$AAn@ 000000018006ae40     libucrt:lcidtoname_downlevel.obj
 0002:0000ce50       ??_C@_1M@IHMHGAON@?$AAa?$AAr?$AA?9?$AAy?$AAe@ 000000018006ae50     libucrt:lcidtoname_downlevel.obj
 0002:0000ce60       ??_C@_1BG@KDCPGJGB@?$AAa?$AAz?$AA?9?$AAa?$AAz?$AA?9?$AAc?$AAy?$AAr?$AAl@ 000000018006ae60     libucrt:lcidtoname_downlevel.obj
 0002:0000ce78       ??_C@_1BG@IBCKDDOE@?$AAa?$AAz?$AA?9?$AAa?$AAz?$AA?9?$AAl?$AAa?$AAt?$AAn@ 000000018006ae78     libucrt:lcidtoname_downlevel.obj
 0002:0000ce90       ??_C@_1M@EGPFDCPD@?$AAb?$AAe?$AA?9?$AAb?$AAy@ 000000018006ae90     libucrt:lcidtoname_downlevel.obj
 0002:0000cea0       ??_C@_1M@PCMGMCGC@?$AAb?$AAg?$AA?9?$AAb?$AAg@ 000000018006aea0     libucrt:lcidtoname_downlevel.obj
 0002:0000ceb0       ??_C@_1M@BJBMFGOB@?$AAb?$AAn?$AA?9?$AAi?$AAn@ 000000018006aeb0     libucrt:lcidtoname_downlevel.obj
 0002:0000cec0       ??_C@_1BG@EAKMMACD@?$AAb?$AAs?$AA?9?$AAb?$AAa?$AA?9?$AAl?$AAa?$AAt?$AAn@ 000000018006aec0     libucrt:lcidtoname_downlevel.obj
 0002:0000ced8       ??_C@_1M@KGADAODK@?$AAc?$AAa?$AA?9?$AAe?$AAs@ 000000018006aed8     libucrt:lcidtoname_downlevel.obj
 0002:0000cee8       ??_C@_1M@COAJPDHI@?$AAc?$AAs?$AA?9?$AAc?$AAz@ 000000018006aee8     libucrt:lcidtoname_downlevel.obj
 0002:0000cef8       ??_C@_1M@DHBHFONH@?$AAc?$AAy?$AA?9?$AAg?$AAb@ 000000018006aef8     libucrt:lcidtoname_downlevel.obj
 0002:0000cf08       ??_C@_1M@IMGKELGA@?$AAd?$AAa?$AA?9?$AAd?$AAk@ 000000018006af08     libucrt:lcidtoname_downlevel.obj
 0002:0000cf18       ??_C@_1M@NNDGDNGA@?$AAd?$AAe?$AA?9?$AAa?$AAt@ 000000018006af18     libucrt:lcidtoname_downlevel.obj
 0002:0000cf28       ??_C@_1M@IKDBHEEM@?$AAd?$AAe?$AA?9?$AAc?$AAh@ 000000018006af28     libucrt:lcidtoname_downlevel.obj
 0002:0000cf38       ??_C@_1M@GFFOJMCJ@?$AAd?$AAe?$AA?9?$AAd?$AAe@ 000000018006af38     libucrt:lcidtoname_downlevel.obj
 0002:0000cf48       ??_C@_1M@MDNLKBPM@?$AAd?$AAe?$AA?9?$AAl?$AAi@ 000000018006af48     libucrt:lcidtoname_downlevel.obj
 0002:0000cf58       ??_C@_1M@NJBEEJNL@?$AAd?$AAe?$AA?9?$AAl?$AAu@ 000000018006af58     libucrt:lcidtoname_downlevel.obj
 0002:0000cf68       ??_C@_1O@GNNELBAP@?$AAd?$AAi?$AAv?$AA?9?$AAm?$AAv@ 000000018006af68     libucrt:lcidtoname_downlevel.obj
 0002:0000cf78       ??_C@_1M@EJLEOGAE@?$AAe?$AAl?$AA?9?$AAg?$AAr@ 000000018006af78     libucrt:lcidtoname_downlevel.obj
 0002:0000cf88       ??_C@_1M@GMPONJN@?$AAe?$AAn?$AA?9?$AAa?$AAu@ 000000018006af88     libucrt:lcidtoname_downlevel.obj
 0002:0000cf98       ??_C@_1M@NIDIIPGF@?$AAe?$AAn?$AA?9?$AAb?$AAz@ 000000018006af98     libucrt:lcidtoname_downlevel.obj
 0002:0000cfa8       ??_C@_1M@JEHMIMFO@?$AAe?$AAn?$AA?9?$AAc?$AAa@ 000000018006afa8     libucrt:lcidtoname_downlevel.obj
 0002:0000cfb8       ??_C@_1M@IGMJCDLA@?$AAe?$AAn?$AA?9?$AAc?$AAb@ 000000018006afb8     libucrt:lcidtoname_downlevel.obj
 0002:0000cfc8       ??_C@_1M@BNFIGBKG@?$AAe?$AAn?$AA?9?$AAg?$AAb@ 000000018006afc8     libucrt:lcidtoname_downlevel.obj
 0002:0000cfd8       ??_C@_1M@LKIFDIGP@?$AAe?$AAn?$AA?9?$AAi?$AAe@ 000000018006afd8     libucrt:lcidtoname_downlevel.obj
 0002:0000cfe8       ??_C@_1M@PJKFGCCO@?$AAe?$AAn?$AA?9?$AAj?$AAm@ 000000018006afe8     libucrt:lcidtoname_downlevel.obj
 0002:0000cff8       ??_C@_1M@KPPKEPBO@?$AAe?$AAn?$AA?9?$AAn?$AAz@ 000000018006aff8     libucrt:lcidtoname_downlevel.obj
 0002:0000d008       ??_C@_1M@GMDGLDOB@?$AAe?$AAn?$AA?9?$AAp?$AAh@ 000000018006b008     libucrt:lcidtoname_downlevel.obj
 0002:0000d018       ??_C@_1M@ONGIBJNA@?$AAe?$AAn?$AA?9?$AAt?$AAt@ 000000018006b018     libucrt:lcidtoname_downlevel.obj
 0002:0000d028       ??_C@_1M@LLODPCMM@?$AAe?$AAn?$AA?9?$AAu?$AAs@ 000000018006b028     libucrt:lcidtoname_downlevel.obj
 0002:0000d038       ??_C@_1M@LAKFNPAN@?$AAe?$AAn?$AA?9?$AAz?$AAa@ 000000018006b038     libucrt:lcidtoname_downlevel.obj
 0002:0000d048       ??_C@_1M@MFNHNHEO@?$AAe?$AAn?$AA?9?$AAz?$AAw@ 000000018006b048     libucrt:lcidtoname_downlevel.obj
 0002:0000d058       ??_C@_1M@EJEINPHM@?$AAe?$AAs?$AA?9?$AAa?$AAr@ 000000018006b058     libucrt:lcidtoname_downlevel.obj
 0002:0000d068       ??_C@_1M@GNKPCCJA@?$AAe?$AAs?$AA?9?$AAb?$AAo@ 000000018006b068     libucrt:lcidtoname_downlevel.obj
 0002:0000d078       ??_C@_1M@LEEGFONL@?$AAe?$AAs?$AA?9?$AAc?$AAl@ 000000018006b078     libucrt:lcidtoname_downlevel.obj
 0002:0000d088       ??_C@_1M@KGPDPBDF@?$AAe?$AAs?$AA?9?$AAc?$AAo@ 000000018006b088     libucrt:lcidtoname_downlevel.obj
 0002:0000d098       ??_C@_1M@EIAHOHH@?$AAe?$AAs?$AA?9?$AAc?$AAr@ 000000018006b098     libucrt:lcidtoname_downlevel.obj
 0002:0000d0a8       ??_C@_1M@LLPGMBIN@?$AAe?$AAs?$AA?9?$AAd?$AAo@ 000000018006b0a8     libucrt:lcidtoname_downlevel.obj
 0002:0000d0b8       ??_C@_1M@DKHMKNJA@?$AAe?$AAs?$AA?9?$AAe?$AAc@ 000000018006b0b8     libucrt:lcidtoname_downlevel.obj
 0002:0000d0c8       ??_C@_1M@GKGFPKAP@?$AAe?$AAs?$AA?9?$AAe?$AAs@ 000000018006b0c8     libucrt:lcidtoname_downlevel.obj
 0002:0000d0d8       ??_C@_1M@LKHKGDLN@?$AAe?$AAs?$AA?9?$AAg?$AAt@ 000000018006b0d8     libucrt:lcidtoname_downlevel.obj
 0002:0000d0e8       ??_C@_1M@HEIIGGJD@?$AAe?$AAs?$AA?9?$AAh?$AAn@ 000000018006b0e8     libucrt:lcidtoname_downlevel.obj
 0002:0000d0f8       ??_C@_1M@FBDHPPGD@?$AAe?$AAs?$AA?9?$AAm?$AAx@ 000000018006b0f8     libucrt:lcidtoname_downlevel.obj
 0002:0000d108       ??_C@_1M@DPAGLNDH@?$AAe?$AAs?$AA?9?$AAn?$AAi@ 000000018006b108     libucrt:lcidtoname_downlevel.obj
 0002:0000d118       ??_C@_1M@MDGOPGDD@?$AAe?$AAs?$AA?9?$AAp?$AAa@ 000000018006b118     libucrt:lcidtoname_downlevel.obj
 0002:0000d128       ??_C@_1M@EMAMGBGE@?$AAe?$AAs?$AA?9?$AAp?$AAe@ 000000018006b128     libucrt:lcidtoname_downlevel.obj
 0002:0000d138       ??_C@_1M@IBMCAOEC@?$AAe?$AAs?$AA?9?$AAp?$AAr@ 000000018006b138     libucrt:lcidtoname_downlevel.obj
 0002:0000d148       ??_C@_1M@FGMDIJED@?$AAe?$AAs?$AA?9?$AAp?$AAy@ 000000018006b148     libucrt:lcidtoname_downlevel.obj
 0002:0000d158       ??_C@_1M@IIDEOLLL@?$AAe?$AAs?$AA?9?$AAs?$AAv@ 000000018006b158     libucrt:lcidtoname_downlevel.obj
 0002:0000d168       ??_C@_1M@GAOBIPA@?$AAe?$AAs?$AA?9?$AAu?$AAy@ 000000018006b168     libucrt:lcidtoname_downlevel.obj
 0002:0000d178       ??_C@_1M@JKFFICHJ@?$AAe?$AAs?$AA?9?$AAv?$AAe@ 000000018006b178     libucrt:lcidtoname_downlevel.obj
 0002:0000d188       ??_C@_1M@PNMLOJDF@?$AAe?$AAt?$AA?9?$AAe?$AAe@ 000000018006b188     libucrt:lcidtoname_downlevel.obj
 0002:0000d198       ??_C@_1M@GHHLIKEI@?$AAe?$AAu?$AA?9?$AAe?$AAs@ 000000018006b198     libucrt:lcidtoname_downlevel.obj
 0002:0000d1a8       ??_C@_1M@PBNONODE@?$AAf?$AAa?$AA?9?$AAi?$AAr@ 000000018006b1a8     libucrt:lcidtoname_downlevel.obj
 0002:0000d1b8       ??_C@_1M@JEEHPMIL@?$AAf?$AAi?$AA?9?$AAf?$AAi@ 000000018006b1b8     libucrt:lcidtoname_downlevel.obj
 0002:0000d1c8       ??_C@_1M@LMDCNDBA@?$AAf?$AAo?$AA?9?$AAf?$AAo@ 000000018006b1c8     libucrt:lcidtoname_downlevel.obj
 0002:0000d1d8       ??_C@_1M@JKEOHLDK@?$AAf?$AAr?$AA?9?$AAb?$AAe@ 000000018006b1d8     libucrt:lcidtoname_downlevel.obj
 0002:0000d1e8       ??_C@_1M@NOHADPMI@?$AAf?$AAr?$AA?9?$AAc?$AAa@ 000000018006b1e8     libucrt:lcidtoname_downlevel.obj
 0002:0000d1f8       ??_C@_1M@KDHIHAEC@?$AAf?$AAr?$AA?9?$AAc?$AAh@ 000000018006b1f8     libucrt:lcidtoname_downlevel.obj
 0002:0000d208       ??_C@_1M@MMBBFGAK@?$AAf?$AAr?$AA?9?$AAf?$AAr@ 000000018006b208     libucrt:lcidtoname_downlevel.obj
 0002:0000d218       ??_C@_1M@PAFNENNF@?$AAf?$AAr?$AA?9?$AAl?$AAu@ 000000018006b218     libucrt:lcidtoname_downlevel.obj
 0002:0000d228       ??_C@_1M@EOHDJGDD@?$AAf?$AAr?$AA?9?$AAm?$AAc@ 000000018006b228     libucrt:lcidtoname_downlevel.obj
 0002:0000d238       ??_C@_1M@FAPLLOPF@?$AAg?$AAl?$AA?9?$AAe?$AAs@ 000000018006b238     libucrt:lcidtoname_downlevel.obj
 0002:0000d248       ??_C@_1M@FOPBFLOO@?$AAg?$AAu?$AA?9?$AAi?$AAn@ 000000018006b248     libucrt:lcidtoname_downlevel.obj
 0002:0000d258       ??_C@_1M@KBMCINPM@?$AAh?$AAe?$AA?9?$AAi?$AAl@ 000000018006b258     libucrt:lcidtoname_downlevel.obj
 0002:0000d268       ??_C@_1M@BBPHKFPJ@?$AAh?$AAi?$AA?9?$AAi?$AAn@ 000000018006b268     libucrt:lcidtoname_downlevel.obj
 0002:0000d278       ??_C@_1M@PMBNDPHD@?$AAh?$AAr?$AA?9?$AAb?$AAa@ 000000018006b278     libucrt:lcidtoname_downlevel.obj
 0002:0000d288       ??_C@_1M@BPCKOEGE@?$AAh?$AAr?$AA?9?$AAh?$AAr@ 000000018006b288     libucrt:lcidtoname_downlevel.obj
 0002:0000d298       ??_C@_1M@GACBMHKE@?$AAh?$AAu?$AA?9?$AAh?$AAu@ 000000018006b298     libucrt:lcidtoname_downlevel.obj
 0002:0000d2a8       ??_C@_1M@MILPAJJC@?$AAh?$AAy?$AA?9?$AAa?$AAm@ 000000018006b2a8     libucrt:lcidtoname_downlevel.obj
 0002:0000d2b8       ??_C@_1M@BABBICEC@?$AAi?$AAd?$AA?9?$AAi?$AAd@ 000000018006b2b8     libucrt:lcidtoname_downlevel.obj
 0002:0000d2c8       ??_C@_1M@BIKNHHPF@?$AAi?$AAs?$AA?9?$AAi?$AAs@ 000000018006b2c8     libucrt:lcidtoname_downlevel.obj
 0002:0000d2d8       ??_C@_1M@NMPCJPHE@?$AAi?$AAt?$AA?9?$AAc?$AAh@ 000000018006b2d8     libucrt:lcidtoname_downlevel.obj
 0002:0000d2e8       ??_C@_1M@GHKGFEDF@?$AAi?$AAt?$AA?9?$AAi?$AAt@ 000000018006b2e8     libucrt:lcidtoname_downlevel.obj
 0002:0000d2f8       ??_C@_1M@NIEJCJJA@?$AAj?$AAa?$AA?9?$AAj?$AAp@ 000000018006b2f8     libucrt:lcidtoname_downlevel.obj
 0002:0000d308       ??_C@_1M@JILFNBIM@?$AAk?$AAa?$AA?9?$AAg?$AAe@ 000000018006b308     libucrt:lcidtoname_downlevel.obj
 0002:0000d318       ??_C@_1M@PACPMGPH@?$AAk?$AAk?$AA?9?$AAk?$AAz@ 000000018006b318     libucrt:lcidtoname_downlevel.obj
 0002:0000d328       ??_C@_1M@IELFGMHA@?$AAk?$AAn?$AA?9?$AAi?$AAn@ 000000018006b328     libucrt:lcidtoname_downlevel.obj
 0002:0000d338       ??_C@_1O@IBBJHCH@?$AAk?$AAo?$AAk?$AA?9?$AAi?$AAn@ 000000018006b338     libucrt:lcidtoname_downlevel.obj
 0002:0000d348       ??_C@_1M@DMHAEOGC@?$AAk?$AAo?$AA?9?$AAk?$AAr@ 000000018006b348     libucrt:lcidtoname_downlevel.obj
 0002:0000d358       ??_C@_1M@HBAHBIGA@?$AAk?$AAy?$AA?9?$AAk?$AAg@ 000000018006b358     libucrt:lcidtoname_downlevel.obj
 0002:0000d368       ??_C@_1M@KPMILCJG@?$AAl?$AAt?$AA?9?$AAl?$AAt@ 000000018006b368     libucrt:lcidtoname_downlevel.obj
 0002:0000d378       ??_C@_1M@BDEKKCA@?$AAl?$AAv?$AA?9?$AAl?$AAv@ 000000018006b378     libucrt:lcidtoname_downlevel.obj
 0002:0000d388       ??_C@_1M@ELCKCCJJ@?$AAm?$AAi?$AA?9?$AAn?$AAz@ 000000018006b388     libucrt:lcidtoname_downlevel.obj
 0002:0000d398       ??_C@_1M@CBOOLAPA@?$AAm?$AAk?$AA?9?$AAm?$AAk@ 000000018006b398     libucrt:lcidtoname_downlevel.obj
 0002:0000d3a8       ??_C@_1M@GPHNBJKN@?$AAm?$AAl?$AA?9?$AAi?$AAn@ 000000018006b3a8     libucrt:lcidtoname_downlevel.obj
 0002:0000d3b8       ??_C@_1M@PABJILIG@?$AAm?$AAn?$AA?9?$AAm?$AAn@ 000000018006b3b8     libucrt:lcidtoname_downlevel.obj
 0002:0000d3c8       ??_C@_1M@FGBKKIPG@?$AAm?$AAr?$AA?9?$AAi?$AAn@ 000000018006b3c8     libucrt:lcidtoname_downlevel.obj
 0002:0000d3d8       ??_C@_1M@NDBPDDAL@?$AAm?$AAs?$AA?9?$AAb?$AAn@ 000000018006b3d8     libucrt:lcidtoname_downlevel.obj
 0002:0000d3e8       ??_C@_1M@OPIHOOPI@?$AAm?$AAs?$AA?9?$AAm?$AAy@ 000000018006b3e8     libucrt:lcidtoname_downlevel.obj
 0002:0000d3f8       ??_C@_1M@PPDBCNFM@?$AAm?$AAt?$AA?9?$AAm?$AAt@ 000000018006b3f8     libucrt:lcidtoname_downlevel.obj
 0002:0000d408       ??_C@_1M@KDJDKMDD@?$AAn?$AAb?$AA?9?$AAn?$AAo@ 000000018006b408     libucrt:lcidtoname_downlevel.obj
 0002:0000d418       ??_C@_1M@KFCFLMJP@?$AAn?$AAl?$AA?9?$AAb?$AAe@ 000000018006b418     libucrt:lcidtoname_downlevel.obj
 0002:0000d428       ??_C@_1M@KPOPDDGO@?$AAn?$AAl?$AA?9?$AAn?$AAl@ 000000018006b428     libucrt:lcidtoname_downlevel.obj
 0002:0000d438       ??_C@_1M@LJKPEMLN@?$AAn?$AAn?$AA?9?$AAn?$AAo@ 000000018006b438     libucrt:lcidtoname_downlevel.obj
 0002:0000d448       ??_C@_1M@BDGHHBFL@?$AAn?$AAs?$AA?9?$AAz?$AAa@ 000000018006b448     libucrt:lcidtoname_downlevel.obj
 0002:0000d458       ??_C@_1M@IDEHOAP@?$AAp?$AAa?$AA?9?$AAi?$AAn@ 000000018006b458     libucrt:lcidtoname_downlevel.obj
 0002:0000d468       ??_C@_1M@HDBKGOGH@?$AAp?$AAl?$AA?9?$AAp?$AAl@ 000000018006b468     libucrt:lcidtoname_downlevel.obj
 0002:0000d478       ??_C@_1M@LJLLCMEH@?$AAp?$AAt?$AA?9?$AAb?$AAr@ 000000018006b478     libucrt:lcidtoname_downlevel.obj
 0002:0000d488       ??_C@_1M@NCMONAAL@?$AAp?$AAt?$AA?9?$AAp?$AAt@ 000000018006b488     libucrt:lcidtoname_downlevel.obj
 0002:0000d498       ??_C@_1O@EAKMAJDN@?$AAq?$AAu?$AAz?$AA?9?$AAb?$AAo@ 000000018006b498     libucrt:lcidtoname_downlevel.obj
 0002:0000d4a8       ??_C@_1O@BHHPIGDN@?$AAq?$AAu?$AAz?$AA?9?$AAe?$AAc@ 000000018006b4a8     libucrt:lcidtoname_downlevel.obj
 0002:0000d4b8       ??_C@_1O@GBAPEKMJ@?$AAq?$AAu?$AAz?$AA?9?$AAp?$AAe@ 000000018006b4b8     libucrt:lcidtoname_downlevel.obj
 0002:0000d4c8       ??_C@_1M@CLGLEFBO@?$AAr?$AAo?$AA?9?$AAr?$AAo@ 000000018006b4c8     libucrt:lcidtoname_downlevel.obj
 0002:0000d4d8       ??_C@_1M@CEEDODME@?$AAr?$AAu?$AA?9?$AAr?$AAu@ 000000018006b4d8     libucrt:lcidtoname_downlevel.obj
 0002:0000d4e8       ??_C@_1M@HPKKKMPP@?$AAs?$AAa?$AA?9?$AAi?$AAn@ 000000018006b4e8     libucrt:lcidtoname_downlevel.obj
 0002:0000d4f8       ??_C@_1M@BKMAIGOJ@?$AAs?$AAe?$AA?9?$AAf?$AAi@ 000000018006b4f8     libucrt:lcidtoname_downlevel.obj
 0002:0000d508       ??_C@_1M@NDPIFLFI@?$AAs?$AAe?$AA?9?$AAn?$AAo@ 000000018006b508     libucrt:lcidtoname_downlevel.obj
 0002:0000d518       ??_C@_1M@DANKKHJ@?$AAs?$AAe?$AA?9?$AAs?$AAe@ 000000018006b518     libucrt:lcidtoname_downlevel.obj
 0002:0000d528       ??_C@_1M@PNBLONPJ@?$AAs?$AAk?$AA?9?$AAs?$AAk@ 000000018006b528     libucrt:lcidtoname_downlevel.obj
 0002:0000d538       ??_C@_1M@LFMODOAL@?$AAs?$AAl?$AA?9?$AAs?$AAi@ 000000018006b538     libucrt:lcidtoname_downlevel.obj
 0002:0000d548       ??_C@_1O@DFKOMPG@?$AAs?$AAm?$AAa?$AA?9?$AAn?$AAo@ 000000018006b548     libucrt:lcidtoname_downlevel.obj
 0002:0000d558       ??_C@_1O@NDKPBNNH@?$AAs?$AAm?$AAa?$AA?9?$AAs?$AAe@ 000000018006b558     libucrt:lcidtoname_downlevel.obj
 0002:0000d568       ??_C@_1O@PLLKBHAB@?$AAs?$AAm?$AAj?$AA?9?$AAn?$AAo@ 000000018006b568     libucrt:lcidtoname_downlevel.obj
 0002:0000d578       ??_C@_1O@CLEPOGCA@?$AAs?$AAm?$AAj?$AA?9?$AAs?$AAe@ 000000018006b578     libucrt:lcidtoname_downlevel.obj
 0002:0000d588       ??_C@_1O@DLGJGKMK@?$AAs?$AAm?$AAn?$AA?9?$AAf?$AAi@ 000000018006b588     libucrt:lcidtoname_downlevel.obj
 0002:0000d598       ??_C@_1O@OJDJGAJC@?$AAs?$AAm?$AAs?$AA?9?$AAf?$AAi@ 000000018006b598     libucrt:lcidtoname_downlevel.obj
 0002:0000d5a8       ??_C@_1M@BOFOGHPB@?$AAs?$AAq?$AA?9?$AAa?$AAl@ 000000018006b5a8     libucrt:lcidtoname_downlevel.obj
 0002:0000d5b8       ??_C@_1BG@LJBBIPGB@?$AAs?$AAr?$AA?9?$AAb?$AAa?$AA?9?$AAc?$AAy?$AAr?$AAl@ 000000018006b5b8     libucrt:lcidtoname_downlevel.obj
 0002:0000d5d0       ??_C@_1BG@JLBENFOE@?$AAs?$AAr?$AA?9?$AAb?$AAa?$AA?9?$AAl?$AAa?$AAt?$AAn@ 000000018006b5d0     libucrt:lcidtoname_downlevel.obj
 0002:0000d5e8       ??_C@_1BG@KODPNHE@?$AAs?$AAr?$AA?9?$AAs?$AAp?$AA?9?$AAc?$AAy?$AAr?$AAl@ 000000018006b5e8     libucrt:lcidtoname_downlevel.obj
 0002:0000d600       ??_C@_1BG@CIOGKHPB@?$AAs?$AAr?$AA?9?$AAs?$AAp?$AA?9?$AAl?$AAa?$AAt?$AAn@ 000000018006b600     libucrt:lcidtoname_downlevel.obj
 0002:0000d618       ??_C@_1M@NGFJLMAC@?$AAs?$AAv?$AA?9?$AAf?$AAi@ 000000018006b618     libucrt:lcidtoname_downlevel.obj
 0002:0000d628       ??_C@_1M@MPJEJAJC@?$AAs?$AAv?$AA?9?$AAs?$AAe@ 000000018006b628     libucrt:lcidtoname_downlevel.obj
 0002:0000d638       ??_C@_1M@MPNDHLFK@?$AAs?$AAw?$AA?9?$AAk?$AAe@ 000000018006b638     libucrt:lcidtoname_downlevel.obj
 0002:0000d648       ??_C@_1O@KOHBJJI@?$AAs?$AAy?$AAr?$AA?9?$AAs?$AAy@ 000000018006b648     libucrt:lcidtoname_downlevel.obj
 0002:0000d658       ??_C@_1M@LDCEFHA@?$AAt?$AAa?$AA?9?$AAi?$AAn@ 000000018006b658     libucrt:lcidtoname_downlevel.obj
 0002:0000d668       ??_C@_1M@CNJOFAK@?$AAt?$AAe?$AA?9?$AAi?$AAn@ 000000018006b668     libucrt:lcidtoname_downlevel.obj
 0002:0000d678       ??_C@_1M@GNAECACD@?$AAt?$AAh?$AA?9?$AAt?$AAh@ 000000018006b678     libucrt:lcidtoname_downlevel.obj
 0002:0000d688       ??_C@_1M@CHBIHOJO@?$AAt?$AAn?$AA?9?$AAz?$AAa@ 000000018006b688     libucrt:lcidtoname_downlevel.obj
 0002:0000d698       ??_C@_1M@GCCMIGPJ@?$AAt?$AAr?$AA?9?$AAt?$AAr@ 000000018006b698     libucrt:lcidtoname_downlevel.obj
 0002:0000d6a8       ??_C@_1M@CELMCNBK@?$AAt?$AAt?$AA?9?$AAr?$AAu@ 000000018006b6a8     libucrt:lcidtoname_downlevel.obj
 0002:0000d6b8       ??_C@_1M@KLMCELGA@?$AAu?$AAk?$AA?9?$AAu?$AAa@ 000000018006b6b8     libucrt:lcidtoname_downlevel.obj
 0002:0000d6c8       ??_C@_1M@EPAJJAJF@?$AAu?$AAr?$AA?9?$AAp?$AAk@ 000000018006b6c8     libucrt:lcidtoname_downlevel.obj
 0002:0000d6d8       ??_C@_1BG@GEGPMCDJ@?$AAu?$AAz?$AA?9?$AAu?$AAz?$AA?9?$AAc?$AAy?$AAr?$AAl@ 000000018006b6d8     libucrt:lcidtoname_downlevel.obj
 0002:0000d6f0       ??_C@_1BG@EGGKJILM@?$AAu?$AAz?$AA?9?$AAu?$AAz?$AA?9?$AAl?$AAa?$AAt?$AAn@ 000000018006b6f0     libucrt:lcidtoname_downlevel.obj
 0002:0000d708       ??_C@_1M@GFOCLFF@?$AAv?$AAi?$AA?9?$AAv?$AAn@ 000000018006b708     libucrt:lcidtoname_downlevel.obj
 0002:0000d718       ??_C@_1M@CPAMEDFI@?$AAx?$AAh?$AA?9?$AAz?$AAa@ 000000018006b718     libucrt:lcidtoname_downlevel.obj
 0002:0000d728       ??_C@_1O@EBKIFIGN@?$AAz?$AAh?$AA?9?$AAc?$AAh?$AAs@ 000000018006b728     libucrt:lcidtoname_downlevel.obj
 0002:0000d738       ??_C@_1O@NMHPGANE@?$AAz?$AAh?$AA?9?$AAc?$AAh?$AAt@ 000000018006b738     libucrt:lcidtoname_downlevel.obj
 0002:0000d748       ??_C@_1M@LPINJOMC@?$AAz?$AAh?$AA?9?$AAc?$AAn@ 000000018006b748     libucrt:lcidtoname_downlevel.obj
 0002:0000d758       ??_C@_1M@OCJEJODD@?$AAz?$AAh?$AA?9?$AAh?$AAk@ 000000018006b758     libucrt:lcidtoname_downlevel.obj
 0002:0000d768       ??_C@_1M@DNDLJINH@?$AAz?$AAh?$AA?9?$AAm?$AAo@ 000000018006b768     libucrt:lcidtoname_downlevel.obj
 0002:0000d778       ??_C@_1M@MBFDNDND@?$AAz?$AAh?$AA?9?$AAs?$AAg@ 000000018006b778     libucrt:lcidtoname_downlevel.obj
 0002:0000d788       ??_C@_1M@IMEPLEPE@?$AAz?$AAh?$AA?9?$AAt?$AAw@ 000000018006b788     libucrt:lcidtoname_downlevel.obj
 0002:0000d798       ??_C@_1M@BBGHNHJP@?$AAz?$AAu?$AA?9?$AAz?$AAa@ 000000018006b798     libucrt:lcidtoname_downlevel.obj
 0002:0000d7a4       ??_C@_01GBGANLPD@0@        000000018006b7a4     libucrt:cfout.obj
 0002:0000d7a8       ??_C@_05DNEBIAHO@1?$CDINF@ 000000018006b7a8     libucrt:cfout.obj
 0002:0000d7b0       ??_C@_06IMKFLFPG@1?$CDQNAN@ 000000018006b7b0     libucrt:cfout.obj
 0002:0000d7b8       ??_C@_06PGGFOGJG@1?$CDSNAN@ 000000018006b7b8     libucrt:cfout.obj
 0002:0000d7c0       ??_C@_05PHHOCPM@1?$CDIND@  000000018006b7c0     libucrt:cfout.obj
 0002:0000da30       ??_C@_1BA@BALFACEM@?$AAC?$AAO?$AAN?$AAO?$AAU?$AAT?$AA$@ 000000018006ba30     libucrt:initcon.obj
 0002:0000da40       __log10_256_lead           000000018006ba40     libucrt:log10_256_lead_tail_table.obj
 0002:0000e250       __log10_256_tail           000000018006c250     libucrt:log10_256_lead_tail_table.obj
 0002:0000ea58       ??_C@_1BK@DBDEIDLH@?$AAK?$AAE?$AAR?$AAN?$AAE?$AAL?$AA3?$AA2?$AA?4?$AAD?$AAL?$AAL@ 000000018006ca58     DelayImp:delayhlp.obj
 0002:0000ea78       ??_C@_0BI@OMNLIJDB@AcquireSRWLockExclusive@ 000000018006ca78     DelayImp:delayhlp.obj
 0002:0000ea90       ??_C@_0BI@HMIEPCNJ@ReleaseSRWLockExclusive@ 000000018006ca90     DelayImp:delayhlp.obj
 0002:0000eaa8       __pfnDliFailureHook2       000000018006caa8     DelayImp:delayhk1.obj
 0002:0000eab0       _load_config_used          000000018006cab0     LIBCMT:loadcfg.obj
 0002:0000ebe8       ??_C@_0BC@BDKFLDHL@unknown?5exception@ 000000018006cbe8     Backend.obj
 0002:0000ec00       ??_C@_0BF@KINCDENJ@bad?5array?5new?5length@ 000000018006cc00     Backend.obj
 0002:0000ec18       ??_C@_07CIFAGBMG@unknown@  000000018006cc18     Backend.obj
 0002:0000ec20       ??_C@_0BA@JFNIOLAK@string?5too?5long@ 000000018006cc20     Backend.obj
 0002:0000ec30       ??_C@_1CO@EGNPJLKI@?$AAp?$AAe?$AAr?$AAs?$AAi?$AAs?$AAt?$AAe?$AAn?$AAt?$AA?$CI?$AA?$CJ?$AA?4?$AAI?$AAs@ 000000018006cc30     Backend.obj
 0002:0000ec60       ??_C@_1DA@FBGAEOIO@?$AA?$CB?$AAp?$AAe?$AAr?$AAs?$AAi?$AAs?$AAt?$AAe?$AAn?$AAt?$AA?$CI?$AA?$CJ?$AA?4?$AAI@ 000000018006cc60     Backend.obj
 0002:0000ec90       ??_C@_1CO@JCKLEFMA@?$AA?$CB?$AAp?$AAe?$AAr?$AAs?$AAi?$AAs?$AAt?$AAe?$AAn?$AAt?$AA?$CI?$AA?$CJ?$AA?4?$AAI@ 000000018006cc90     Backend.obj
 0002:0000ecc0       ??_C@_1BE@GMLLOIPJ@?$AAr?$AAe?$AAf?$AAs?$AA_?$AA?5?$AA?$DO?$AA?5?$AA0@ 000000018006ccc0     Backend.obj
 0002:0000ecd8       ??_C@_1CC@GBFLAAPF@?$AAw?$AAr?$AAa?$AAp?$AA?9?$AA?$DO?$AAr?$AAe?$AAf?$AAs?$AA_?$AA?5?$AA?$DN?$AA?$DN?$AA?5@ 000000018006ccd8     Backend.obj
 0002:0000ed00       ??_C@_1IA@CCIFDHFH@?$AAD?$AA?3?$AA?2?$AAa?$AA?2?$AAn?$AAo?$AAd?$AAe?$AA?9?$AAc?$AAa?$AAn?$AAv?$AAa@ 000000018006cd00     Backend.obj
 0002:0000ed80       ??_C@_1EC@MGGLMBLC@?$AAo?$AAb?$AAj?$AAe?$AAc?$AAt?$AA?9?$AA?$DO?$AAI?$AAn?$AAt?$AAe?$AAr?$AAn?$AAa@ 000000018006cd80     Backend.obj
 0002:0000edc8       ??_7Backend@@6B@           000000018006cdc8     Backend.obj
 0002:0000ee10       ??_7exception@stdext@@6B@  000000018006ce10     Backend.obj
 0002:0000ee28       ??_7ObjectWrap@Nan@@6B@    000000018006ce28     Backend.obj
 0002:0000ee50       __pfnDliNotifyHook2        000000018006ce50     win_delay_load_hook.obj
 0002:0000ee58       ??_7bad_array_new_length@stdext@@6B@ 000000018006ce58     Backend.obj
 0002:0000ee70       ??_C@_05NGOMGBBD@image@    000000018006ce70     ImageBackend.obj
 0002:0000ee80       ??_C@_1HC@GFEOMEAF@?$AAD?$AA?3?$AA?2?$AAa?$AA?2?$AAn?$AAo?$AAd?$AAe?$AA?9?$AAc?$AAa?$AAn?$AAv?$AAa@ 000000018006ce80     ImageBackend.obj
 0002:0000eef8       ??_C@_1BC@DIMDFFBM@?$AA?$CB?$AAs?$AAu?$AAr?$AAf?$AAa?$AAc?$AAe@ 000000018006cef8     ImageBackend.obj
 0002:0000ef10       ??_C@_1BA@BHHNPNF@?$AAs?$AAu?$AAr?$AAf?$AAa?$AAc?$AAe@ 000000018006cf10     ImageBackend.obj
 0002:0000ef20       ??_C@_0N@KBCACLBD@ImageBackend@ 000000018006cf20     ImageBackend.obj
 0002:0000ef30       ??_7ImageBackend@@6B@      000000018006cf30     ImageBackend.obj
 0002:0000ef78       ??_C@_03MJPNCPKC@pdf@      000000018006cf78     PdfBackend.obj
 0002:0000ef80       ??_C@_0L@HCGIDJMC@PdfBackend@ 000000018006cf80     PdfBackend.obj
 0002:0000ef90       ??_C@_0BA@FOIKENOD@vector?5too?5long@ 000000018006cf90     PdfBackend.obj
 0002:0000efa0       ??_7PdfBackend@@6B@        000000018006cfa0     PdfBackend.obj
 0002:0000efe8       ??_C@_03NNPBMGBD@svg@      000000018006cfe8     SvgBackend.obj
 0002:0000eff0       ??_C@_1GO@EKGNLMIA@?$AAD?$AA?3?$AA?2?$AAa?$AA?2?$AAn?$AAo?$AAd?$AAe?$AA?9?$AAc?$AAa?$AAn?$AAv?$AAa@ 000000018006cff0     SvgBackend.obj
 0002:0000f060       ??_C@_1BE@LCFLFJLD@?$AA?$CB?$AA_?$AAc?$AAl?$AAo?$AAs?$AAu?$AAr?$AAe@ 000000018006d060     SvgBackend.obj
 0002:0000f078       ??_C@_0L@NPKKBKFF@SvgBackend@ 000000018006d078     SvgBackend.obj
 0002:0000f088       ??_7SvgBackend@@6B@        000000018006d088     SvgBackend.obj
 0002:0000f0d0       ??_C@_1GE@FJOIPOPI@?$AAD?$AA?3?$AA?2?$AAa?$AA?2?$AAn?$AAo?$AAd?$AAe?$AA?9?$AAc?$AAa?$AAn?$AAv?$AAa@ 000000018006d0d0     BMPParser.obj
 0002:0000f138       ??_C@_1DA@GJKBCAIL@?$AAs?$AAt?$AAa?$AAt?$AAu?$AAs?$AA?5?$AA?$DN?$AA?$DN?$AA?5?$AAS?$AAt?$AAa?$AAt?$AAu@ 000000018006d138     BMPParser.obj
 0002:0000f168       ??_C@_0M@OPOGKKPL@file?5header@ 000000018006d168     BMPParser.obj
 0002:0000f178       ??_C@_0BG@JPBAHECP@file?5header?5signature@ 000000018006d178     BMPParser.obj
 0002:0000f190       ??_C@_02JKMCABAH@BA@       000000018006d190     BMPParser.obj
 0002:0000f194       ??_C@_05BFGHBGGP@?5?$CCBA?$CC@ 000000018006d194     BMPParser.obj
 0002:0000f19c       ??_C@_02FDNJOBDI@CI@       000000018006d19c     BMPParser.obj
 0002:0000f1a0       ??_C@_05KDMICALC@?5?$CCCI?$CC@ 000000018006d1a0     BMPParser.obj
 0002:0000f1a8       ??_C@_02MINJEICA@CP@       000000018006d1a8     BMPParser.obj
 0002:0000f1ac       ??_C@_05LADPLIEN@?5?$CCCP?$CC@ 000000018006d1ac     BMPParser.obj
 0002:0000f1b4       ??_C@_02KEKBIMGE@IC@       000000018006d1b4     BMPParser.obj
 0002:0000f1b8       ??_C@_05MBOCEFAA@?5?$CCIC?$CC@ 000000018006d1b8     BMPParser.obj
 0002:0000f1c0       ??_C@_02LCNFJAAN@PT@       000000018006d1c0     BMPParser.obj
 0002:0000f1c4       ??_C@_05PFJKOIOA@?5?$CCPT?$CC@ 000000018006d1c4     BMPParser.obj
 0002:0000f1cc       ??_C@_02DGHHEOAL@BM@       000000018006d1cc     BMPParser.obj
 0002:0000f1d0       ??_C@_0BH@PGODKMKI@inconsistent?5file?5size@ 000000018006d1d0     BMPParser.obj
 0002:0000f1e8       ??_C@_0L@DKDHPBLO@DIB?5header@ 000000018006d1e8     BMPParser.obj
 0002:0000f1f8       ??_C@_0BF@JGAMBPJ@?5?$CCOS22XBITMAPHEADER?$CC@ 000000018006d1f8     BMPParser.obj
 0002:0000f210       ??_C@_0BB@GLFIFBPJ@image?5width?5is?50@ 000000018006d210     BMPParser.obj
 0002:0000f228       ??_C@_0BF@PICPCPNH@negative?5image?5width@ 000000018006d228     BMPParser.obj
 0002:0000f240       ??_C@_0BG@DIENJMKE@too?5large?5image?5width@ 000000018006d240     BMPParser.obj
 0002:0000f258       ??_C@_0BC@BPGKCLEL@image?5height?5is?50@ 000000018006d258     BMPParser.obj
 0002:0000f270       ??_C@_0BH@MGLIIGAD@too?5large?5image?5height@ 000000018006d270     BMPParser.obj
 0002:0000f288       ??_C@_0CB@EHNMIHLN@number?5of?5color?5planes?5must?5be?5@ 000000018006d288     BMPParser.obj
 0002:0000f2b0       ??_C@_0M@CGFHNEKC@color?5depth@ 000000018006d2b0     BMPParser.obj
 0002:0000f2c0       ??_C@_0BB@JGEMFNKM@compression?5type@ 000000018006d2c0     BMPParser.obj
 0002:0000f2d8       ??_C@_0L@LHCCDPID@?5?$CCBI_RLE8?$CC@ 000000018006d2d8     BMPParser.obj
 0002:0000f2e8       ??_C@_0L@LODIMGOH@?5?$CCBI_RLE4?$CC@ 000000018006d2e8     BMPParser.obj
 0002:0000f2f8       ??_C@_0L@KCBKOKJL@?5?$CCBI_JPEG?$CC@ 000000018006d2f8     BMPParser.obj
 0002:0000f308       ??_C@_09CJGDEMME@?5?$CCBI_PNG?$CC@ 000000018006d308     BMPParser.obj
 0002:0000f318       ??_C@_0BF@IIABODNP@?5?$CCBI_ALPHABITFIELDS?$CC@ 000000018006d318     BMPParser.obj
 0002:0000f330       ??_C@_0L@OLAPJCD@?5?$CCBI_CMYK?$CC@ 000000018006d330     BMPParser.obj
 0002:0000f340       ??_C@_0P@LMMOCJLO@?5?$CCBI_CMYKRLE8?$CC@ 000000018006d340     BMPParser.obj
 0002:0000f350       ??_C@_0P@LFNENANK@?5?$CCBI_CMYKRLE4?$CC@ 000000018006d350     BMPParser.obj
 0002:0000f360       ??_C@_0EN@COPDNOCO@compression?5BI_BITFIELDS?5can?5be@ 000000018006d360     BMPParser.obj
 0002:0000f3b0       ??_C@_0CI@DAENBHLK@color?5palette?5and?5bit?5depth?5com@ 000000018006d3b0     BMPParser.obj
 0002:0000f3d8       ??_C@_04CCANGBDI@Win?5@    000000018006d3d8     BMPParser.obj
 0002:0000f3e0       ??_C@_04FBDBODBG@sRGB@     000000018006d3e0     BMPParser.obj
 0002:0000f3e8       ??_C@_01BJJEKLCA@?$CC@     000000018006d3e8     BMPParser.obj
 0002:0000f3f0       ??_C@_0O@CJMICHBL@color?5space?5?$CC@ 000000018006d3f0     BMPParser.obj
 0002:0000f400       ??_C@_0CL@BAIMHKPA@image?5data?5overlaps?5with?5anothe@ 000000018006d400     BMPParser.obj
 0002:0000f430       ??_C@_0L@BENKOINO@image?5data@ 000000018006d430     BMPParser.obj
 0002:0000f440       ??_C@_0BI@IFJLKLBA@missing?5image?5data?5size@ 000000018006d440     BMPParser.obj
 0002:0000f458       ??_C@_0BI@PFLPMPIG@invalid?5image?5data?5size@ 000000018006d458     BMPParser.obj
 0002:0000f470       ??_C@_0BG@MANBHLLD@not?5enough?5image?5data@ 000000018006d470     BMPParser.obj
 0002:0000f488       ??_C@_0BK@KGDODFCD@unable?5to?5allocate?5memory@ 000000018006d488     BMPParser.obj
 0002:0000f4a4       ??_C@_03NLJIHOMM@?5?9?5@   000000018006d4a4     BMPParser.obj
 0002:0000f4a8       ??_C@_0BI@MNHGEGHJ@Error?5while?5processing?5@ 000000018006d4a8     BMPParser.obj
 0002:0000f4c0       ??_C@_0BH@CFIIDOJD@unexpected?5end?5of?5file@ 000000018006d4c0     BMPParser.obj
 0002:0000f4d7       ??_C@_00CNPNBAHC@@         000000018006d4d7     BMPParser.obj
 0002:0000f4d8       ??_C@_0BD@NNNHJFDD@invalid?5color?5mask@ 000000018006d4d8     BMPParser.obj
 0002:0000f4f0       ??_C@_0N@FMIEHHDB@unsupported?5@ 000000018006d4f0     BMPParser.obj
 0002:0000f500       ??_C@_08OHKLBDEG@unknown?5@ 000000018006d500     BMPParser.obj
 0002:0000f510       ??_C@_08OMFJPINA@Backends@ 000000018006d510     Backends.obj
 0002:0000f520       ??_C@_1JE@JJMAAKOP@?$AAD?$AA?3?$AA?2?$AAa?$AA?2?$AAn?$AAo?$AAd?$AAe?$AA?9?$AAc?$AAa?$AAn?$AAv?$AAa@ 000000018006d520     Canvas.obj
 0002:0000f5c0       ??_C@_1FK@CBGIJHDF@?$AAv?$AAa?$AAl?$AAu?$AAe?$AA?4?$AAs?$AAi?$AAz?$AAe?$AA?$CI?$AA?$CJ?$AA?5?$AA?$DM?$AA?$DN@ 000000018006d5c0     Canvas.obj
 0002:0000f620       ??_C@_1GI@NMFKHHFO@?$AAD?$AA?3?$AA?2?$AAa?$AA?2?$AAn?$AAo?$AAd?$AAe?$AA?9?$AAc?$AAa?$AAn?$AAv?$AAa@ 000000018006d620     Canvas.obj
 0002:0000f690       ??_C@_1GA@PFOOBIAG@?$AAl?$AAe?$AAn?$AAg?$AAt?$AAh?$AA?5?$AA?$DM?$AA?$DN?$AA?5?$AAi?$AAm?$AAp?$AA?3?$AA?3@ 000000018006d690     Canvas.obj
 0002:0000f6f0       ??_C@_1FM@LOELJOFK@?$AAs?$AAi?$AAz?$AAe?$AA?5?$AA?$DM?$AA?$DN?$AA?5?$AAi?$AAm?$AAp?$AA?3?$AA?3?$AAk?$AAM@ 000000018006d6f0     Canvas.obj
 0002:0000f750       ??_C@_1BO@OPFMAOCA@?$AAl?$AAe?$AAn?$AA?5?$AA?$DM?$AA?$DN?$AA?5?$AAI?$AAN?$AAT?$AA_?$AAM?$AAA?$AAX@ 000000018006d750     Canvas.obj
 0002:0000f770       ??_C@_1BE@CKDJNAPC@?$AAs?$AAt?$AAr?$AA_?$AA?5?$AA?$CB?$AA?$DN?$AA?5?$AA0@ 000000018006d770     Canvas.obj
 0002:0000f784       ??_C@_06OBPJIDI@1?46?438@  000000018006d784     Canvas.obj
 0002:0000f78c       ??_C@_02LMMGGCAJ@?3?5@     000000018006d78c     Canvas.obj
 0002:0000f790       ??_C@_08LLGCOLLL@iostream@ 000000018006d790     Canvas.obj
 0002:0000f7a0       ??_C@_0BA@ELKIONDK@bad?5locale?5name@ 000000018006d7a0     Canvas.obj
 0002:0000f7b0       ??_C@_0BF@PHHKMMFD@ios_base?3?3badbit?5set@ 000000018006d7b0     Canvas.obj
 0002:0000f7c8       ??_C@_0BG@FMKFHCIL@ios_base?3?3failbit?5set@ 000000018006d7c8     Canvas.obj
 0002:0000f7e0       ??_C@_0BF@OOHOMBOF@ios_base?3?3eofbit?5set@ 000000018006d7e0     Canvas.obj
 0002:0000f7f8       ??_C@_0CD@BOHAHBFM@canvas?3empty_closure_output_buf@ 000000018006d7f8     Canvas.obj
 0002:0000f820       ??_C@_0CA@PKBJJIPN@canvas?3term_closure_destination@ 000000018006d820     Canvas.obj
 0002:0000f840       ??_C@_06PBIJCONE@Canvas@   000000018006d840     Canvas.obj
 0002:0000f848       ??_C@_08GOCDALDA@toBuffer@ 000000018006d848     Canvas.obj
 0002:0000f858       ??_C@_0O@IOKOGJGN@streamPNGSync@ 000000018006d858     Canvas.obj
 0002:0000f868       ??_C@_0O@OBICOFIG@streamPDFSync@ 000000018006d868     Canvas.obj
 0002:0000f878       ??_C@_0P@GMDNPKGK@streamJPEGSync@ 000000018006d878     Canvas.obj
 0002:0000f888       ??_C@_04GPMDFGEJ@type@     000000018006d888     Canvas.obj
 0002:0000f890       ??_C@_06LNMIFCNI@stride@   000000018006d890     Canvas.obj
 0002:0000f898       ??_C@_05IGKADHGO@width@    000000018006d898     Canvas.obj
 0002:0000f8a0       ??_C@_06LNLHEAAG@height@   000000018006d8a0     Canvas.obj
 0002:0000f8a8       ??_C@_0P@DNOOAMCM@PNG_NO_FILTERS@ 000000018006d8a8     Canvas.obj
 0002:0000f8b8       ??_C@_0BA@NECJFJGB@PNG_FILTER_NONE@ 000000018006d8b8     Canvas.obj
 0002:0000f8c8       ??_C@_0P@ILKINAJE@PNG_FILTER_SUB@ 000000018006d8c8     Canvas.obj
 0002:0000f8d8       ??_C@_0O@PHEANGBB@PNG_FILTER_UP@ 000000018006d8d8     Canvas.obj
 0002:0000f8e8       ??_C@_0P@OIJAFJM@PNG_FILTER_AVG@ 000000018006d8e8     Canvas.obj
 0002:0000f8f8       ??_C@_0BB@EOMICOFG@PNG_FILTER_PAETH@ 000000018006d8f8     Canvas.obj
 0002:0000f910       ??_C@_0BA@HBOOLNBH@PNG_ALL_FILTERS@ 000000018006d910     Canvas.obj
 0002:0000f920       ??_C@_0O@KCCDDIBD@_registerFont@ 000000018006d920     Canvas.obj
 0002:0000f930       ??_C@_0BE@GPPMDHOH@_deregisterAllFonts@ 000000018006d930     Canvas.obj
 0002:0000f948       ??_C@_0DD@NOKGMICM@Class?5constructors?5cannot?5be?5in@ 000000018006d948     Canvas.obj
 0002:0000f980       ??_C@_0BC@PALKPJEA@Invalid?5arguments@ 000000018006d980     Canvas.obj
 0002:0000f998       ??_C@_0DG@OKDLMMJN@Method?5Canvas?4GetType?5called?5on@ 000000018006d998     Canvas.obj
 0002:0000f9d0       ??_C@_0DI@MKHKOLNE@Method?5Canvas?4GetStride?5called?5@ 000000018006d9d0     Canvas.obj
 0002:0000fa08       ??_C@_0DH@NHIADAKO@Method?5Canvas?4GetWidth?5called?5o@ 000000018006da08     Canvas.obj
 0002:0000fa40       ??_C@_0DH@JLMNEGLA@Method?5Canvas?4SetWidth?5called?5o@ 000000018006da40     Canvas.obj
 0002:0000fa78       ??_C@_0DI@BFMGDDHO@Method?5Canvas?4GetHeight?5called?5@ 000000018006da78     Canvas.obj
 0002:0000fab0       ??_C@_0DI@OPIFEDGL@Method?5Canvas?4SetHeight?5called?5@ 000000018006dab0     Canvas.obj
 0002:0000fae8       ??_C@_0BK@LEHHNKDG@canvas?3ToBufferAsyncAfter@ 000000018006dae8     Canvas.obj
 0002:0000fb08       ??_C@_0BB@CHLGOGDL@compressionLevel@ 000000018006db08     Canvas.obj
 0002:0000fb20       ??_C@_0L@CAGNKJED@resolution@ 000000018006db20     Canvas.obj
 0002:0000fb30       ??_C@_07LOIMJIII@filters@  000000018006db30     Canvas.obj
 0002:0000fb38       ??_C@_07JKIHKJOO@palette@  000000018006db38     Canvas.obj
 0002:0000fb40       ??_C@_0CI@BHLKFIE@Palette?5length?5must?5be?5a?5multip@ 000000018006db40     Canvas.obj
 0002:0000fb68       ??_C@_0BA@IGMJCIAO@backgroundIndex@ 000000018006db68     Canvas.obj
 0002:0000fb78       ??_C@_07DADGLCBN@quality@  000000018006db78     Canvas.obj
 0002:0000fb80       ??_C@_0BC@PBNJDFOD@chromaSubsampling@ 000000018006db80     Canvas.obj
 0002:0000fb98       ??_C@_0M@BECHMDJA@progressive@ 000000018006db98     Canvas.obj
 0002:0000fba4       ??_C@_06FHIJNKHO@?$CFFT?$CFTZ@ 000000018006dba4     Canvas.obj
 0002:0000fbac       ??_C@_05PHLGJONK@title@    000000018006dbac     Canvas.obj
 0002:0000fbb4       ??_C@_06LIPPPFCI@author@   000000018006dbb4     Canvas.obj
 0002:0000fbc0       ??_C@_07JNNGEGGO@subject@  000000018006dbc0     Canvas.obj
 0002:0000fbc8       ??_C@_08KBIEDDDE@keywords@ 000000018006dbc8     Canvas.obj
 0002:0000fbd8       ??_C@_07PJPKCGHK@creator@  000000018006dbd8     Canvas.obj
 0002:0000fbe0       ??_C@_0N@NMBFAPFM@creationDate@ 000000018006dbe0     Canvas.obj
 0002:0000fbf0       ??_C@_07FKDDNFDN@modDate@  000000018006dbf0     Canvas.obj
 0002:0000fbf8       ??_C@_03DGOGAGNC@raw@      000000018006dbf8     Canvas.obj
 0002:0000fc00       ??_C@_0CE@IOCECGHO@Data?5exceeds?5maximum?5buffer?5len@ 000000018006dc00     Canvas.obj
 0002:0000fc28       ??_C@_09NGJJJBGE@image?1png@ 000000018006dc28     Canvas.obj
 0002:0000fc38       ??_C@_0L@PJKHLKFB@image?1jpeg@ 000000018006dc38     Canvas.obj
 0002:0000fc48       ??_C@_0BB@BCHOLLGI@canvas?3StreamPNG@ 000000018006dc48     Canvas.obj
 0002:0000fc60       ??_C@_0BL@NEPODJIN@callback?5function?5required@ 000000018006dc60     Canvas.obj
 0002:0000fc80       ??_C@_0BB@GPCAPPP@canvas?3StreamPDF@ 000000018006dc80     Canvas.obj
 0002:0000fc98       ??_C@_0BC@FANAGBIP@wrong?5canvas?5type@ 000000018006dc98     Canvas.obj
 0002:0000fcb0       ??_C@_0BE@BPOGMHI@Wrong?5argument?5type@ 000000018006dcb0     Canvas.obj
 0002:0000fcd0       ??_C@_0KD@OFKOCKPC@The?5second?5argument?5to?5register@ 000000018006dcd0     Canvas.obj
 0002:0000fd78       ??_C@_0BK@COFJPHCD@Could?5not?5parse?5font?5file@ 000000018006dd78     Canvas.obj
 0002:0000fd94       ??_C@_06NBOBHOCP@family@   000000018006dd94     Canvas.obj
 0002:0000fd9c       ??_C@_06CMCBKMCB@weight@   000000018006dd9c     Canvas.obj
 0002:0000fda4       ??_C@_05IAKJCFIM@style@    000000018006dda4     Canvas.obj
 0002:0000fdac       ??_C@_06IKLLLDHL@normal@   000000018006ddac     Canvas.obj
 0002:0000fdb8       ??_C@_0CO@PJJOAFFD@Could?5not?5load?5font?5to?5the?5syst@ 000000018006ddb8     Canvas.obj
 0002:0000fde8       ??_C@_0CH@DNCCOKNG@Could?5not?5deregister?5one?5or?5mor@ 000000018006dde8     Canvas.obj
 0002:0000fe10       ??_C@_06DAHKLION@italic@   000000018006de10     Canvas.obj
 0002:0000fe18       ??_C@_07PNBIOHPA@oblique@  000000018006de18     Canvas.obj
 0002:0000fe20       ??_C@_04PJDGFHHN@bold@     000000018006de20     Canvas.obj
 0002:0000fe28       ??_C@_03GNABGMEE@100@      000000018006de28     Canvas.obj
 0002:0000fe2c       ??_C@_03HPLEMDKK@200@      000000018006de2c     Canvas.obj
 0002:0000fe30       ??_C@_03MHAIKEMP@300@      000000018006de30     Canvas.obj
 0002:0000fe34       ??_C@_03FKNPJMHG@400@      000000018006de34     Canvas.obj
 0002:0000fe38       ??_C@_03OCGDPLBD@500@      000000018006de38     Canvas.obj
 0002:0000fe3c       ??_C@_03PANGFEPN@600@      000000018006de3c     Canvas.obj
 0002:0000fe40       ??_C@_03EIGKDDJI@700@      000000018006de40     Canvas.obj
 0002:0000fe44       ??_C@_03BAAJCDMO@800@      000000018006de44     Canvas.obj
 0002:0000fe48       ??_C@_03KILFEEKL@900@      000000018006de48     Canvas.obj
 0002:0000fe4c       ??_C@_01IHBHIGKO@?0@       000000018006de4c     Canvas.obj
 0002:0000fe50       ??_C@_07JKKCBBMM@context@  000000018006de50     Canvas.obj
 0002:0000fe60       ??_C@_1JA@PPNCFCKL@?$AAD?$AA?3?$AA?2?$AAa?$AA?2?$AAn?$AAo?$AAd?$AAe?$AA?9?$AAc?$AAa?$AAn?$AAv?$AAa@ 000000018006de60     Canvas.obj
 0002:0000fef0       ??_C@_1GK@KNJIIFLH@?$AAr?$AAe?$AAi?$AAn?$AAt?$AAe?$AAr?$AAp?$AAr?$AAe?$AAt?$AA_?$AAc?$AAa?$AAs@ 000000018006def0     Canvas.obj
 0002:0000ff60       ??_C@_1CE@LNAGEONJ@?$AA?$CB?$AAo?$AAb?$AAj?$AAe?$AAc?$AAt?$AA?4?$AAI?$AAs?$AAE?$AAm?$AAp?$AAt?$AAy@ 000000018006df60     Canvas.obj
 0002:0000ff88       ??_C@_0BL@GOIGLPKN@unordered_map?1set?5too?5long@ 000000018006df88     Canvas.obj
 0002:0000ffa8       ??_C@_0BK@OGNNAFAB@invalid?5hash?5bucket?5count@ 000000018006dfa8     Canvas.obj
 0002:0000ffc8       ??_7?$basic_streambuf@DU?$char_traits@D@std@@@std@@6B@ 000000018006dfc8     Canvas.obj
 0002:00010040       ??_7ios_base@std@@6B@      000000018006e040     Canvas.obj
 0002:00010048       ??_7?$basic_ios@DU?$char_traits@D@std@@@std@@6B@ 000000018006e048     Canvas.obj
 0002:00010050       ??_7?$basic_stringbuf@DU?$char_traits@D@std@@V?$allocator@D@2@@std@@6B@ 000000018006e050     Canvas.obj
 0002:000100c8       ??_7_Iostream_error_category2@std@@6B@ 000000018006e0c8     Canvas.obj
 0002:000100f8       ??_7system_error@std@@6B@  000000018006e0f8     Canvas.obj
 0002:000100f8       ??_7_System_error@std@@6B@ 000000018006e0f8     Canvas.obj
 0002:000100f8       ??_7failure@ios_base@std@@6B@ 000000018006e0f8     Canvas.obj
 0002:00010110       ??_7?$basic_istream@DU?$char_traits@D@std@@@std@@6B@ 000000018006e110     Canvas.obj
 0002:00010118       ??_7Canvas@@6B@            000000018006e118     Canvas.obj
 0002:00010130       ?_Iostream_error@?4??message@_Iostream_error_category2@std@@UEBA?AV?$basic_string@DU?$char_traits@D@std@@V?$allocator@D@2@@3@H@Z@4QBDB 000000018006e130     Canvas.obj
 0002:00010148       ??_8?$basic_istringstream@DU?$char_traits@D@std@@V?$allocator@D@2@@std@@7B@ 000000018006e148     Canvas.obj
 0002:00010150       ??_7?$basic_istringstream@DU?$char_traits@D@std@@V?$allocator@D@2@@std@@6B@ 000000018006e150     Canvas.obj
 0002:00010158       ??_C@_0P@CKNMLMDB@CanvasGradient@ 000000018006e158     CanvasGradient.obj
 0002:00010168       ??_C@_0N@FFOKKILE@addColorStop@ 000000018006e168     CanvasGradient.obj
 0002:00010178       ??_C@_0BC@KNPMEBHA@invalid?5arguments@ 000000018006e178     CanvasGradient.obj
 0002:00010190       ??_C@_0BA@ELGKPKEI@offset?5required@ 000000018006e190     CanvasGradient.obj
 0002:000101a0       ??_C@_0BG@HHHCEBEM@color?5string?5required@ 000000018006e1a0     CanvasGradient.obj
 0002:000101b8       ??_C@_0BD@JKDEPLNJ@parse?5color?5failed@ 000000018006e1b8     CanvasGradient.obj
 0002:000101d0       ??_7Gradient@@6B@          000000018006e1d0     CanvasGradient.obj
 0002:000101e8       ??_C@_0O@KEPDKAFI@CanvasPattern@ 000000018006e1e8     CanvasPattern.obj
 0002:000101f8       ??_C@_0N@NPHKHKKB@setTransform@ 000000018006e1f8     CanvasPattern.obj
 0002:00010208       ??_C@_0BC@LLKEFJPH@CanvasPatternInit@ 000000018006e208     CanvasPattern.obj
 0002:00010220       ??_C@_0CG@CKGIHBBA@Image?5given?5has?5not?5completed?5l@ 000000018006e220     CanvasPattern.obj
 0002:00010248       ??_C@_0BJ@NBALILEB@Image?5or?5Canvas?5expected@ 000000018006e248     CanvasPattern.obj
 0002:00010268       ??_C@_09OGFADPEI@no?9repeat@ 000000018006e268     CanvasPattern.obj
 0002:00010278       ??_C@_08HMIFKPGE@repeat?9x@ 000000018006e278     CanvasPattern.obj
 0002:00010288       ??_C@_08GFJOJOCF@repeat?9y@ 000000018006e288     CanvasPattern.obj
 0002:00010298       ??_C@_0BD@BOGGAILC@Expected?5DOMMatrix@ 000000018006e298     CanvasPattern.obj
 0002:000102ac       ??_C@_01INIBCBCB@f@        000000018006e2ac     CanvasPattern.obj
 0002:000102b0       ??_C@_01KGKMHCOC@e@        000000018006e2b0     CanvasPattern.obj
 0002:000102b4       ??_C@_01LPLHEDKD@d@        000000018006e2b4     CanvasPattern.obj
 0002:000102b8       ??_C@_01PAPGNFGE@c@        000000018006e2b8     CanvasPattern.obj
 0002:000102bc       ??_C@_01OJONOECF@b@        000000018006e2bc     CanvasPattern.obj
 0002:000102c0       ??_C@_01MCMALHOG@a@        000000018006e2c0     CanvasPattern.obj
 0002:000102c8       ??_7Pattern@@6B@           000000018006e2c8     CanvasPattern.obj
 0002:000102e0       ??_C@_03JBJLGPFL@end@      000000018006e2e0     CanvasRenderingContext2d.obj
 0002:000102e4       ??_C@_04ECGOMOIE@sans@     000000018006e2e4     CanvasRenderingContext2d.obj
 0002:000102f0       ??_C@_0BB@GCADKGJO@map?1set?5too?5long@ 000000018006e2f0     CanvasRenderingContext2d.obj
 0002:00010308       ??_C@_0BJ@HOMNLOJF@CanvasRenderingContext2D@ 000000018006e308     CanvasRenderingContext2d.obj
 0002:00010328       ??_C@_09LANPKMCJ@drawImage@ 000000018006e328     CanvasRenderingContext2d.obj
 0002:00010338       ??_C@_0N@HMHAOANH@putImageData@ 000000018006e338     CanvasRenderingContext2d.obj
 0002:00010348       ??_C@_0N@LJBMKNKJ@getImageData@ 000000018006e348     CanvasRenderingContext2d.obj
 0002:00010358       ??_C@_0BA@LENOHGDH@createImageData@ 000000018006e358     CanvasRenderingContext2d.obj
 0002:00010368       ??_C@_07IEJLLIOD@addPage@  000000018006e368     CanvasRenderingContext2d.obj
 0002:00010370       ??_C@_04EMMDIJJL@save@     000000018006e370     CanvasRenderingContext2d.obj
 0002:00010378       ??_C@_07HICINA@restore@    000000018006e378     CanvasRenderingContext2d.obj
 0002:00010380       ??_C@_06CEHMNFAL@rotate@   000000018006e380     CanvasRenderingContext2d.obj
 0002:00010388       ??_C@_09ODNGOEIO@translate@ 000000018006e388     CanvasRenderingContext2d.obj
 0002:00010398       ??_C@_09IFONHNKG@transform@ 000000018006e398     CanvasRenderingContext2d.obj
 0002:000103a8       ??_C@_0N@KLMELGON@getTransform@ 000000018006e3a8     CanvasRenderingContext2d.obj
 0002:000103b8       ??_C@_0P@KBHJLFLN@resetTransform@ 000000018006e3b8     CanvasRenderingContext2d.obj
 0002:000103c8       ??_C@_0O@MDNHBEAB@isPointInPath@ 000000018006e3c8     CanvasRenderingContext2d.obj
 0002:000103d8       ??_C@_05MHMEBBGO@scale@    000000018006e3d8     CanvasRenderingContext2d.obj
 0002:000103e0       ??_C@_04POIGMEJN@clip@     000000018006e3e0     CanvasRenderingContext2d.obj
 0002:000103e8       ??_C@_04OBAECEGJ@fill@     000000018006e3e8     CanvasRenderingContext2d.obj
 0002:000103f0       ??_C@_06JDPPEKDJ@stroke@   000000018006e3f0     CanvasRenderingContext2d.obj
 0002:000103f8       ??_C@_08BKNBKKHP@fillText@ 000000018006e3f8     CanvasRenderingContext2d.obj
 0002:00010408       ??_C@_0L@NKNGGLJB@strokeText@ 000000018006e408     CanvasRenderingContext2d.obj
 0002:00010418       ??_C@_08IFOCBDEO@fillRect@ 000000018006e418     CanvasRenderingContext2d.obj
 0002:00010428       ??_C@_0L@EFOFNCKA@strokeRect@ 000000018006e428     CanvasRenderingContext2d.obj
 0002:00010438       ??_C@_09CADLENBP@clearRect@ 000000018006e438     CanvasRenderingContext2d.obj
 0002:00010444       ??_C@_04LHPFHFPH@rect@     000000018006e444     CanvasRenderingContext2d.obj
 0002:00010450       ??_C@_09IOKGDLEI@roundRect@ 000000018006e450     CanvasRenderingContext2d.obj
 0002:00010460       ??_C@_0M@PDPLNFGN@measureText@ 000000018006e460     CanvasRenderingContext2d.obj
 0002:0001046c       ??_C@_06ICOKFDHB@moveTo@   000000018006e46c     CanvasRenderingContext2d.obj
 0002:00010474       ??_C@_06KCFEGHJL@lineTo@   000000018006e474     CanvasRenderingContext2d.obj
 0002:00010480       ??_C@_0O@PAEGDEKM@bezierCurveTo@ 000000018006e480     CanvasRenderingContext2d.obj
 0002:00010490       ??_C@_0BB@NNCDNEFE@quadraticCurveTo@ 000000018006e490     CanvasRenderingContext2d.obj
 0002:000104a8       ??_C@_09GMDIDHBP@beginPath@ 000000018006e4a8     CanvasRenderingContext2d.obj
 0002:000104b8       ??_C@_09FFNFMCIM@closePath@ 000000018006e4b8     CanvasRenderingContext2d.obj
 0002:000104c4       ??_C@_03EEIEDENP@arc@      000000018006e4c4     CanvasRenderingContext2d.obj
 0002:000104c8       ??_C@_05KOMEJIOF@arcTo@    000000018006e4c8     CanvasRenderingContext2d.obj
 0002:000104d0       ??_C@_07IANGJLLC@ellipse@  000000018006e4d0     CanvasRenderingContext2d.obj
 0002:000104d8       ??_C@_0M@KIBHMOJH@setLineDash@ 000000018006e4d8     CanvasRenderingContext2d.obj
 0002:000104e8       ??_C@_0M@KHAJBIBE@getLineDash@ 000000018006e4e8     CanvasRenderingContext2d.obj
 0002:000104f8       ??_C@_0O@IIFIBGIF@createPattern@ 000000018006e4f8     CanvasRenderingContext2d.obj
 0002:00010508       ??_C@_0BF@FLJOOEKA@createLinearGradient@ 000000018006e508     CanvasRenderingContext2d.obj
 0002:00010520       ??_C@_0BF@MHOEOHFA@createRadialGradient@ 000000018006e520     CanvasRenderingContext2d.obj
 0002:00010538       ??_C@_0M@GJLGNIPC@pixelFormat@ 000000018006e538     CanvasRenderingContext2d.obj
 0002:00010548       ??_C@_0P@HGKACBEG@patternQuality@ 000000018006e548     CanvasRenderingContext2d.obj
 0002:00010558       ??_C@_0BG@NBHIGNIP@imageSmoothingEnabled@ 000000018006e558     CanvasRenderingContext2d.obj
 0002:00010570       ??_C@_0BJ@KOAEPHEF@globalCompositeOperation@ 000000018006e570     CanvasRenderingContext2d.obj
 0002:00010590       ??_C@_0M@EJNLOLOE@globalAlpha@ 000000018006e590     CanvasRenderingContext2d.obj
 0002:000105a0       ??_C@_0M@JPJLLJDB@shadowColor@ 000000018006e5a0     CanvasRenderingContext2d.obj
 0002:000105b0       ??_C@_0L@EFNIPLDK@miterLimit@ 000000018006e5b0     CanvasRenderingContext2d.obj
 0002:000105c0       ??_C@_09PELAPJEH@lineWidth@ 000000018006e5c0     CanvasRenderingContext2d.obj
 0002:000105d0       ??_C@_07IPBACFHB@lineCap@  000000018006e5d0     CanvasRenderingContext2d.obj
 0002:000105d8       ??_C@_08CCMLJKBL@lineJoin@ 000000018006e5d8     CanvasRenderingContext2d.obj
 0002:000105e8       ??_C@_0P@NNEFDNMM@lineDashOffset@ 000000018006e5e8     CanvasRenderingContext2d.obj
 0002:000105f8       ??_C@_0O@FOAIOCIO@shadowOffsetX@ 000000018006e5f8     CanvasRenderingContext2d.obj
 0002:00010608       ??_C@_0O@EHBDNDMP@shadowOffsetY@ 000000018006e608     CanvasRenderingContext2d.obj
 0002:00010618       ??_C@_0L@FJBIPGOL@shadowBlur@ 000000018006e618     CanvasRenderingContext2d.obj
 0002:00010628       ??_C@_09BEIGEBLF@antialias@ 000000018006e628     CanvasRenderingContext2d.obj
 0002:00010638       ??_C@_0BA@GALDJJKL@textDrawingMode@ 000000018006e638     CanvasRenderingContext2d.obj
 0002:00010648       ??_C@_0BB@FMAKGOMH@currentTransform@ 000000018006e648     CanvasRenderingContext2d.obj
 0002:00010660       ??_C@_09DCCGDJMC@fillStyle@ 000000018006e660     CanvasRenderingContext2d.obj
 0002:00010670       ??_C@_0M@HFFEPBHM@strokeStyle@ 000000018006e670     CanvasRenderingContext2d.obj
 0002:0001067c       ??_C@_04EFPADHIC@font@     000000018006e67c     CanvasRenderingContext2d.obj
 0002:00010688       ??_C@_0N@KIMHKGNF@textBaseline@ 000000018006e688     CanvasRenderingContext2d.obj
 0002:00010698       ??_C@_09PKLPGIBN@textAlign@ 000000018006e698     CanvasRenderingContext2d.obj
 0002:000106a8       ??_C@_0BJ@OLEJJKDH@CanvasRenderingContext2d@ 000000018006e6a8     CanvasRenderingContext2d.obj
 0002:000106c8       ??_C@_0BN@JFEMENH@CanvasRenderingContext2dInit@ 000000018006e6c8     CanvasRenderingContext2d.obj
 0002:000106e8       ??_C@_0BJ@MMHEOABP@Unexpected?5gradient?5type@ 000000018006e6e8     CanvasRenderingContext2d.obj
 0002:00010708       ??_C@_0BN@FEKPFJFP@Failed?5to?5initialize?5context@ 000000018006e708     CanvasRenderingContext2d.obj
 0002:00010728       ??_C@_07NOFPBGJH@evenodd@  000000018006e728     CanvasRenderingContext2d.obj
 0002:00010730       ??_C@_0BA@IBFIJLCO@Canvas?5expected@ 000000018006e730     CanvasRenderingContext2d.obj
 0002:00010740       ??_C@_06OECNJAC@RGBA32@    000000018006e740     CanvasRenderingContext2d.obj
 0002:00010748       ??_C@_05EIHACBEG@RGB24@    000000018006e748     CanvasRenderingContext2d.obj
 0002:00010750       ??_C@_02GGHJHNOB@A8@       000000018006e750     CanvasRenderingContext2d.obj
 0002:00010758       ??_C@_09FDIJCLOJ@RGB16_565@ 000000018006e758     CanvasRenderingContext2d.obj
 0002:00010764       ??_C@_02LHLLMGKI@A1@       000000018006e764     CanvasRenderingContext2d.obj
 0002:00010768       ??_C@_05IAEKHIAN@alpha@    000000018006e768     CanvasRenderingContext2d.obj
 0002:00010770       ??_C@_0DL@NCONDBHI@Method?5Context2d?4GetFormat?5call@ 000000018006e770     CanvasRenderingContext2d.obj
 0002:000107b0       ??_C@_0CF@DPCLDGFG@only?5PDF?5canvases?5support?5?4addP@ 000000018006e7b0     CanvasRenderingContext2d.obj
 0002:000107d8       ??_C@_0BD@DJPHEEKJ@ImageData?5expected@ 000000018006e7d8     CanvasRenderingContext2d.obj
 0002:000107f0       ??_C@_0DJ@CKCCPANE@putImageData?5for?5CANVAS_FORMAT_@ 000000018006e7f0     CanvasRenderingContext2d.obj
 0002:00010830       ??_C@_0CM@KDJMELNO@Invalid?5pixel?5format?5or?5not?5an?5@ 000000018006e830     CanvasRenderingContext2d.obj
 0002:00010860       ??_C@_0CH@NDMGIAMG@IndexSizeError?3?5The?5source?5widt@ 000000018006e860     CanvasRenderingContext2d.obj
 0002:00010888       ??_C@_0CI@HDADGBDO@IndexSizeError?3?5The?5source?5heig@ 000000018006e888     CanvasRenderingContext2d.obj
 0002:000108b0       ??_C@_0BC@GJDMJLID@Canvas?5width?5is?50@ 000000018006e8b0     CanvasRenderingContext2d.obj
 0002:000108c8       ??_C@_0BD@KPLINHKD@Canvas?5height?5is?50@ 000000018006e8c8     CanvasRenderingContext2d.obj
 0002:000108e0       ??_C@_0DJ@DCIKNENI@getImageData?5for?5CANVAS_FORMAT_@ 000000018006e8e0     CanvasRenderingContext2d.obj
 0002:00010920       ??_C@_0CF@NIOBFMGH@The?5first?5argument?5must?5be?5an?5o@ 000000018006e920     CanvasRenderingContext2d.obj
 0002:00010950       ??_C@_0EA@LHGFJCHP@Method?5Context2d?4GetGlobalAlpha@ 000000018006e950     CanvasRenderingContext2d.obj
 0002:00010990       ??_C@_0EA@OINFBALP@Method?5Context2d?4SetGlobalAlpha@ 000000018006e990     CanvasRenderingContext2d.obj
 0002:000109d0       ??_C@_0EN@NJPCMIEN@Method?5Context2d?4GetGlobalCompo@ 000000018006e9d0     CanvasRenderingContext2d.obj
 0002:00010a20       ??_C@_0M@OABMHCHE@source?9over@ 000000018006ea20     CanvasRenderingContext2d.obj
 0002:00010a2c       ??_C@_05MEHLAELG@clear@    000000018006ea2c     CanvasRenderingContext2d.obj
 0002:00010a34       ??_C@_04COAGEIMF@copy@     000000018006ea34     CanvasRenderingContext2d.obj
 0002:00010a40       ??_C@_0M@BLMAJMLK@destination@ 000000018006ea40     CanvasRenderingContext2d.obj
 0002:00010a50       ??_C@_0BB@CIGJAIPI@destination?9over@ 000000018006ea50     CanvasRenderingContext2d.obj
 0002:00010a68       ??_C@_09CMAEPNDN@source?9in@ 000000018006ea68     CanvasRenderingContext2d.obj
 0002:00010a78       ??_C@_0P@GAHJLNBO@destination?9in@ 000000018006ea78     CanvasRenderingContext2d.obj
 0002:00010a88       ??_C@_0L@CGAPOHFD@source?9out@ 000000018006ea88     CanvasRenderingContext2d.obj
 0002:00010a98       ??_C@_0BA@IECEOLGB@destination?9out@ 000000018006ea98     CanvasRenderingContext2d.obj
 0002:00010aa8       ??_C@_0M@MKIEODMK@source?9atop@ 000000018006eaa8     CanvasRenderingContext2d.obj
 0002:00010ab8       ??_C@_0BB@CPBJJEG@destination?9atop@ 000000018006eab8     CanvasRenderingContext2d.obj
 0002:00010acc       ??_C@_03COLCDPPJ@xor@      000000018006eacc     CanvasRenderingContext2d.obj
 0002:00010ad0       ??_C@_07IEMLKEO@lighter@   000000018006ead0     CanvasRenderingContext2d.obj
 0002:00010ad8       ??_C@_08MMOCDOEL@multiply@ 000000018006ead8     CanvasRenderingContext2d.obj
 0002:00010ae4       ??_C@_06LPLGMLP@screen@    000000018006eae4     CanvasRenderingContext2d.obj
 0002:00010af0       ??_C@_07BJNHBMF@overlay@   000000018006eaf0     CanvasRenderingContext2d.obj
 0002:00010af8       ??_C@_06EJFBIMH@darken@    000000018006eaf8     CanvasRenderingContext2d.obj
 0002:00010b00       ??_C@_07OODLOHBD@lighten@  000000018006eb00     CanvasRenderingContext2d.obj
 0002:00010b08       ??_C@_0M@HJIFAOGP@color?9dodge@ 000000018006eb08     CanvasRenderingContext2d.obj
 0002:00010b18       ??_C@_0L@BNODHIAO@color?9burn@ 000000018006eb18     CanvasRenderingContext2d.obj
 0002:00010b28       ??_C@_0L@CEKGHIKD@hard?9light@ 000000018006eb28     CanvasRenderingContext2d.obj
 0002:00010b38       ??_C@_0L@DKCPCJMJ@soft?9light@ 000000018006eb38     CanvasRenderingContext2d.obj
 0002:00010b48       ??_C@_0L@CHCOIIBP@difference@ 000000018006eb48     CanvasRenderingContext2d.obj
 0002:00010b58       ??_C@_09GJPEMMGJ@exclusion@ 000000018006eb58     CanvasRenderingContext2d.obj
 0002:00010b64       ??_C@_03GKJJMKFG@hue@      000000018006eb64     CanvasRenderingContext2d.obj
 0002:00010b68       ??_C@_0L@MOLEDBMN@saturation@ 000000018006eb68     CanvasRenderingContext2d.obj
 0002:00010b74       ??_C@_05PEENBMOG@color@    000000018006eb74     CanvasRenderingContext2d.obj
 0002:00010b80       ??_C@_0L@MLCMHDMB@luminosity@ 000000018006eb80     CanvasRenderingContext2d.obj
 0002:00010b90       ??_C@_08MEKLKAIJ@saturate@ 000000018006eb90     CanvasRenderingContext2d.obj
 0002:00010ba0       ??_C@_0ED@OHNHPJNB@Method?5Context2d?4SetPatternQual@ 000000018006eba0     CanvasRenderingContext2d.obj
 0002:00010be4       ??_C@_04LBNBHAJC@fast@     000000018006ebe4     CanvasRenderingContext2d.obj
 0002:00010bec       ??_C@_04DDJAGGFE@good@     000000018006ebec     CanvasRenderingContext2d.obj
 0002:00010bf4       ??_C@_04MLDDEBAF@best@     000000018006ebf4     CanvasRenderingContext2d.obj
 0002:00010c00       ??_C@_07NHJEPDMH@nearest@  000000018006ec00     CanvasRenderingContext2d.obj
 0002:00010c08       ??_C@_08LJMMPFJO@bilinear@ 000000018006ec08     CanvasRenderingContext2d.obj
 0002:00010c20       ??_C@_0ED@LEKMCGIL@Method?5Context2d?4GetPatternQual@ 000000018006ec20     CanvasRenderingContext2d.obj
 0002:00010c70       ??_C@_0EK@NADKCECJ@Method?5Context2d?4SetImageSmooth@ 000000018006ec70     CanvasRenderingContext2d.obj
 0002:00010cc0       ??_C@_0EK@ODENENLI@Method?5Context2d?4GetImageSmooth@ 000000018006ecc0     CanvasRenderingContext2d.obj
 0002:00010d10       ??_C@_0EN@FPHNCOMI@Method?5Context2d?4SetGlobalCompo@ 000000018006ed10     CanvasRenderingContext2d.obj
 0002:00010d60       ??_C@_0EC@FOOBFDIL@Method?5Context2d?4GetShadowOffse@ 000000018006ed60     CanvasRenderingContext2d.obj
 0002:00010db0       ??_C@_0EC@JGKNDJHJ@Method?5Context2d?4SetShadowOffse@ 000000018006edb0     CanvasRenderingContext2d.obj
 0002:00010e00       ??_C@_0EC@HKGDACLN@Method?5Context2d?4GetShadowOffse@ 000000018006ee00     CanvasRenderingContext2d.obj
 0002:00010e50       ??_C@_0EC@LCCPGIEP@Method?5Context2d?4SetShadowOffse@ 000000018006ee50     CanvasRenderingContext2d.obj
 0002:00010e98       ??_C@_0DP@NNNGNPAF@Method?5Context2d?4GetShadowBlur?5@ 000000018006ee98     CanvasRenderingContext2d.obj
 0002:00010ed8       ??_C@_0DP@GINMBHDM@Method?5Context2d?4SetShadowBlur?5@ 000000018006eed8     CanvasRenderingContext2d.obj
 0002:00010f18       ??_C@_0DO@JAJHJHBL@Method?5Context2d?4GetAntiAlias?5c@ 000000018006ef18     CanvasRenderingContext2d.obj
 0002:00010f58       ??_C@_04CGFJFPFD@none@     000000018006ef58     CanvasRenderingContext2d.obj
 0002:00010f60       ??_C@_04GEBBKIAA@gray@     000000018006ef60     CanvasRenderingContext2d.obj
 0002:00010f68       ??_C@_08JOJOGLJH@subpixel@ 000000018006ef68     CanvasRenderingContext2d.obj
 0002:00010f78       ??_C@_07DLHCIBDH@default@  000000018006ef78     CanvasRenderingContext2d.obj
 0002:00010f80       ??_C@_0DO@EKJAJPKG@Method?5Context2d?4SetAntiAlias?5c@ 000000018006ef80     CanvasRenderingContext2d.obj
 0002:00010fc0       ??_C@_0EE@PFFNLLJC@Method?5Context2d?4GetTextDrawing@ 000000018006efc0     CanvasRenderingContext2d.obj
 0002:00011004       ??_C@_04LNEJFJGI@path@     000000018006f004     CanvasRenderingContext2d.obj
 0002:0001100c       ??_C@_05OIOMJNBL@glyph@    000000018006f00c     CanvasRenderingContext2d.obj
 0002:00011020       ??_C@_0EE@HOLAHIKH@Method?5Context2d?4SetTextDrawing@ 000000018006f020     CanvasRenderingContext2d.obj
 0002:00011068       ??_C@_0DM@MBOCMHPO@Method?5Context2d?4GetQuality?5cal@ 000000018006f068     CanvasRenderingContext2d.obj
 0002:000110a8       ??_C@_0DM@KMMFGAGF@Method?5Context2d?4SetQuality?5cal@ 000000018006f0a8     CanvasRenderingContext2d.obj
 0002:000110f0       ??_C@_0EF@PLLNOKEN@Method?5Context2d?4GetCurrentTran@ 000000018006f0f0     CanvasRenderingContext2d.obj
 0002:00011140       ??_C@_0EF@KNIFMDKN@Method?5Context2d?4SetCurrentTran@ 000000018006f140     CanvasRenderingContext2d.obj
 0002:00011188       ??_C@_0DO@MMJHNKPF@Method?5Context2d?4GetFillStyle?5c@ 000000018006f188     CanvasRenderingContext2d.obj
 0002:000111c8       ??_C@_0DO@BGJANCEI@Method?5Context2d?4SetFillStyle?5c@ 000000018006f1c8     CanvasRenderingContext2d.obj
 0002:00011210       ??_C@_0EA@DCCAMICG@Method?5Context2d?4GetStrokeStyle@ 000000018006f210     CanvasRenderingContext2d.obj
 0002:00011250       ??_C@_0EA@GNJAEKOG@Method?5Context2d?4SetStrokeStyle@ 000000018006f250     CanvasRenderingContext2d.obj
 0002:00011290       ??_C@_0DP@LKIEEFBK@Method?5Context2d?4GetMiterLimit?5@ 000000018006f290     CanvasRenderingContext2d.obj
 0002:000112d0       ??_C@_0DP@PIOINCD@Method?5Context2d?4SetMiterLimit?5@ 000000018006f2d0     CanvasRenderingContext2d.obj
 0002:00011310       ??_C@_0DO@HFLLPCDL@Method?5Context2d?4GetLineWidth?5c@ 000000018006f310     CanvasRenderingContext2d.obj
 0002:00011350       ??_C@_0DO@KPLMPKIG@Method?5Context2d?4SetLineWidth?5c@ 000000018006f350     CanvasRenderingContext2d.obj
 0002:00011390       ??_C@_0DN@EMJFLPDA@Method?5Context2d?4GetLineJoin?5ca@ 000000018006f390     CanvasRenderingContext2d.obj
 0002:000113d0       ??_C@_05JDNDNKBA@bevel@    000000018006f3d0     CanvasRenderingContext2d.obj
 0002:000113d8       ??_C@_05MIMAKCN@round@     000000018006f3d8     CanvasRenderingContext2d.obj
 0002:000113e0       ??_C@_05NJDNHCJA@miter@    000000018006f3e0     CanvasRenderingContext2d.obj
 0002:000113e8       ??_C@_0DN@CLCFNCFL@Method?5Context2d?4SetLineJoin?5ca@ 000000018006f3e8     CanvasRenderingContext2d.obj
 0002:00011428       ??_C@_0DM@ENDIPLJO@Method?5Context2d?4GetLineCap?5cal@ 000000018006f428     CanvasRenderingContext2d.obj
 0002:00011464       ??_C@_06ICDKOIFG@square@   000000018006f464     CanvasRenderingContext2d.obj
 0002:0001146c       ??_C@_04JOGFAABP@butt@     000000018006f46c     CanvasRenderingContext2d.obj
 0002:00011478       ??_C@_0DM@CABPFMAF@Method?5Context2d?4SetLineCap?5cal@ 000000018006f478     CanvasRenderingContext2d.obj
 0002:000114c0       ??_C@_0EA@ICGACBOG@Method?5Context2d?4SetShadowColor@ 000000018006f4c0     CanvasRenderingContext2d.obj
 0002:00011500       ??_C@_0EA@NNNAKDCG@Method?5Context2d?4GetShadowColor@ 000000018006f500     CanvasRenderingContext2d.obj
 0002:00011540       ??_C@_06LGDBIFHB@repeat@   000000018006f540     CanvasRenderingContext2d.obj
 0002:00011548       ??_C@_0DJ@CKDJNHBH@Method?5Context2d?4GetFont?5called@ 000000018006f548     CanvasRenderingContext2d.obj
 0002:00011588       ??_C@_0BA@LKDIBKDD@10px?5sans?9serif@ 000000018006f588     CanvasRenderingContext2d.obj
 0002:00011598       ??_C@_0DJ@OFPJHDG@Method?5Context2d?4SetFont?5called@ 000000018006f598     CanvasRenderingContext2d.obj
 0002:000115d4       ??_C@_04IAGNFIBA@size@     000000018006f5d4     CanvasRenderingContext2d.obj
 0002:000115dc       ??_C@_04NPEDKLDA@unit@     000000018006f5dc     CanvasRenderingContext2d.obj
 0002:000115e8       ??_C@_0L@LMHKFCHN@sans?9serif@ 000000018006f5e8     CanvasRenderingContext2d.obj
 0002:00011600       ??_C@_0EB@OLFFGIGB@Method?5Context2d?4GetTextBaselin@ 000000018006f600     CanvasRenderingContext2d.obj
 0002:00011648       ??_C@_0L@OJPAHFPD@alphabetic@ 000000018006f648     CanvasRenderingContext2d.obj
 0002:00011654       ??_C@_03FGFCOCMD@top@      000000018006f654     CanvasRenderingContext2d.obj
 0002:00011658       ??_C@_06PMMPCIPB@bottom@   000000018006f658     CanvasRenderingContext2d.obj
 0002:00011660       ??_C@_06CGLIEPEJ@middle@   000000018006f660     CanvasRenderingContext2d.obj
 0002:00011668       ??_C@_0M@JCPEIEF@ideographic@ 000000018006f668     CanvasRenderingContext2d.obj
 0002:00011678       ??_C@_07IDCFLKHN@hanging@  000000018006f678     CanvasRenderingContext2d.obj
 0002:00011680       ??_C@_0EB@HAGOBKFD@Method?5Context2d?4SetTextBaselin@ 000000018006f680     CanvasRenderingContext2d.obj
 0002:000116c8       ??_C@_0DO@IKBGKIHA@Method?5Context2d?4GetTextAlign?5c@ 000000018006f6c8     CanvasRenderingContext2d.obj
 0002:00011708       ??_C@_04GOOOJOPP@left@     000000018006f708     CanvasRenderingContext2d.obj
 0002:00011710       ??_C@_05FAGFPHJG@start@    000000018006f710     CanvasRenderingContext2d.obj
 0002:00011718       ??_C@_06BBLOAEEI@center@   000000018006f718     CanvasRenderingContext2d.obj
 0002:00011720       ??_C@_05DHJDAOHK@right@    000000018006f720     CanvasRenderingContext2d.obj
 0002:00011728       ??_C@_0DO@FABBKAMN@Method?5Context2d?4SetTextAlign?5c@ 000000018006f728     CanvasRenderingContext2d.obj
 0002:00011768       ??_C@_0BG@IGICBKHO@actualBoundingBoxLeft@ 000000018006f768     CanvasRenderingContext2d.obj
 0002:00011780       ??_C@_0BH@KNMENBEI@actualBoundingBoxRight@ 000000018006f780     CanvasRenderingContext2d.obj
 0002:00011798       ??_C@_0BI@NBNJEOJE@actualBoundingBoxAscent@ 000000018006f798     CanvasRenderingContext2d.obj
 0002:000117b0       ??_C@_0BJ@LKCIMDON@actualBoundingBoxDescent@ 000000018006f7b0     CanvasRenderingContext2d.obj
 0002:000117d0       ??_C@_0P@FGHEPLGI@emHeightAscent@ 000000018006f7d0     CanvasRenderingContext2d.obj
 0002:000117e0       ??_C@_0BA@OKENAGP@emHeightDescent@ 000000018006f7e0     CanvasRenderingContext2d.obj
 0002:000117f0       ??_C@_0BD@NGFBNEGE@alphabeticBaseline@ 000000018006f7f0     CanvasRenderingContext2d.obj
 0002:00011810       ??_C@_0ED@EBDMBNNI@Method?5Context2d?4SetLineDashOff@ 000000018006f810     CanvasRenderingContext2d.obj
 0002:00011860       ??_C@_0ED@BCEHMCIC@Method?5Context2d?4GetLineDashOff@ 000000018006f860     CanvasRenderingContext2d.obj
 0002:000118a4       ??_C@_01FJMABOPO@x@        000000018006f8a4     CanvasRenderingContext2d.obj
 0002:000118a8       ??_C@_01EANLCPLP@y@        000000018006f8a8     CanvasRenderingContext2d.obj
 0002:000118b0       ??_C@_0BI@KFJLDJOA@radii?5must?5be?5positive?4@ 000000018006f8b0     CanvasRenderingContext2d.obj
 0002:000118c8       ??_C@_0DH@KAODBHOC@radii?5must?5be?5a?5list?5of?5one?0?5tw@ 000000018006f8c8     CanvasRenderingContext2d.obj
 0002:00011900       ??_C@_0CB@FPKIEPGG@The?5radius?5provided?5is?5negative@ 000000018006f900     CanvasRenderingContext2d.obj
 0002:00011928       ??_C@_0BC@KBDMBKEH@deque?$DMT?$DO?5too?5long@ 000000018006f928     CanvasRenderingContext2d.obj
 0002:00011940       ??_7Context2d@@6B@         000000018006f940     CanvasRenderingContext2d.obj
 0002:00011958       ??_C@_0M@CEEDCJLA@transparent@ 000000018006f958     color.obj
 0002:00011968       ??_C@_09GNHGKALJ@aliceblue@ 000000018006f968     color.obj
 0002:00011978       ??_C@_0N@OJFLMGEJ@antiquewhite@ 000000018006f978     color.obj
 0002:00011988       ??_C@_04GANAGBLL@aqua@     000000018006f988     color.obj
 0002:00011990       ??_C@_0L@MOKEMMG@aquamarine@ 000000018006f990     color.obj
 0002:0001199c       ??_C@_05CNOJAJLP@azure@    000000018006f99c     color.obj
 0002:000119a4       ??_C@_05EJOPPCPO@beige@    000000018006f9a4     color.obj
 0002:000119ac       ??_C@_06HGAAELGA@bisque@   000000018006f9ac     color.obj
 0002:000119b4       ??_C@_05BIMBDNDC@black@    000000018006f9b4     color.obj
 0002:000119c0       ??_C@_0P@CMCBOAOE@blanchedalmond@ 000000018006f9c0     color.obj
 0002:000119d0       ??_C@_04OBGPFBCN@blue@     000000018006f9d0     color.obj
 0002:000119d8       ??_C@_0L@LKLKALMM@blueviolet@ 000000018006f9d8     color.obj
 0002:000119e4       ??_C@_05EBJGJMAL@brown@    000000018006f9e4     color.obj
 0002:000119f0       ??_C@_09JHLANABP@burlywood@ 000000018006f9f0     color.obj
 0002:00011a00       ??_C@_09KIJDGGAG@cadetblue@ 000000018006fa00     color.obj
 0002:00011a10       ??_C@_0L@CHNAEACO@chartreuse@ 000000018006fa10     color.obj
 0002:00011a20       ??_C@_09BPADAHOC@chocolate@ 000000018006fa20     color.obj
 0002:00011a2c       ??_C@_05JKFECOJP@coral@    000000018006fa2c     color.obj
 0002:00011a38       ??_C@_0P@KLMOGGLK@cornflowerblue@ 000000018006fa38     color.obj
 0002:00011a48       ??_C@_08DECOJLB@cornsilk@  000000018006fa48     color.obj
 0002:00011a58       ??_C@_07DAGIGOOE@crimson@  000000018006fa58     color.obj
 0002:00011a60       ??_C@_04EDBDANFH@cyan@     000000018006fa60     color.obj
 0002:00011a68       ??_C@_08MFEOPMII@darkblue@ 000000018006fa68     color.obj
 0002:00011a78       ??_C@_08GHDCKAPC@darkcyan@ 000000018006fa78     color.obj
 0002:00011a88       ??_C@_0O@GGJPBKNE@darkgoldenrod@ 000000018006fa88     color.obj
 0002:00011a98       ??_C@_08EADAAFKF@darkgray@ 000000018006fa98     color.obj
 0002:00011aa8       ??_C@_09MHNMOMAI@darkgreen@ 000000018006faa8     color.obj
 0002:00011ab8       ??_C@_08EHDJKNHJ@darkgrey@ 000000018006fab8     color.obj
 0002:00011ac8       ??_C@_09FAPDIPMK@darkkhaki@ 000000018006fac8     color.obj
 0002:00011ad8       ??_C@_0M@MEEFECHN@darkmagenta@ 000000018006fad8     color.obj
 0002:00011ae8       ??_C@_0P@BGCLDNDK@darkolivegreen@ 000000018006fae8     color.obj
 0002:00011af8       ??_C@_0L@ICJJPBF@darkorange@ 000000018006faf8     color.obj
 0002:00011b08       ??_C@_0L@EEAHIPOC@darkorchid@ 000000018006fb08     color.obj
 0002:00011b18       ??_C@_07MFAOOMGP@darkred@  000000018006fb18     color.obj
 0002:00011b20       ??_C@_0L@CKNHPKLG@darksalmon@ 000000018006fb20     color.obj
 0002:00011b30       ??_C@_0N@FBOCOPGH@darkseagreen@ 000000018006fb30     color.obj
 0002:00011b40       ??_C@_0O@PABAFENG@darkslateblue@ 000000018006fb40     color.obj
 0002:00011b50       ??_C@_0O@HFGOKNPL@darkslategray@ 000000018006fb50     color.obj
 0002:00011b60       ??_C@_0O@HCGHAFCH@darkslategrey@ 000000018006fb60     color.obj
 0002:00011b70       ??_C@_0O@HKLGOIEA@darkturquoise@ 000000018006fb70     color.obj
 0002:00011b80       ??_C@_0L@NGBKDFME@darkviolet@ 000000018006fb80     color.obj
 0002:00011b90       ??_C@_08CJGCPHKF@deeppink@ 000000018006fb90     color.obj
 0002:00011ba0       ??_C@_0M@BGGBNDNG@deepskyblue@ 000000018006fba0     color.obj
 0002:00011bb0       ??_C@_07DJPEDLIH@dimgray@  000000018006fbb0     color.obj
 0002:00011bb8       ??_C@_07DOPNJDFL@dimgrey@  000000018006fbb8     color.obj
 0002:00011bc0       ??_C@_0L@MIOOBLBJ@dodgerblue@ 000000018006fbc0     color.obj
 0002:00011bd0       ??_C@_09ELCPEDIM@firebrick@ 000000018006fbd0     color.obj
 0002:00011be0       ??_C@_0M@FFMCAIP@floralwhite@ 000000018006fbe0     color.obj
 0002:00011bf0       ??_C@_0M@HBKAKFBN@forestgreen@ 000000018006fbf0     color.obj
 0002:00011c00       ??_C@_07FHEBJCGF@fuchsia@  000000018006fc00     color.obj
 0002:00011c08       ??_C@_09MIGKOGAO@gainsboro@ 000000018006fc08     color.obj
 0002:00011c18       ??_C@_0L@CELMEDAA@ghostwhite@ 000000018006fc18     color.obj
 0002:00011c24       ??_C@_04DBNGNIAN@gold@     000000018006fc24     color.obj
 0002:00011c30       ??_C@_09KJDOAGJL@goldenrod@ 000000018006fc30     color.obj
 0002:00011c3c       ??_C@_05GBEEJKMC@green@    000000018006fc3c     color.obj
 0002:00011c48       ??_C@_0M@LFPLFELJ@greenyellow@ 000000018006fc48     color.obj
 0002:00011c54       ??_C@_04GDBIAANM@grey@     000000018006fc54     color.obj
 0002:00011c60       ??_C@_08BKNCNHLL@honeydew@ 000000018006fc60     color.obj
 0002:00011c70       ??_C@_07PCCOEED@hotpink@   000000018006fc70     color.obj
 0002:00011c78       ??_C@_09IELIJPNO@indianred@ 000000018006fc78     color.obj
 0002:00011c84       ??_C@_06MLCCIEFE@indigo@   000000018006fc84     color.obj
 0002:00011c8c       ??_C@_05NNJJIMHF@ivory@    000000018006fc8c     color.obj
 0002:00011c94       ??_C@_05PGGLPJAA@khaki@    000000018006fc94     color.obj
 0002:00011ca0       ??_C@_08KJDCPJPL@lavender@ 000000018006fca0     color.obj
 0002:00011cb0       ??_C@_0O@CCCMFNCK@lavenderblush@ 000000018006fcb0     color.obj
 0002:00011cc0       ??_C@_09MONDINDP@lawngreen@ 000000018006fcc0     color.obj
 0002:00011cd0       ??_C@_0N@ICDCAEHK@lemonchiffon@ 000000018006fcd0     color.obj
 0002:00011ce0       ??_C@_09NBIPJLA@lightblue@ 000000018006fce0     color.obj
 0002:00011cf0       ??_C@_0L@BEAGLGMO@lightcoral@ 000000018006fcf0     color.obj
 0002:00011d00       ??_C@_09KPGEKFMK@lightcyan@ 000000018006fd00     color.obj
 0002:00011d10       ??_C@_0BF@PJADCIND@lightgoldenrodyellow@ 000000018006fd10     color.obj
 0002:00011d28       ??_C@_09IIGGAAJN@lightgray@ 000000018006fd28     color.obj
 0002:00011d38       ??_C@_0L@OPBGACJD@lightgreen@ 000000018006fd38     color.obj
 0002:00011d48       ??_C@_09IPGPKIEB@lightgrey@ 000000018006fd48     color.obj
 0002:00011d58       ??_C@_09KOBGKMHP@lightpink@ 000000018006fd58     color.obj
 0002:00011d68       ??_C@_0M@ENCCHKJE@lightsalmon@ 000000018006fd68     color.obj
 0002:00011d78       ??_C@_0O@BLOIENJC@lightseagreen@ 000000018006fd78     color.obj
 0002:00011d88       ??_C@_0N@JIFIFCAN@lightskyblue@ 000000018006fd88     color.obj
 0002:00011d98       ??_C@_0P@LIPDKBMK@lightslategray@ 000000018006fd98     color.obj
 0002:00011da8       ??_C@_0P@LPPKAJBG@lightslategrey@ 000000018006fda8     color.obj
 0002:00011db8       ??_C@_0P@EIHJHAMG@lightsteelblue@ 000000018006fdb8     color.obj
 0002:00011dc8       ??_C@_0M@FBHPKJLB@lightyellow@ 000000018006fdc8     color.obj
 0002:00011dd4       ??_C@_04HLLEONLG@lime@     000000018006fdd4     color.obj
 0002:00011de0       ??_C@_09JKHHFGDO@limegreen@ 000000018006fde0     color.obj
 0002:00011dec       ??_C@_05MLLCELJD@linen@    000000018006fdec     color.obj
 0002:00011df8       ??_C@_07EMDGAPCI@magenta@  000000018006fdf8     color.obj
 0002:00011e00       ??_C@_06BDPIEPJF@maroon@   000000018006fe00     color.obj
 0002:00011e08       ??_C@_0BB@HHCOFKIC@mediumaquamarine@ 000000018006fe08     color.obj
 0002:00011e20       ??_C@_0L@CEFFILOH@mediumblue@ 000000018006fe20     color.obj
 0002:00011e30       ??_C@_0N@GIADPNAO@mediumorchid@ 000000018006fe30     color.obj
 0002:00011e40       ??_C@_0N@DDGNBDHJ@mediumpurple@ 000000018006fe40     color.obj
 0002:00011e50       ??_C@_0P@BNCCGPJD@mediumseagreen@ 000000018006fe50     color.obj
 0002:00011e60       ??_C@_0BA@EKIMKCFD@mediumslateblue@ 000000018006fe60     color.obj
 0002:00011e70       ??_C@_0BC@POGDBPNO@mediumspringgreen@ 000000018006fe70     color.obj
 0002:00011e88       ??_C@_0BA@MACKBOMF@mediumturquoise@ 000000018006fe88     color.obj
 0002:00011e98       ??_C@_0BA@PNNCDMHM@mediumvioletred@ 000000018006fe98     color.obj
 0002:00011ea8       ??_C@_0N@PJDKAOHK@midnightblue@ 000000018006fea8     color.obj
 0002:00011eb8       ??_C@_09INCGBEJA@mintcream@ 000000018006feb8     color.obj
 0002:00011ec8       ??_C@_09HABDAMOF@mistyrose@ 000000018006fec8     color.obj
 0002:00011ed8       ??_C@_08OIIPPDDA@moccasin@ 000000018006fed8     color.obj
 0002:00011ee8       ??_C@_0M@OKLAMJCL@navajowhite@ 000000018006fee8     color.obj
 0002:00011ef4       ??_C@_04DCMEIHPF@navy@     000000018006fef4     color.obj
 0002:00011f00       ??_C@_07MBCGBJON@oldlace@  000000018006ff00     color.obj
 0002:00011f08       ??_C@_05OFIFEKBG@olive@    000000018006ff08     color.obj
 0002:00011f10       ??_C@_09CNLBGLAE@olivedrab@ 000000018006ff10     color.obj
 0002:00011f1c       ??_C@_06HDDOCMMN@orange@   000000018006ff1c     color.obj
 0002:00011f28       ??_C@_09OPJMLMBK@orangered@ 000000018006ff28     color.obj
 0002:00011f34       ??_C@_06DPBADMDK@orchid@   000000018006ff34     color.obj
 0002:00011f40       ??_C@_0O@KONOLMEH@palegoldenrod@ 000000018006ff40     color.obj
 0002:00011f50       ??_C@_09NAJHJFNO@palegreen@ 000000018006ff50     color.obj
 0002:00011f60       ??_C@_0O@LCPHEOND@paleturquoise@ 000000018006ff60     color.obj
 0002:00011f70       ??_C@_0O@IPAPGMGK@palevioletred@ 000000018006ff70     color.obj
 0002:00011f80       ??_C@_0L@NPJMDDDD@papayawhip@ 000000018006ff80     color.obj
 0002:00011f90       ??_C@_09GELOGGEC@peachpuff@ 000000018006ff90     color.obj
 0002:00011f9c       ??_C@_04MJMKNOJB@peru@     000000018006ff9c     color.obj
 0002:00011fa4       ??_C@_04ECGBAEOC@pink@     000000018006ffa4     color.obj
 0002:00011fac       ??_C@_04DDJGBPMH@plum@     000000018006ffac     color.obj
 0002:00011fb8       ??_C@_0L@MNADNFAH@powderblue@ 000000018006ffb8     color.obj
 0002:00011fc4       ??_C@_06GEHONCEN@purple@   000000018006ffc4     color.obj
 0002:00011fd0       ??_C@_0O@JGOBAAIL@rebeccapurple@ 000000018006ffd0     color.obj
 0002:00011fe0       ??_C@_03FAAAOPJM@red@      000000018006ffe0     color.obj
 0002:00011fe8       ??_C@_09DJJHENIF@rosybrown@ 000000018006ffe8     color.obj
 0002:00011ff8       ??_C@_09FEEJNHFN@royalblue@ 000000018006fff8     color.obj
 0002:00012008       ??_C@_0M@MOEGEDCP@saddlebrown@ 0000000180070008     color.obj
 0002:00012014       ??_C@_06FBMAEJGO@salmon@   0000000180070014     color.obj
 0002:00012020       ??_C@_0L@HLMGLGHH@sandybrown@ 0000000180070020     color.obj
 0002:00012030       ??_C@_08EKGLDJFB@seagreen@ 0000000180070030     color.obj
 0002:00012040       ??_C@_08MFJLKPPC@seashell@ 0000000180070040     color.obj
 0002:0001204c       ??_C@_06CEGMHAGE@sienna@   000000018007004c     color.obj
 0002:00012054       ??_C@_06NBGLMDBG@silver@   0000000180070054     color.obj
 0002:00012060       ??_C@_07MFCMKLDM@skyblue@  0000000180070060     color.obj
 0002:00012068       ??_C@_09DPLBEIJJ@slateblue@ 0000000180070068     color.obj
 0002:00012078       ??_C@_09LKMPLBLE@slategray@ 0000000180070078     color.obj
 0002:00012088       ??_C@_09LNMGBJGI@slategrey@ 0000000180070088     color.obj
 0002:00012094       ??_C@_04HPKDHBOB@snow@     0000000180070094     color.obj
 0002:000120a0       ??_C@_0M@IPKJFOEB@springgreen@ 00000001800700a0     color.obj
 0002:000120b0       ??_C@_09EKEFGALI@steelblue@ 00000001800700b0     color.obj
 0002:000120bc       ??_C@_03IIINPABG@tan@      00000001800700bc     color.obj
 0002:000120c0       ??_C@_04LJCKMMGA@teal@     00000001800700c0     color.obj
 0002:000120c8       ??_C@_07CGANODJO@thistle@  00000001800700c8     color.obj
 0002:000120d0       ??_C@_06NALDPNEI@tomato@   00000001800700d0     color.obj
 0002:000120d8       ??_C@_09LFBHPEAP@turquoise@ 00000001800700d8     color.obj
 0002:000120e4       ??_C@_06KNANIGBM@violet@   00000001800700e4     color.obj
 0002:000120ec       ??_C@_05PPOGEFHN@wheat@    00000001800700ec     color.obj
 0002:000120f4       ??_C@_05PMAELIEO@white@    00000001800700f4     color.obj
 0002:00012100       ??_C@_0L@FDFMBGNF@whitesmoke@ 0000000180070100     color.obj
 0002:0001210c       ??_C@_06ENJNJKEL@yellow@   000000018007010c     color.obj
 0002:00012118       ??_C@_0M@GCLLLGON@yellowgreen@ 0000000180070118     color.obj
 0002:00012128       ??_C@_0O@CAFKCKKM@?$CD?$CF?42x?$CF?42x?$CF?42x@ 0000000180070128     color.obj
 0002:00012138       ??_C@_0BH@IMKFBGII@rgba?$CI?$CFd?0?5?$CFd?0?5?$CFd?0?5?$CF?42f?$CJ@ 0000000180070138     color.obj
 0002:00012150       ??_C@_04KDAMFBD@rgb?$CI@   0000000180070150     color.obj
 0002:00012158       ??_C@_05KGKCGJPO@rgba?$CI@ 0000000180070158     color.obj
 0002:00012160       ??_C@_05HBFAAOHC@hsla?$CI@ 0000000180070160     color.obj
 0002:00012168       ??_C@_04PFIFKHPC@hsl?$CI@  0000000180070168     color.obj
 0002:00012170       ??_C@_04CLILDBFP@rgba@     0000000180070170     color.obj
 0002:00012178       ??_C@_03FNOJMHE@rgb@       0000000180070178     color.obj
 0002:0001217c       ??_C@_04NEDOFDLO@hsla@     000000018007017c     color.obj
 0002:00012184       ??_C@_03LPNGANKN@hsl@      0000000180070184     color.obj
 0002:00012188       ??_C@_05NBEAGECF@Image@    0000000180070188     Image.obj
 0002:00012190       ??_C@_08IPNIAGNA@complete@ 0000000180070190     Image.obj
 0002:000121a0       ??_C@_0N@KIMBCBLK@naturalWidth@ 00000001800701a0     Image.obj
 0002:000121b0       ??_C@_0O@DMCHDHNN@naturalHeight@ 00000001800701b0     Image.obj
 0002:000121c0       ??_C@_08ELMFDEKI@dataMode@ 00000001800701c0     Image.obj
 0002:000121d0       ??_C@_0L@ICMMJJAL@MODE_IMAGE@ 00000001800701d0     Image.obj
 0002:000121e0       ??_C@_09IDBFNFDI@MODE_MIME@ 00000001800701e0     Image.obj
 0002:000121f0       ??_C@_09BHHNHDEH@GetSource@ 00000001800701f0     Image.obj
 0002:00012200       ??_C@_09DJDIFCNF@SetSource@ 0000000180070200     Image.obj
 0002:0001220c       ??_C@_06FKJAAAAK@onload@   000000018007020c     Image.obj
 0002:00012218       ??_C@_07MAAHHAB@onerror@   0000000180070218     Image.obj
 0002:00012220       ??_C@_0DJ@KOHKEFDI@Method?5Image?4GetDataMode?5called@ 0000000180070220     Image.obj
 0002:00012260       ??_C@_0DJ@MJMKCIFD@Method?5Image?4SetDataMode?5called@ 0000000180070260     Image.obj
 0002:000122a0       ??_C@_0DN@BNCJOLAP@Method?5Image?4GetNaturalWidth?5ca@ 00000001800702a0     Image.obj
 0002:000122e0       ??_C@_0DG@MLIMNPKK@Method?5Image?4GetWidth?5called?5on@ 00000001800702e0     Image.obj
 0002:00012318       ??_C@_0DG@IHMBKJLE@Method?5Image?4SetWidth?5called?5on@ 0000000180070318     Image.obj
 0002:00012350       ??_C@_0DO@LENNAJNL@Method?5Image?4GetNaturalHeight?5c@ 0000000180070350     Image.obj
 0002:00012390       ??_C@_0DH@BCLHPLII@Method?5Image?4GetHeight?5called?5o@ 0000000180070390     Image.obj
 0002:000123c8       ??_C@_0DH@OIPEILJN@Method?5Image?4SetHeight?5called?5o@ 00000001800703c8     Image.obj
 0002:00012400       ??_C@_0DH@EAEKIGFG@Method?5Image?4GetSource?5called?5o@ 0000000180070400     Image.obj
 0002:00012438       ??_C@_0DH@LKAJPGED@Method?5Image?4SetSource?5called?5o@ 0000000180070438     Image.obj
 0002:00012470       ??_C@_0BH@DEJIGAIG@Unsupported?5image?5type@ 0000000180070470     Image.obj
 0002:00012488       ??_C@_02JDPG@rb@           0000000180070488     Image.obj
 0002:0001248c       ??_C@_05FFKPLNPJ@fopen@    000000018007048c     Image.obj
 0002:00012494       ??_C@_06GLDDLHNF@malloc@   0000000180070494     Image.obj
 0002:000124a0       ??_C@_0BK@DBBCPGCH@Unsupported?5JPEG?5encoding@ 00000001800704a0     Image.obj
 0002:00012520       ??_7Image@@6B@             0000000180070520     Image.obj
 0002:00012568       ??_C@_09NIGIGFDC@ImageData@ 0000000180070568     ImageData.obj
 0002:00012578       ??_C@_0BK@BFELGOEH@The?5source?5width?5is?5zero?4@ 0000000180070578     ImageData.obj
 0002:00012598       ??_C@_0BL@EMOEEHOI@The?5source?5height?5is?5zero?4@ 0000000180070598     ImageData.obj
 0002:000125b8       ??_C@_0CH@IEOMAMPI@The?5input?5data?5has?5a?5zero?5byte?5@ 00000001800705b8     ImageData.obj
 0002:000125e0       ??_C@_0GB@KDECOCKL@Expected?5?$CIUint8ClampedArray?0?5wi@ 00000001800705e0     ImageData.obj
 0002:00012644       ??_C@_04PJOLNDGD@data@     0000000180070644     ImageData.obj
 0002:00012650       ??_C@_0DK@MBDIPHCG@Method?5ImageData?4GetWidth?5calle@ 0000000180070650     ImageData.obj
 0002:00012690       ??_C@_0DL@PGLDIAKL@Method?5ImageData?4GetHeight?5call@ 0000000180070690     ImageData.obj
 0002:000126d0       ??_7ImageData@@6B@         00000001800706d0     ImageData.obj
 0002:000126e8       ??_C@_0N@OGDOEBIM@cairoVersion@ 00000001800706e8     init.obj
 0002:000126f8       ??_C@_04PEOOHEKN@?$CFd?$CFc@ 00000001800706f8     init.obj
 0002:00012700       ??_C@_02DPKJAMEF@?$CFd@    0000000180070700     init.obj
 0002:00012708       ??_C@_0M@PLCFBBDI@jpegVersion@ 0000000180070708     init.obj
 0002:00012718       ??_C@_08FOJKHHJA@?$CFd?4?$CFd?4?$CFd@ 0000000180070718     init.obj
 0002:00012728       ??_C@_0L@KDJIMHFH@gifVersion@ 0000000180070728     init.obj
 0002:00012734       ??_C@_06DKHDKDIB@2?455?41@ 0000000180070734     init.obj
 0002:00012740       ??_C@_0M@KEEKNGNA@rsvgVersion@ 0000000180070740     init.obj
 0002:00012750       ??_C@_07BKLHEPDE@1?450?411@ 0000000180070750     init.obj
 0002:00012758       ??_C@_0N@HEPNELH@pangoVersion@ 0000000180070758     init.obj
 0002:00012768       ??_C@_0BA@MCPGPJBI@freetypeVersion@ 0000000180070768     init.obj
 0002:00012778       ??_C@_0CJ@BILPCDG@D?3?2a?2node?9canvas?2node?9canvas?2sr@ 0000000180070778     init.obj
 0002:000127a4       ??_C@_06DODEBHEI@canvas@   00000001800707a4     init.obj
 0002:000127ac       ??_C@_03BNMJFLDC@MAC@      00000001800707ac     register_font.obj
 0002:000127b0       ??_C@_08NLKHJAFK@UTF?916BE@ 00000001800707b0     register_font.obj
 0002:000127bc       ??_C@_05EGJIMALK@UTF?98@   00000001800707bc     register_font.obj
 0002:000127c8       ??_C@_08JDDNMFDB@node?4exe@ 00000001800707c8     win_delay_load_hook.obj
 0002:000127d4       __real@00000000            00000001800707d4     color.obj
 0002:000127d8       __real@3a800000            00000001800707d8     CanvasRenderingContext2d.obj
 0002:000127dc       __real@3dcccccd            00000001800707dc     color.obj
 0002:000127e0       __real@3f000000            00000001800707e0     CanvasRenderingContext2d.obj
 0002:000127e4       __real@3f13cd36            00000001800707e4     CanvasRenderingContext2d.obj
 0002:000127e8       __real@3f50000000000000    00000001800707e8     CanvasRenderingContext2d.obj
 0002:000127f0       __real@3f800000            00000001800707f0     color.obj
 0002:000127f8       __real@3fe0000000000000    00000001800707f8     CanvasRenderingContext2d.obj
 0002:00012800       __real@3fe5555555555555    0000000180070800     CanvasRenderingContext2d.obj
 0002:00012808       __real@3ff0000000000000    0000000180070808     CanvasRenderingContext2d.obj
 0002:00012810       __real@3ff6666666666666    0000000180070810     CanvasRenderingContext2d.obj
 0002:00012818       __real@3ff8000000000000    0000000180070818     closure.obj
 0002:00012820       __real@3ff921fb54442d18    0000000180070820     CanvasRenderingContext2d.obj
 0002:00012828       __real@40000000            0000000180070828     color.obj
 0002:00012830       __real@4000000000000000    0000000180070830     CanvasRenderingContext2d.obj
 0002:00012838       __real@400921fb54442d18    0000000180070838     CanvasRenderingContext2d.obj
 0002:00012840       __real@4012d97c7f3321d2    0000000180070840     CanvasRenderingContext2d.obj
 0002:00012848       __real@401921fb54442d18    0000000180070848     CanvasRenderingContext2d.obj
 0002:00012850       __real@40400000            0000000180070850     color.obj
 0002:00012858       __real@4043af5f6fd21ff3    0000000180070858     Canvas.obj
 0002:00012860       __real@4059000000000000    0000000180070860     Canvas.obj
 0002:00012868       __real@406fe00000000000    0000000180070868     color.obj
 0002:00012870       __real@40800000            0000000180070870     color.obj
 0002:00012878       __real@408f400000000000    0000000180070878     Canvas.obj
 0002:00012880       __real@4090000000000000    0000000180070880     CanvasRenderingContext2d.obj
 0002:00012888       __real@40c00000            0000000180070888     color.obj
 0002:00012890       __real@40c4000000000000    0000000180070890     CanvasRenderingContext2d.obj
 0002:00012898       __real@41200000            0000000180070898     color.obj
 0002:0001289c       __real@42c80000            000000018007089c     color.obj
 0002:000128a0       __real@437f0000            00000001800708a0     color.obj
 0002:000128a4       __real@43b40000            00000001800708a4     color.obj
 0002:000128a8       __real@43e0000000000000    00000001800708a8     closure.obj
 0002:000128b0       __real@477fff00            00000001800708b0     CanvasRenderingContext2d.obj
 0002:000128b4       __real@5f000000            00000001800708b4     Canvas.obj
 0002:000128b8       __real@7ff0000000000000    00000001800708b8     CanvasRenderingContext2d.obj
 0002:000128c0       __real@bff0000000000000    00000001800708c0     Canvas.obj
 0002:000128c8       __real@c01921fb54442d18    00000001800708c8     CanvasRenderingContext2d.obj
 0002:000128d0       __real@c0c00000            00000001800708d0     color.obj
 0002:000128e0       __xmm@000000000000000f0000000000000000 00000001800708e0     Image.obj
 0002:000128f0       __xmm@7fffffffffffffff7fffffffffffffff 00000001800708f0     CanvasRenderingContext2d.obj
 0002:00012900       __xmm@80000000000000008000000000000000 0000000180070900     CanvasRenderingContext2d.obj
 0002:00012910       __xmm@80000000800000008000000080000000 0000000180070910     CanvasRenderingContext2d.obj
 0002:00012920       __real@3c91a62633145c07    0000000180070920     libucrt:acos.obj
 0002:00012928       __real@3f0951665d321061    0000000180070928     libucrt:acos.obj
 0002:00012930       __real@3f51e5f887a62135    0000000180070930     libucrt:acos.obj
 0002:00012938       __real@3fac28d390c29690    0000000180070938     libucrt:acos.obj
 0002:00012940       __real@3fbb1a422982ce76    0000000180070940     libucrt:acos.obj
 0002:00012948       __real@3fcd1e4180029834    0000000180070948     libucrt:acos.obj
 0002:00012950       __real@3fd1a2bec1b7ef59    0000000180070950     libucrt:acos.obj
 0002:00012958       __real@3fdc7b297e269eac    0000000180070958     libucrt:acos.obj
 0002:00012960       __real@3fee324ab418f78d    0000000180070960     libucrt:acos.obj
 0002:00012968       __real@3ff5d6b12001f228    0000000180070968     libucrt:acos.obj
 0002:00012970       __real@40062021571dccfc    0000000180070970     libucrt:acos.obj
 0002:00012978       __real@400a4646f903cdea    0000000180070978     libucrt:acos.obj
 0002:00012980       ??_C@_05FFFCHCED@acosf@    0000000180070980     libucrt:acosf.obj
 0002:00012988       __real@3b81ce6b            0000000180070988     libucrt:acosf.obj
 0002:0001298c       __real@3d678bdd            000000018007098c     libucrt:acosf.obj
 0002:00012990       __real@3e3c94dc            0000000180070990     libucrt:acosf.obj
 0002:00012994       __real@3f561f0d            0000000180070994     libucrt:acosf.obj
 0002:00012998       __real@3f8d6fa5            0000000180070998     libucrt:acosf.obj
 0002:0001299c       __real@3fc90fdb            000000018007099c     libucrt:acosf.obj
 0002:000129a0       __real@40490fdb            00000001800709a0     libucrt:acosf.obj
 0002:000129a4       __real@bc5b3fe1            00000001800709a4     libucrt:acosf.obj
 0002:000129a8       __real@bf800000            00000001800709a8     libucrt:acosf.obj
 0002:00012a30       ??_C@_05OOAOEJGP@fmodf@    0000000180070a30     libucrt:fmodf.obj
 0002:00012a38       ??_C@_05KGFAIMPG@sqrtf@    0000000180070a38     libucrt:sqrtf.obj
 0002:00012ef0       __L_2_by_pi_bits           0000000180070ef0     libucrt:l2_by_pi_bits.obj
 0002:00013000       ??_R4exception@std@@6B@    0000000180071000     libcpmt:xthrow.obj
 0002:00013028       ??_R3exception@std@@8      0000000180071028     libcpmt:xthrow.obj
 0002:00013040       ??_R2exception@std@@8      0000000180071040     libcpmt:xthrow.obj
 0002:00013050       ??_R1A@?0A@EA@exception@std@@8 0000000180071050     libcpmt:xthrow.obj
 0002:00013078       ??_R4bad_alloc@std@@6B@    0000000180071078     libcpmt:xthrow.obj
 0002:000130a0       ??_R3bad_alloc@std@@8      00000001800710a0     libcpmt:xthrow.obj
 0002:000130b8       ??_R2bad_alloc@std@@8      00000001800710b8     libcpmt:xthrow.obj
 0002:000130d0       ??_R1A@?0A@EA@bad_alloc@std@@8 00000001800710d0     libcpmt:xthrow.obj
 0002:000130f8       ??_R4bad_function_call@std@@6B@ 00000001800710f8     libcpmt:xthrow.obj
 0002:00013120       ??_R3bad_function_call@std@@8 0000000180071120     libcpmt:xthrow.obj
 0002:00013138       ??_R2bad_function_call@std@@8 0000000180071138     libcpmt:xthrow.obj
 0002:00013150       ??_R1A@?0A@EA@bad_function_call@std@@8 0000000180071150     libcpmt:xthrow.obj
 0002:00013178       ??_R4logic_error@std@@6B@  0000000180071178     libcpmt:xthrow.obj
 0002:000131a0       ??_R3logic_error@std@@8    00000001800711a0     libcpmt:xthrow.obj
 0002:000131b8       ??_R2logic_error@std@@8    00000001800711b8     libcpmt:xthrow.obj
 0002:000131d0       ??_R1A@?0A@EA@logic_error@std@@8 00000001800711d0     libcpmt:xthrow.obj
 0002:000131f8       ??_R4length_error@std@@6B@ 00000001800711f8     libcpmt:xthrow.obj
 0002:00013220       ??_R3length_error@std@@8   0000000180071220     libcpmt:xthrow.obj
 0002:00013238       ??_R2length_error@std@@8   0000000180071238     libcpmt:xthrow.obj
 0002:00013258       ??_R1A@?0A@EA@length_error@std@@8 0000000180071258     libcpmt:xthrow.obj
 0002:00013280       ??_R4runtime_error@std@@6B@ 0000000180071280     libcpmt:xthrow.obj
 0002:000132a8       ??_R3runtime_error@std@@8  00000001800712a8     libcpmt:xthrow.obj
 0002:000132c0       ??_R2runtime_error@std@@8  00000001800712c0     libcpmt:xthrow.obj
 0002:000132d8       ??_R1A@?0A@EA@runtime_error@std@@8 00000001800712d8     libcpmt:xthrow.obj
 0002:00013300       ??_R4_Facet_base@std@@6B@  0000000180071300     libcpmt:locale0.obj
 0002:00013328       ??_R3_Facet_base@std@@8    0000000180071328     libcpmt:locale0.obj
 0002:00013340       ??_R2_Facet_base@std@@8    0000000180071340     libcpmt:locale0.obj
 0002:00013350       ??_R1A@?0A@EA@_Facet_base@std@@8 0000000180071350     libcpmt:locale0.obj
 0002:00013378       ??_R4_Locimp@locale@std@@6B@ 0000000180071378     libcpmt:locale0.obj
 0002:000133a0       ??_R3_Locimp@locale@std@@8 00000001800713a0     libcpmt:locale0.obj
 0002:000133b8       ??_R2_Locimp@locale@std@@8 00000001800713b8     libcpmt:locale0.obj
 0002:000133e0       ??_R1A@?0A@EA@_Locimp@locale@std@@8 00000001800713e0     libcpmt:locale0.obj
 0002:00013408       ??_R1A@?0A@EA@facet@locale@std@@8 0000000180071408     libcpmt:locale0.obj
 0002:00013430       ??_R3facet@locale@std@@8   0000000180071430     libcpmt:locale0.obj
 0002:00013448       ??_R2facet@locale@std@@8   0000000180071448     libcpmt:locale0.obj
 0002:00013468       ??_R17?0A@EA@_Crt_new_delete@std@@8 0000000180071468     libcpmt:locale0.obj
 0002:00013490       ??_R3_Crt_new_delete@std@@8 0000000180071490     libcpmt:locale0.obj
 0002:000134a8       ??_R2_Crt_new_delete@std@@8 00000001800714a8     libcpmt:locale0.obj
 0002:000134b8       ??_R1A@?0A@EA@_Crt_new_delete@std@@8 00000001800714b8     libcpmt:locale0.obj
 0002:000134e0       ??_R4bad_array_new_length@std@@6B@ 00000001800714e0     libcpmt:locale.obj
 0002:00013508       ??_R3bad_array_new_length@std@@8 0000000180071508     libcpmt:locale.obj
 0002:00013520       ??_R2bad_array_new_length@std@@8 0000000180071520     libcpmt:locale.obj
 0002:00013540       ??_R1A@?0A@EA@bad_array_new_length@std@@8 0000000180071540     libcpmt:locale.obj
 0002:00013568       ??_R3ctype_base@std@@8     0000000180071568     libcpmt:locale.obj
 0002:00013580       ??_R2ctype_base@std@@8     0000000180071580     libcpmt:locale.obj
 0002:000135a8       ??_R1A@?0A@EA@ctype_base@std@@8 00000001800715a8     libcpmt:locale.obj
 0002:000135d0       ??_R4?$ctype@D@std@@6B@    00000001800715d0     libcpmt:locale.obj
 0002:000135f8       ??_R3?$ctype@D@std@@8      00000001800715f8     libcpmt:locale.obj
 0002:00013610       ??_R2?$ctype@D@std@@8      0000000180071610     libcpmt:locale.obj
 0002:00013640       ??_R1A@?0A@EA@?$ctype@D@std@@8 0000000180071640     libcpmt:locale.obj
 0002:00013668       ??_R4type_info@@6B@        0000000180071668     LIBCMT:std_type_info_static.obj
 0002:00013690       ??_R3type_info@@8          0000000180071690     LIBCMT:std_type_info_static.obj
 0002:000136a8       ??_R2type_info@@8          00000001800716a8     LIBCMT:std_type_info_static.obj
 0002:000136b8       ??_R1A@?0A@EA@type_info@@8 00000001800716b8     LIBCMT:std_type_info_static.obj
 0002:000136e0       ??_R4bad_exception@std@@6B@ 00000001800716e0     libvcruntime:frame.obj
 0002:00013708       ??_R3bad_exception@std@@8  0000000180071708     libvcruntime:frame.obj
 0002:00013720       ??_R2bad_exception@std@@8  0000000180071720     libvcruntime:frame.obj
 0002:00013738       ??_R1A@?0A@EA@bad_exception@std@@8 0000000180071738     libvcruntime:frame.obj
 0002:0001375c       __volatile_metadata        000000018007175c     <linker-defined>
 0002:00013bd8       __rtc_iaa                  0000000180071bd8     LIBCMT:initsect.obj
 0002:00013be0       __rtc_izz                  0000000180071be0     LIBCMT:initsect.obj
 0002:00013be8       __rtc_taa                  0000000180071be8     LIBCMT:initsect.obj
 0002:00013bf0       __rtc_tzz                  0000000180071bf0     LIBCMT:initsect.obj
 0002:00019ce8       _CT??_R0?AVbad_alloc@std@@@8??0bad_alloc@std@@QEAA@AEBV01@@Z24 0000000180077ce8     libcpmt:xthrow.obj
 0002:00019d10       _CT??_R0?AVexception@std@@@8??0exception@std@@QEAA@AEBV01@@Z24 0000000180077d10     libcpmt:xthrow.obj
 0002:00019d38       _CT??_R0?AVruntime_error@std@@@8??0runtime_error@std@@QEAA@AEBV01@@Z24 0000000180077d38     libcpmt:xthrow.obj
 0002:00019d60       _TI2?AVbad_alloc@std@@     0000000180077d60     libcpmt:xthrow.obj
 0002:00019d80       _CTA2?AVbad_alloc@std@@    0000000180077d80     libcpmt:xthrow.obj
 0002:00019d98       _CT??_R0?AVlogic_error@std@@@8??0logic_error@std@@QEAA@AEBV01@@Z24 0000000180077d98     libcpmt:xthrow.obj
 0002:00019dc0       _TI3?AVlength_error@std@@  0000000180077dc0     libcpmt:xthrow.obj
 0002:00019de0       _CTA3?AVlength_error@std@@ 0000000180077de0     libcpmt:xthrow.obj
 0002:00019e00       _CT??_R0?AVlength_error@std@@@8??0length_error@std@@QEAA@AEBV01@@Z24 0000000180077e00     libcpmt:xthrow.obj
 0002:00019e28       _TI2?AVruntime_error@std@@ 0000000180077e28     libcpmt:xthrow.obj
 0002:00019e48       _CTA2?AVruntime_error@std@@ 0000000180077e48     libcpmt:xthrow.obj
 0002:00019e60       _TI2?AVbad_function_call@std@@ 0000000180077e60     libcpmt:xthrow.obj
 0002:00019e80       _CTA2?AVbad_function_call@std@@ 0000000180077e80     libcpmt:xthrow.obj
 0002:00019e98       _CT??_R0?AVbad_function_call@std@@@8??0bad_function_call@std@@QEAA@AEBV01@@Z24 0000000180077e98     libcpmt:xthrow.obj
 0002:00019ec0       _TI3?AVbad_array_new_length@std@@ 0000000180077ec0     libcpmt:locale.obj
 0002:00019ee0       _CTA3?AVbad_array_new_length@std@@ 0000000180077ee0     libcpmt:locale.obj
 0002:00019f00       _CT??_R0?AVbad_array_new_length@std@@@8??0bad_array_new_length@std@@QEAA@AEBV01@@Z24 0000000180077f00     libcpmt:locale.obj
 0002:00019f28       _TI2?AVbad_exception@std@@ 0000000180077f28     libvcruntime:frame.obj
 0002:00019f48       _CTA2?AVbad_exception@std@@ 0000000180077f48     libvcruntime:frame.obj
 0002:00019f60       _CT??_R0?AVbad_exception@std@@@8??0bad_exception@std@@QEAA@AEBV01@@Z24 0000000180077f60     libvcruntime:frame.obj
 0002:00019f88       _CT??_R0?AW4_cairo_status@@@84 0000000180077f88     Canvas.obj
 0002:00019fb0       _CTA2PEAD                  0000000180077fb0     Canvas.obj
 0002:00019fc8       _CT??_R0PEAD@88            0000000180077fc8     Canvas.obj
 0002:00019ff0       _TI2PEAD                   0000000180077ff0     Canvas.obj
 0002:0001a010       _CT??_R0PEAX@88            0000000180078010     Canvas.obj
 0002:0001a038       _CTA1?AW4_cairo_status@@   0000000180078038     Canvas.obj
 0002:0001a048       _TI1?AW4_cairo_status@@    0000000180078048     Canvas.obj
 0002:0001a064       __DELAY_IMPORT_DESCRIPTOR_node_exe 0000000180078064     node:node.exe
 0002:0001a084       __NULL_DELAY_IMPORT_DESCRIPTOR 0000000180078084     node:node.exe
 0002:0001a3e8       \177node_NULL_THUNK_DATA_DLN 00000001800783e8     node:node.exe
 0002:0001c030       \177node_NULL_THUNK_DATA_DLB 000000018007a030     node:node.exe
 0002:0001c5c0       __IMPORT_DESCRIPTOR_KERNEL32 000000018007a5c0     kernel32:KERNEL32.dll
 0002:0001c5d4       __IMPORT_DESCRIPTOR_GDI32  000000018007a5d4     gdi32:GDI32.dll
 0002:0001c5e8       _head_D__a__temp_msys64_mingw64_lib_libcairo_2_lib 000000018007a5e8     libcairo-2:D__a__temp_msys64_mingw64_lib_libcairo_2_lib_h.o
 0002:0001c5fc       _head_D__a__temp_msys64_mingw64_lib_libpng16_16_lib 000000018007a5fc     libpng16-16:D__a__temp_msys64_mingw64_lib_libpng16_16_lib_h.o
 0002:0001c610       _head_D__a__temp_msys64_mingw64_lib_libjpeg_8_lib 000000018007a610     libjpeg-8:D__a__temp_msys64_mingw64_lib_libjpeg_8_lib_h.o
 0002:0001c624       _head_D__a__temp_msys64_mingw64_lib_libpango_1_0_0_lib 000000018007a624     libpango-1.0-0:D__a__temp_msys64_mingw64_lib_libpango_1_0_0_lib_h.o
 0002:0001c638       _head_D__a__temp_msys64_mingw64_lib_libpangocairo_1_0_0_lib 000000018007a638     libpangocairo-1.0-0:D__a__temp_msys64_mingw64_lib_libpangocairo_1_0_0_lib_h.o
 0002:0001c64c       _head_D__a__temp_msys64_mingw64_lib_libgobject_2_0_0_lib 000000018007a64c     libgobject-2.0-0:D__a__temp_msys64_mingw64_lib_libgobject_2_0_0_lib_h.o
 0002:0001c660       _head_D__a__temp_msys64_mingw64_lib_libglib_2_0_0_lib 000000018007a660     libglib-2.0-0:D__a__temp_msys64_mingw64_lib_libglib_2_0_0_lib_h.o
 0002:0001c674       _head_D__a__temp_msys64_mingw64_lib_libgif_7_lib 000000018007a674     libgif-7:D__a__temp_msys64_mingw64_lib_libgif_7_lib_h.o
 0002:0001c688       _head_D__a__temp_msys64_mingw64_lib_libfreetype_6_lib 000000018007a688     libfreetype-6:D__a__temp_msys64_mingw64_lib_libfreetype_6_lib_h.o
 0002:0001c69c       _head_D__a__temp_msys64_mingw64_lib_librsvg_2_2_lib 000000018007a69c     librsvg-2-2:D__a__temp_msys64_mingw64_lib_librsvg_2_2_lib_h.o
 0002:0001c6b0       __NULL_IMPORT_DESCRIPTOR   000000018007a6b0     kernel32:KERNEL32.dll
 0002:0001ec44       __D__a__temp_msys64_mingw64_lib_libcairo_2_lib_iname 000000018007cc44     libcairo-2:D__a__temp_msys64_mingw64_lib_libcairo_2_lib_t.o
 0002:0001ecb4       __D__a__temp_msys64_mingw64_lib_libpng16_16_lib_iname 000000018007ccb4     libpng16-16:D__a__temp_msys64_mingw64_lib_libpng16_16_lib_t.o
 0002:0001ed0c       __D__a__temp_msys64_mingw64_lib_libjpeg_8_lib_iname 000000018007cd0c     libjpeg-8:D__a__temp_msys64_mingw64_lib_libjpeg_8_lib_t.o
 0002:0001ed84       __D__a__temp_msys64_mingw64_lib_libpango_1_0_0_lib_iname 000000018007cd84     libpango-1.0-0:D__a__temp_msys64_mingw64_lib_libpango_1_0_0_lib_t.o
 0002:0001edac       __D__a__temp_msys64_mingw64_lib_libpangocairo_1_0_0_lib_iname 000000018007cdac     libpangocairo-1.0-0:D__a__temp_msys64_mingw64_lib_libpangocairo_1_0_0_lib_t.o
 0002:0001edc8       __D__a__temp_msys64_mingw64_lib_libgobject_2_0_0_lib_iname 000000018007cdc8     libgobject-2.0-0:D__a__temp_msys64_mingw64_lib_libgobject_2_0_0_lib_t.o
 0002:0001ede8       __D__a__temp_msys64_mingw64_lib_libglib_2_0_0_lib_iname 000000018007cde8     libglib-2.0-0:D__a__temp_msys64_mingw64_lib_libglib_2_0_0_lib_t.o
 0002:0001ee08       __D__a__temp_msys64_mingw64_lib_libgif_7_lib_iname 000000018007ce08     libgif-7:D__a__temp_msys64_mingw64_lib_libgif_7_lib_t.o
 0002:0001ee34       __D__a__temp_msys64_mingw64_lib_libfreetype_6_lib_iname 000000018007ce34     libfreetype-6:D__a__temp_msys64_mingw64_lib_libfreetype_6_lib_t.o
 0002:0001ee54       __D__a__temp_msys64_mingw64_lib_librsvg_2_2_lib_iname 000000018007ce54     librsvg-2-2:D__a__temp_msys64_mingw64_lib_librsvg_2_2_lib_t.o
 0003:00000004       ?_Sync@ios_base@std@@0_NA  000000018007d004     libcpmt:ios.obj
 0003:00000010       __scrt_native_dllmain_reason 000000018007d010     LIBCMT:utility.obj
 0003:00000018       __security_cookie_complement 000000018007d018     LIBCMT:gs_cookie.obj
 0003:00000020       __security_cookie          000000018007d020     LIBCMT:gs_cookie.obj
 0003:00000028       _fltused                   000000018007d028     LIBCMT:fltused.obj
 0003:00000030       __isa_available            000000018007d030     LIBCMT:cpu_disp.obj
 0003:00000034       __isa_enabled              000000018007d034     LIBCMT:cpu_disp.obj
 0003:00000038       __memcpy_nt_iters          000000018007d038     LIBCMT:cpu_disp.obj
 0003:00000040       __memset_nt_iters          000000018007d040     LIBCMT:cpu_disp.obj
 0003:00000060       __abort_behavior           000000018007d060     libucrt:abort.obj
 0003:00000070       _iob                       000000018007d070     libucrt:_file.obj
 0003:00000180       _pctype                    000000018007d180     libucrt:ctype.obj
 0003:00000188       _pwctype                   000000018007d188     libucrt:ctype.obj
 0003:00000190       __acrt_lconv_c             000000018007d190     libucrt:localeconv.obj
 0003:00000228       __acrt_lconv               000000018007d228     libucrt:localeconv.obj
 0003:00000230       __acrt_lconv_static_decimal 000000018007d230     libucrt:localeconv.obj
 0003:00000234       __acrt_lconv_static_W_decimal 000000018007d234     libucrt:localeconv.obj
 0003:00000250       __acrt_initial_locale_data 000000018007d250     libucrt:nlsdata.obj
 0003:000003a8       __acrt_initial_locale_pointers 000000018007d3a8     libucrt:nlsdata.obj
 0003:000003b8       __acrt_wide_c_locale_string 000000018007d3b8     libucrt:nlsdata.obj
 0003:000003bc       __mb_cur_max               000000018007d3bc     libucrt:nlsdata.obj
 0003:000003c0       __badioinfo                000000018007d3c0     libucrt:ioinit.obj
 0003:00000410       _lookuptrailbytes          000000018007d410     libucrt:read.obj
 0003:00000510       __globallocalestatus       000000018007d510     libucrt:glstatus.obj
 0003:000006e0       __acrt_initial_multibyte_data 000000018007d6e0     libucrt:mbctype.obj
 0003:00000c30       ?_Static@?1???$_Immortalize_memcpy_image@V_Iostream_error_category2@std@@@std@@YAAEBV_Iostream_error_category2@1@XZ@4U?$_Constexpr_immortalize_impl@V_Iostream_error_category2@std@@@1@A 000000018007dc30     Canvas.obj
 0003:00000c80       ??_R0?AVbad_alloc@std@@@8  000000018007dc80     libcpmt:xthrow.obj
 0003:00000ca8       ??_R0?AVexception@std@@@8  000000018007dca8     libcpmt:xthrow.obj
 0003:00000cd0       ??_R0?AVruntime_error@std@@@8 000000018007dcd0     libcpmt:xthrow.obj
 0003:00000cf8       ??_R0?AVlogic_error@std@@@8 000000018007dcf8     libcpmt:xthrow.obj
 0003:00000d20       ??_R0?AVlength_error@std@@@8 000000018007dd20     libcpmt:xthrow.obj
 0003:00000d48       ??_R0?AVbad_function_call@std@@@8 000000018007dd48     libcpmt:xthrow.obj
 0003:00000d78       ??_R0?AVbad_array_new_length@std@@@8 000000018007dd78     libcpmt:locale.obj
 0003:00000da8       ??_R0?AVbad_exception@std@@@8 000000018007dda8     libvcruntime:frame.obj
 0003:00000dd0       ??_R0?AVbad_alloc@stdext@@@8 000000018007ddd0     PdfBackend.obj
 0003:00000df8       ??_R0?AW4_cairo_status@@@8 000000018007ddf8     Canvas.obj
 0003:00000e20       ??_R0PEAD@8                000000018007de20     Canvas.obj
 0003:00000e38       ??_R0PEAX@8                000000018007de38     Canvas.obj
 0003:00000f10       ??_R0?AV_Facet_base@std@@@8 000000018007df10     libcpmt:locale0.obj
 0003:00000f38       ??_R0?AV_Locimp@locale@std@@@8 000000018007df38     libcpmt:locale0.obj
 0003:00000f68       ??_R0?AVfacet@locale@std@@@8 000000018007df68     libcpmt:locale0.obj
 0003:00000f90       ??_R0?AU_Crt_new_delete@std@@@8 000000018007df90     libcpmt:locale0.obj
 0003:00000fc0       ??_R0?AUctype_base@std@@@8 000000018007dfc0     libcpmt:locale.obj
 0003:00000fe8       ??_R0?AV?$ctype@D@std@@@8  000000018007dfe8     libcpmt:locale.obj
 0003:00001010       ??_R0?AVtype_info@@@8      000000018007e010     LIBCMT:std_type_info_static.obj
 0003:00001030       __imp_?GetCurrentContext@Isolate@v8@@QEAA?AV?$Local@VContext@v8@@@2@XZ 000000018007e030     node:node.exe
 0003:00001038       __imp_?GetCurrent@Isolate@v8@@SAPEAV12@XZ 000000018007e038     node:node.exe
 0003:00001040       __imp_??1HandleScope@v8@@QEAA@XZ 000000018007e040     node:node.exe
 0003:00001048       __imp_??0HandleScope@v8@@QEAA@PEAVIsolate@1@@Z 000000018007e048     node:node.exe
 0003:00001050       __imp_?ClearWeak@V8@v8@@CAPEAXPEAPEAVObject@internal@2@@Z 000000018007e050     node:node.exe
 0003:00001058       __imp_?MakeWeak@V8@v8@@CAXPEAPEAVObject@internal@2@PEAXP6AXAEBV?$WeakCallbackInfo@X@2@@ZW4WeakCallbackType@2@@Z 000000018007e058     node:node.exe
 0003:00001060       __imp_?DisposeGlobal@V8@v8@@CAXPEAPEAVObject@internal@2@@Z 000000018007e060     node:node.exe
 0003:00001068       __imp_?GlobalizeReference@V8@v8@@CAPEAPEAVObject@internal@2@PEAVIsolate@42@PEAPEAV342@@Z 000000018007e068     node:node.exe
 0003:00001070       __imp_?Uint32Value@Value@v8@@QEBA?AV?$Maybe@I@2@V?$Local@VContext@v8@@@2@@Z 000000018007e070     node:node.exe
 0003:00001078       __imp_?IsNumber@Value@v8@@QEBA_NXZ 000000018007e078     node:node.exe
 0003:00001080       __imp_?SetAlignedPointerInInternalField@Object@v8@@QEAAXHPEAX@Z 000000018007e080     node:node.exe
 0003:00001088       __imp_?InternalFieldCount@Object@v8@@QEAAHXZ 000000018007e088     node:node.exe
 0003:00001090       __imp_?Value@External@v8@@QEBAPEAXXZ 000000018007e090     node:node.exe
 0003:00001098       __imp_?New@External@v8@@SA?AV?$Local@VExternal@v8@@@2@PEAVIsolate@2@PEAX@Z 000000018007e098     node:node.exe
 0003:000010a0       __imp_?CheckMemoryPressure@Isolate@v8@@AEAAXXZ 000000018007e0a0     node:node.exe
 0003:000010a8       __imp_?ReportExternalAllocationLimitReached@Isolate@v8@@AEAAXXZ 000000018007e0a8     node:node.exe
 0003:000010b0       __imp_?CreateHandle@HandleScope@v8@@KAPEAPEAVObject@internal@2@PEAVIsolate@42@PEAV342@@Z 000000018007e0b0     node:node.exe
 0003:000010b8       __imp_?CreateHandle@HandleScope@v8@@CAPEAPEAVObject@internal@2@PEAVHeapObject@42@PEAV342@@Z 000000018007e0b8     node:node.exe
 0003:000010c0       __imp_?SetClassName@FunctionTemplate@v8@@QEAAXV?$Local@VString@v8@@@2@@Z 000000018007e0c0     node:node.exe
 0003:000010c8       __imp_?InstanceTemplate@FunctionTemplate@v8@@QEAA?AV?$Local@VObjectTemplate@v8@@@2@XZ 000000018007e0c8     node:node.exe
 0003:000010d0       __imp_?GetFunction@FunctionTemplate@v8@@QEAA?AV?$MaybeLocal@VFunction@v8@@@2@V?$Local@VContext@v8@@@2@@Z 000000018007e0d0     node:node.exe
 0003:000010d8       __imp_?New@FunctionTemplate@v8@@SA?AV?$Local@VFunctionTemplate@v8@@@2@PEAVIsolate@2@P6AXAEBV?$FunctionCallbackInfo@VValue@v8@@@2@@ZV?$Local@VValue@v8@@@2@V?$Local@VSignature@v8@@@2@HW4ConstructorBehavior@2@W4SideEffectType@2@@Z 000000018007e0d8     node:node.exe
 0003:000010e0       __imp_?ToLocalEmpty@V8@v8@@CAXXZ 000000018007e0e0     node:node.exe
 0003:000010e8       __imp_?Escape@EscapableHandleScope@v8@@AEAAPEAPEAVObject@internal@2@PEAPEAV342@@Z 000000018007e0e8     node:node.exe
 0003:000010f0       __imp_??0EscapableHandleScope@v8@@QEAA@PEAVIsolate@1@@Z 000000018007e0f0     node:node.exe
 0003:000010f8       __imp_?NewFromUtf8@String@v8@@SA?AV?$MaybeLocal@VString@v8@@@2@PEAVIsolate@2@PEBDW4NewStringType@2@H@Z 000000018007e0f8     node:node.exe
 0003:00001100       __imp_?SlowGetInternalField@Object@v8@@AEAA?AV?$Local@VValue@v8@@@2@H@Z 000000018007e100     node:node.exe
 0003:00001108       __imp_?SetInternalField@Object@v8@@QEAAXHV?$Local@VValue@v8@@@2@@Z 000000018007e108     node:node.exe
 0003:00001110       __imp_?Set@Object@v8@@QEAA?AV?$Maybe@_N@2@V?$Local@VContext@v8@@@2@V?$Local@VValue@v8@@@2@1@Z 000000018007e110     node:node.exe
 0003:00001118       __imp_?SetInternalFieldCount@ObjectTemplate@v8@@QEAAXH@Z 000000018007e118     node:node.exe
 0003:00001120       __imp_?NewInstance@ObjectTemplate@v8@@QEAA?AV?$MaybeLocal@VObject@v8@@@2@V?$Local@VContext@v8@@@2@@Z 000000018007e120     node:node.exe
 0003:00001128       __imp_?New@ObjectTemplate@v8@@SA?AV?$Local@VObjectTemplate@v8@@@2@PEAVIsolate@2@V?$Local@VFunctionTemplate@v8@@@2@@Z 000000018007e128     node:node.exe
 0003:00001130       __imp_??1EscapableHandleScope@v8@@QEAA@XZ 000000018007e130     node:node.exe
 0003:00001138       __imp_?New@Object@v8@@SA?AV?$Local@VObject@v8@@@2@PEAVIsolate@2@@Z 000000018007e138     node:node.exe
 0003:00001140       __imp_uv_queue_work        000000018007e140     node:node.exe
 0003:00001148       __imp_?GetIsolate@Context@v8@@QEAAPEAVIsolate@2@XZ 000000018007e148     node:node.exe
 0003:00001150       __imp_?Global@Context@v8@@QEAA?AV?$Local@VObject@v8@@@2@XZ 000000018007e150     node:node.exe
 0003:00001158       __imp_?NewFromUnsigned@Integer@v8@@SA?AV?$Local@VInteger@v8@@@2@PEAVIsolate@2@I@Z 000000018007e158     node:node.exe
 0003:00001160       __imp_?New@Signature@v8@@SA?AV?$Local@VSignature@v8@@@2@PEAVIsolate@2@V?$Local@VFunctionTemplate@v8@@@2@@Z 000000018007e160     node:node.exe
 0003:00001168       __imp_?ThrowException@Isolate@v8@@QEAA?AV?$Local@VValue@v8@@@2@V32@@Z 000000018007e168     node:node.exe
 0003:00001170       __imp_?Length@TypedArray@v8@@QEAA_KXZ 000000018007e170     node:node.exe
 0003:00001178       __imp_?Set@Template@v8@@QEAAXV?$Local@VName@v8@@@2@V?$Local@VData@v8@@@2@W4PropertyAttribute@2@@Z 000000018007e178     node:node.exe
 0003:00001180       __imp_?ByteLength@ArrayBufferView@v8@@QEAA_KXZ 000000018007e180     node:node.exe
 0003:00001188       __imp_?ByteOffset@ArrayBufferView@v8@@QEAA_KXZ 000000018007e188     node:node.exe
 0003:00001190       __imp_?Buffer@ArrayBufferView@v8@@QEAA?AV?$Local@VArrayBuffer@v8@@@2@XZ 000000018007e190     node:node.exe
 0003:00001198       __imp_?Error@Exception@v8@@SA?AV?$Local@VValue@v8@@@2@V?$Local@VString@v8@@@2@@Z 000000018007e198     node:node.exe
 0003:000011a0       __imp_?TypeError@Exception@v8@@SA?AV?$Local@VValue@v8@@@2@V?$Local@VString@v8@@@2@@Z 000000018007e1a0     node:node.exe
 0003:000011a8       __imp_?ValueOf@Date@v8@@QEBANXZ 000000018007e1a8     node:node.exe
 0003:000011b0       __imp_?HasInstance@FunctionTemplate@v8@@QEAA_NV?$Local@VValue@v8@@@2@@Z 000000018007e1b0     node:node.exe
 0003:000011b8       __imp_?PrototypeTemplate@FunctionTemplate@v8@@QEAA?AV?$Local@VObjectTemplate@v8@@@2@XZ 000000018007e1b8     node:node.exe
 0003:000011c0       __imp_?GetContents@ArrayBuffer@v8@@QEAA?AVContents@12@XZ 000000018007e1c0     node:node.exe
 0003:000011c8       __imp_?StrictEquals@Value@v8@@QEBA_NV?$Local@VValue@v8@@@2@@Z 000000018007e1c8     node:node.exe
 0003:000011d0       __imp_?NumberValue@Value@v8@@QEBA?AV?$Maybe@N@2@V?$Local@VContext@v8@@@2@@Z 000000018007e1d0     node:node.exe
 0003:000011d8       __imp_?BooleanValue@Value@v8@@QEBA?AV?$Maybe@_N@2@V?$Local@VContext@v8@@@2@@Z 000000018007e1d8     node:node.exe
 0003:000011e0       __imp_?ToUint32@Value@v8@@QEBA?AV?$MaybeLocal@VUint32@v8@@@2@V?$Local@VContext@v8@@@2@@Z 000000018007e1e0     node:node.exe
 0003:000011e8       __imp_?ToObject@Value@v8@@QEBA?AV?$MaybeLocal@VObject@v8@@@2@V?$Local@VContext@v8@@@2@@Z 000000018007e1e8     node:node.exe
 0003:000011f0       __imp_?ToString@Value@v8@@QEBA?AV?$MaybeLocal@VString@v8@@@2@V?$Local@VContext@v8@@@2@@Z 000000018007e1f0     node:node.exe
 0003:000011f8       __imp_?IsUint8ClampedArray@Value@v8@@QEBA_NXZ 000000018007e1f8     node:node.exe
 0003:00001200       __imp_?IsArrayBufferView@Value@v8@@QEBA_NXZ 000000018007e200     node:node.exe
 0003:00001208       __imp_?IsDate@Value@v8@@QEBA_NXZ 000000018007e208     node:node.exe
 0003:00001210       __imp_?IsUint32@Value@v8@@QEBA_NXZ 000000018007e210     node:node.exe
 0003:00001218       __imp_?IsBoolean@Value@v8@@QEBA_NXZ 000000018007e218     node:node.exe
 0003:00001220       __imp_?IsObject@Value@v8@@QEBA_NXZ 000000018007e220     node:node.exe
 0003:00001228       __imp_?IsFunction@Value@v8@@QEBA_NXZ 000000018007e228     node:node.exe
 0003:00001230       __imp_?ReThrow@TryCatch@v8@@QEAA?AV?$Local@VValue@v8@@@2@XZ 000000018007e230     node:node.exe
 0003:00001238       __imp_?HasCaught@TryCatch@v8@@QEBA_NXZ 000000018007e238     node:node.exe
 0003:00001240       __imp_??1TryCatch@v8@@QEAA@XZ 000000018007e240     node:node.exe
 0003:00001248       __imp_??0TryCatch@v8@@QEAA@PEAVIsolate@1@@Z 000000018007e248     node:node.exe
 0003:00001250       __imp_?WriteUtf8@String@v8@@QEBAHPEADHPEAHH@Z 000000018007e250     node:node.exe
 0003:00001258       __imp_?Length@String@v8@@QEBAHXZ 000000018007e258     node:node.exe
 0003:00001260       __imp_?New@Number@v8@@SA?AV?$Local@VNumber@v8@@@2@PEAVIsolate@2@N@Z 000000018007e260     node:node.exe
 0003:00001268       __imp_?SlowGetAlignedPointerFromInternalField@Object@v8@@AEAAPEAXH@Z 000000018007e268     node:node.exe
 0003:00001270       __imp_?Get@Object@v8@@QEAA?AV?$MaybeLocal@VValue@v8@@@2@V?$Local@VContext@v8@@@2@V?$Local@VValue@v8@@@2@@Z 000000018007e270     node:node.exe
 0003:00001278       __imp_?Call@Function@v8@@QEAA?AV?$MaybeLocal@VValue@v8@@@2@V?$Local@VContext@v8@@@2@V?$Local@VValue@v8@@@2@HQEAV52@@Z 000000018007e278     node:node.exe
 0003:00001280       __imp_?SetAccessor@ObjectTemplate@v8@@QEAAXV?$Local@VName@v8@@@2@P6AX0AEBV?$PropertyCallbackInfo@VValue@v8@@@2@@ZP6AX0V?$Local@VValue@v8@@@2@AEBV?$PropertyCallbackInfo@X@2@@Z3W4AccessControl@2@W4PropertyAttribute@2@V?$Local@VAccessorSignature@v8@@@2@@Z 000000018007e280     node:node.exe
 0003:00001288       __imp_?EmitAsyncDestroy@node@@YAXPEAVIsolate@v8@@Uasync_context@1@@Z 000000018007e288     node:node.exe
 0003:00001290       __imp_?New@Buffer@node@@YA?AV?$MaybeLocal@VObject@v8@@@v8@@PEAVIsolate@4@PEAD_KP6AX1PEAX@Z3@Z 000000018007e290     node:node.exe
 0003:00001298       __imp_?New@Buffer@node@@YA?AV?$MaybeLocal@VObject@v8@@@v8@@PEAVIsolate@4@PEAD_K@Z 000000018007e298     node:node.exe
 0003:000012a0       __imp_?Copy@Buffer@node@@YA?AV?$MaybeLocal@VObject@v8@@@v8@@PEAVIsolate@4@PEBD_K@Z 000000018007e2a0     node:node.exe
 0003:000012a8       __imp_?MakeCallback@node@@YA?AV?$MaybeLocal@VValue@v8@@@v8@@PEAVIsolate@3@V?$Local@VObject@v8@@@3@V?$Local@VFunction@v8@@@3@HPEAV?$Local@VValue@v8@@@3@Uasync_context@1@@Z 000000018007e2a8     node:node.exe
 0003:000012b0       __imp_?EmitAsyncInit@node@@YA?AUasync_context@1@PEAVIsolate@v8@@V?$Local@VObject@v8@@@4@V?$Local@VString@v8@@@4@N@Z 000000018007e2b0     node:node.exe
 0003:000012b8       __imp_uv_default_loop      000000018007e2b8     node:node.exe
 0003:000012c0       __imp_?FromJustIsNothing@V8@v8@@CAXXZ 000000018007e2c0     node:node.exe
 0003:000012c8       __imp_?InstanceOf@Value@v8@@QEAA?AV?$Maybe@_N@2@V?$Local@VContext@v8@@@2@V?$Local@VObject@v8@@@2@@Z 000000018007e2c8     node:node.exe
 0003:000012d0       __imp_?New@Function@v8@@SA?AV?$MaybeLocal@VFunction@v8@@@2@V?$Local@VContext@v8@@@2@P6AXAEBV?$FunctionCallbackInfo@VValue@v8@@@2@@ZV?$Local@VValue@v8@@@2@HW4ConstructorBehavior@2@W4SideEffectType@2@@Z 000000018007e2d0     node:node.exe
 0003:000012d8       __imp_?New@Uint8ClampedArray@v8@@SA?AV?$Local@VUint8ClampedArray@v8@@@2@V?$Local@VArrayBuffer@v8@@@2@_K1@Z 000000018007e2d8     node:node.exe
 0003:000012e0       __imp_?New@Integer@v8@@SA?AV?$Local@VInteger@v8@@@2@PEAVIsolate@2@H@Z 000000018007e2e0     node:node.exe
 0003:000012e8       __imp_?RangeError@Exception@v8@@SA?AV?$Local@VValue@v8@@@2@V?$Local@VString@v8@@@2@@Z 000000018007e2e8     node:node.exe
 0003:000012f0       __imp_?New@Array@v8@@SA?AV?$Local@VArray@v8@@@2@PEAVIsolate@2@H@Z 000000018007e2f0     node:node.exe
 0003:000012f8       __imp_?Length@Array@v8@@QEBAIXZ 000000018007e2f8     node:node.exe
 0003:00001300       __imp_?New@ArrayBuffer@v8@@SA?AV?$Local@VArrayBuffer@v8@@@2@PEAVIsolate@2@_K@Z 000000018007e300     node:node.exe
 0003:00001308       __imp_?Int32Value@Value@v8@@QEBA?AV?$Maybe@H@2@V?$Local@VContext@v8@@@2@@Z 000000018007e308     node:node.exe
 0003:00001310       __imp_?ToInt32@Value@v8@@QEBA?AV?$MaybeLocal@VInt32@v8@@@2@V?$Local@VContext@v8@@@2@@Z 000000018007e310     node:node.exe
 0003:00001318       __imp_?IsArray@Value@v8@@QEBA_NXZ 000000018007e318     node:node.exe
 0003:00001320       __imp_?New@Float64Array@v8@@SA?AV?$Local@VFloat64Array@v8@@@2@V?$Local@VArrayBuffer@v8@@@2@_K1@Z 000000018007e320     node:node.exe
 0003:00001328       __imp_?New@Uint16Array@v8@@SA?AV?$Local@VUint16Array@v8@@@2@V?$Local@VArrayBuffer@v8@@@2@_K1@Z 000000018007e328     node:node.exe
 0003:00001330       __imp_?Get@Object@v8@@QEAA?AV?$MaybeLocal@VValue@v8@@@2@V?$Local@VContext@v8@@@2@I@Z 000000018007e330     node:node.exe
 0003:00001338       __imp_?NewInstance@Function@v8@@QEBA?AV?$MaybeLocal@VObject@v8@@@2@V?$Local@VContext@v8@@@2@HQEAV?$Local@VValue@v8@@@2@@Z 000000018007e338     node:node.exe
 0003:00001340       __imp_?HasInstance@Buffer@node@@YA_NV?$Local@VValue@v8@@@v8@@@Z 000000018007e340     node:node.exe
 0003:00001348       __imp_?Data@Buffer@node@@YAPEADV?$Local@VObject@v8@@@v8@@@Z 000000018007e348     node:node.exe
 0003:00001350       __imp_?Length@Buffer@node@@YA_KV?$Local@VObject@v8@@@v8@@@Z 000000018007e350     node:node.exe
 0003:00001358       __imp_?ErrnoException@node@@YA?AV?$Local@VValue@v8@@@v8@@PEAVIsolate@3@HPEBD11@Z 000000018007e358     node:node.exe
 0003:00001360       __imp_?IsUint16Array@Value@v8@@QEBA_NXZ 000000018007e360     node:node.exe
 0003:00001368       __imp_node_module_register 000000018007e368     node:node.exe
 0003:00001370       \177node_NULL_THUNK_DATA_DLA 000000018007e370     node:node.exe
 0003:00001380       __hmod__node_exe           000000018007e380     node:node.exe
 0003:00001390       ?_Raise_handler@std@@3P6AXAEBVexception@stdext@@@ZEA 000000018007e390     libcpmt:raisehan.obj
 0003:000014f0       ?_Id_cnt@id@locale@std@@0HA 000000018007e4f0     libcpmt:locale0.obj
 0003:000014f8       ?_Clocptr@_Locimp@locale@std@@0PEAV123@EA 000000018007e4f8     libcpmt:locale0.obj
 0003:00001500       ?id@?$ctype@_W@std@@2V0locale@2@A 000000018007e500     libcpmt:locale0.obj
 0003:00001508       ?id@?$ctype@D@std@@2V0locale@2@A 000000018007e508     libcpmt:locale0.obj
 0003:00001510       ?id@?$codecvt@GDU_Mbstatet@@@std@@2V0locale@2@A 000000018007e510     libcpmt:locale0.obj
 0003:00001518       ?id@?$ctype@G@std@@2V0locale@2@A 000000018007e518     libcpmt:locale0.obj
 0003:00001530       ?id@?$codecvt@_WDU_Mbstatet@@@std@@2V0locale@2@A 000000018007e530     libcpmt:locale0.obj
 0003:00001560       ?_Index@ios_base@std@@0HA  000000018007e560     libcpmt:ios.obj
 0003:000015d0       ?id@?$num_get@DV?$istreambuf_iterator@DU?$char_traits@D@std@@@std@@@std@@2V0locale@2@A 000000018007e5d0     libcpmt:locale.obj
 0003:000015d8       ?id@?$num_put@DV?$ostreambuf_iterator@DU?$char_traits@D@std@@@std@@@std@@2V0locale@2@A 000000018007e5d8     libcpmt:locale.obj
 0003:000015e0       ?id@?$numpunct@D@std@@2V0locale@2@A 000000018007e5e0     libcpmt:locale.obj
 0003:000015e8       ?id@?$codecvt@DDU_Mbstatet@@@std@@2V0locale@2@A 000000018007e5e8     libcpmt:locale.obj
 0003:000015f0       ?_Ptr_cin@std@@3PEAV?$basic_istream@DU?$char_traits@D@std@@@1@EA 000000018007e5f0     libcpmt:iosptrs.obj
 0003:000015f8       ?_Ptr_cout@std@@3PEAV?$basic_ostream@DU?$char_traits@D@std@@@1@EA 000000018007e5f8     libcpmt:iosptrs.obj
 0003:00001600       ?_Ptr_cerr@std@@3PEAV?$basic_ostream@DU?$char_traits@D@std@@@1@EA 000000018007e600     libcpmt:iosptrs.obj
 0003:00001608       ?_Ptr_clog@std@@3PEAV?$basic_ostream@DU?$char_traits@D@std@@@1@EA 000000018007e608     libcpmt:iosptrs.obj
 0003:00001610       ?_Ptr_wcin@std@@3PEAV?$basic_istream@_WU?$char_traits@_W@std@@@1@EA 000000018007e610     libcpmt:iosptrs.obj
 0003:00001618       ?_Ptr_wcout@std@@3PEAV?$basic_ostream@_WU?$char_traits@_W@std@@@1@EA 000000018007e618     libcpmt:iosptrs.obj
 0003:00001620       ?_Ptr_wcerr@std@@3PEAV?$basic_ostream@_WU?$char_traits@_W@std@@@1@EA 000000018007e620     libcpmt:iosptrs.obj
 0003:00001628       ?_Ptr_wclog@std@@3PEAV?$basic_ostream@_WU?$char_traits@_W@std@@@1@EA 000000018007e628     libcpmt:iosptrs.obj
 0003:00001690       ?id@?$time_put@_WV?$ostreambuf_iterator@_WU?$char_traits@_W@std@@@std@@@std@@2V0locale@2@A 000000018007e690     libcpmt:wlocale.obj
 0003:00001698       ?id@?$num_get@_WV?$istreambuf_iterator@_WU?$char_traits@_W@std@@@std@@@std@@2V0locale@2@A 000000018007e698     libcpmt:wlocale.obj
 0003:000016a0       ?id@?$num_put@_WV?$ostreambuf_iterator@_WU?$char_traits@_W@std@@@std@@@std@@2V0locale@2@A 000000018007e6a0     libcpmt:wlocale.obj
 0003:000016a8       ?id@?$numpunct@_W@std@@2V0locale@2@A 000000018007e6a8     libcpmt:wlocale.obj
 0003:000016b0       ?id@?$collate@_W@std@@2V0locale@2@A 000000018007e6b0     libcpmt:wlocale.obj
 0003:000016b8       ?id@?$messages@_W@std@@2V0locale@2@A 000000018007e6b8     libcpmt:wlocale.obj
 0003:000016c0       ?id@?$money_get@_WV?$istreambuf_iterator@_WU?$char_traits@_W@std@@@std@@@std@@2V0locale@2@A 000000018007e6c0     libcpmt:wlocale.obj
 0003:000016c8       ?id@?$money_put@_WV?$ostreambuf_iterator@_WU?$char_traits@_W@std@@@std@@@std@@2V0locale@2@A 000000018007e6c8     libcpmt:wlocale.obj
 0003:000016d0       ?id@?$moneypunct@_W$0A@@std@@2V0locale@2@A 000000018007e6d0     libcpmt:wlocale.obj
 0003:000016d8       ?id@?$moneypunct@_W$00@std@@2V0locale@2@A 000000018007e6d8     libcpmt:wlocale.obj
 0003:000016e0       ?id@?$time_get@_WV?$istreambuf_iterator@_WU?$char_traits@_W@std@@@std@@@std@@2V0locale@2@A 000000018007e6e0     libcpmt:wlocale.obj
 0003:000016e8       ?id@?$num_get@GV?$istreambuf_iterator@GU?$char_traits@G@std@@@std@@@std@@2V0locale@2@A 000000018007e6e8     libcpmt:wlocale.obj
 0003:000016f0       ?id@?$num_put@GV?$ostreambuf_iterator@GU?$char_traits@G@std@@@std@@@std@@2V0locale@2@A 000000018007e6f0     libcpmt:wlocale.obj
 0003:000016f8       ?id@?$numpunct@G@std@@2V0locale@2@A 000000018007e6f8     libcpmt:wlocale.obj
 0003:00001700       ?id@?$collate@G@std@@2V0locale@2@A 000000018007e700     libcpmt:wlocale.obj
 0003:00001708       ?id@?$messages@G@std@@2V0locale@2@A 000000018007e708     libcpmt:wlocale.obj
 0003:00001710       ?id@?$money_get@GV?$istreambuf_iterator@GU?$char_traits@G@std@@@std@@@std@@2V0locale@2@A 000000018007e710     libcpmt:wlocale.obj
 0003:00001718       ?id@?$money_put@GV?$ostreambuf_iterator@GU?$char_traits@G@std@@@std@@@std@@2V0locale@2@A 000000018007e718     libcpmt:wlocale.obj
 0003:00001720       ?id@?$moneypunct@G$0A@@std@@2V0locale@2@A 000000018007e720     libcpmt:wlocale.obj
 0003:00001728       ?id@?$moneypunct@G$00@std@@2V0locale@2@A 000000018007e728     libcpmt:wlocale.obj
 0003:00001730       ?id@?$time_get@GV?$istreambuf_iterator@GU?$char_traits@G@std@@@std@@@std@@2V0locale@2@A 000000018007e730     libcpmt:wlocale.obj
 0003:00001738       ?id@?$time_put@GV?$ostreambuf_iterator@GU?$char_traits@G@std@@@std@@@std@@2V0locale@2@A 000000018007e738     libcpmt:wlocale.obj
 0003:00001740       ?id@?$collate@D@std@@2V0locale@2@A 000000018007e740     libcpmt:xlocale.obj
 0003:00001748       ?id@?$messages@D@std@@2V0locale@2@A 000000018007e748     libcpmt:xlocale.obj
 0003:00001750       ?id@?$money_get@DV?$istreambuf_iterator@DU?$char_traits@D@std@@@std@@@std@@2V0locale@2@A 000000018007e750     libcpmt:xlocale.obj
 0003:00001758       ?id@?$money_put@DV?$ostreambuf_iterator@DU?$char_traits@D@std@@@std@@@std@@2V0locale@2@A 000000018007e758     libcpmt:xlocale.obj
 0003:00001760       ?id@?$moneypunct@D$0A@@std@@2V0locale@2@A 000000018007e760     libcpmt:xlocale.obj
 0003:00001768       ?id@?$moneypunct@D$00@std@@2V0locale@2@A 000000018007e768     libcpmt:xlocale.obj
 0003:00001770       ?id@?$time_get@DV?$istreambuf_iterator@DU?$char_traits@D@std@@@std@@@std@@2V0locale@2@A 000000018007e770     libcpmt:xlocale.obj
 0003:00001778       ?id@?$time_put@DV?$ostreambuf_iterator@DU?$char_traits@D@std@@@std@@@std@@2V0locale@2@A 000000018007e778     libcpmt:xlocale.obj
 0003:00001780       __scrt_current_native_startup_state 000000018007e780     LIBCMT:utility.obj
 0003:00001788       __scrt_native_startup_lock 000000018007e788     LIBCMT:utility.obj
 0003:000017d0       __castguard_check_failure_os_handled_fptr 000000018007e7d0     LIBCMT:guard_support.obj
 0003:00001d50       __favor                    000000018007ed50     LIBCMT:cpu_disp.obj
 0003:00001d54       __scrt_debugger_hook_flag  000000018007ed54     LIBCMT:utility_desktop.obj
 0003:00001d60       ?__type_info_root_node@@3U__type_info_node@@A 000000018007ed60     LIBCMT:tncleanup.obj
 0003:00001d70       ?_OptionsStorage@?1??__local_stdio_scanf_options@@9@4_KA 000000018007ed70     LIBCMT:default_local_stdio_options.obj
 0003:00001d78       ?__WinRTOutOfMemoryExceptionCallback@@3P6APEAXXZEA 000000018007ed78     libvcruntime:ehhelpers.obj
 0003:00001e00       __pPurecall                000000018007ee00     libvcruntime:purevirt_data.obj
 0003:00001e38       ?pArgList@UnDecorator@@0PEAVReplicator@@EA 000000018007ee38     libvcruntime:undname.obj
 0003:00001e40       ?pZNameList@UnDecorator@@0PEAVReplicator@@EA 000000018007ee40     libvcruntime:undname.obj
 0003:00001e48       ?pTemplateArgList@UnDecorator@@0PEAVReplicator@@EA 000000018007ee48     libvcruntime:undname.obj
 0003:00001e50       ?gName@UnDecorator@@0PEBDEB 000000018007ee50     libvcruntime:undname.obj
 0003:00001e58       ?name@UnDecorator@@0PEBDEB 000000018007ee58     libvcruntime:undname.obj
 0003:00001e60       ?disableFlags@UnDecorator@@0KA 000000018007ee60     libvcruntime:undname.obj
 0003:00001e64       ?fExplicitTemplateParams@UnDecorator@@0_NA 000000018007ee64     libvcruntime:undname.obj
 0003:00001e65       ?fGetTemplateArgumentList@UnDecorator@@0_NA 000000018007ee65     libvcruntime:undname.obj
 0003:00001e68       ?m_pGetParameter@UnDecorator@@0P6APEADJ@ZEA 000000018007ee68     libvcruntime:undname.obj
 0003:00001e70       ?m_CHPENameOffset@UnDecorator@@0KA 000000018007ee70     libvcruntime:undname.obj
 0003:00001e74       ?m_recursionLevel@UnDecorator@@0KA 000000018007ee74     libvcruntime:undname.obj
 0003:00001ee8       _nstream                   000000018007eee8     libucrt:_file.obj
 0003:00001ef0       __piob                     000000018007eef0     libucrt:_file.obj
 0003:00001ef8       _cflush                    000000018007eef8     libucrt:_file.obj
 0003:00002134       __acrt_lconv_static_null   000000018007f134     libucrt:localeconv.obj
 0003:00002138       __acrt_lconv_static_W_null 000000018007f138     libucrt:localeconv.obj
 0003:00002158       ?c_exit_complete@?1???R<lambda_6e4b09c48022b2350581041d5f6b0c4c>@@QEBA@XZ@4_NA 000000018007f158     libucrt:exit.obj
 0003:00002268       _environ_table             000000018007f268     libucrt:environment_initialization.obj
 0003:00002270       _wenviron_table            000000018007f270     libucrt:environment_initialization.obj
 0003:00002278       __dcrt_initial_wide_environment 000000018007f278     libucrt:environment_initialization.obj
 0003:00002280       __dcrt_initial_narrow_environment 000000018007f280     libucrt:environment_initialization.obj
 0003:00002288       __acrt_atexit_table        000000018007f288     libucrt:onexit.obj
 0003:000022a0       __acrt_at_quick_exit_table 000000018007f2a0     libucrt:onexit.obj
 0003:000022b8       __acrt_locale_changed_data 000000018007f2b8     libucrt:wsetlocale.obj
 0003:000022c0       __acrt_current_locale_data 000000018007f2c0     libucrt:nlsdata.obj
 0003:00002490       __pioinfo                  000000018007f490     libucrt:ioinit.obj
 0003:00002890       _nhandle                   000000018007f890     libucrt:ioinit.obj
 0003:000028a8       __acrt_stdout_buffer       000000018007f8a8     libucrt:_sftbuf.obj
 0003:000028b0       __acrt_stderr_buffer       000000018007f8b0     libucrt:_sftbuf.obj
 0003:000028b8       __fma3_is_available        000000018007f8b8     libucrt:fma3_available.obj
 0003:000028bc       __use_fma3_lib             000000018007f8bc     libucrt:fma3_available.obj
 0003:000028c0       ?_timezone@@3V?$dual_state_global@J@__crt_state_management@@A 000000018007f8c0     libucrt:timeset.obj
 0003:000028c4       ?_daylight@@3V?$dual_state_global@H@__crt_state_management@@A 000000018007f8c4     libucrt:timeset.obj
 0003:000028c8       ?_dstbias@@3V?$dual_state_global@J@__crt_state_management@@A 000000018007f8c8     libucrt:timeset.obj
 0003:000029b8       _mbctype                   000000018007f9b8     libucrt:mbctype.obj
 0003:000029c0       _mbcasemap                 000000018007f9c0     libucrt:mbctype.obj
 0003:000029c8       __acrt_current_multibyte_data 000000018007f9c8     libucrt:mbctype.obj
 0003:000029d8       _pgmptr                    000000018007f9d8     libucrt:argv_data.obj
 0003:000029e0       __argc                     000000018007f9e0     libucrt:argv_data.obj
 0003:000029e8       __argv                     000000018007f9e8     libucrt:argv_data.obj
 0003:000029f0       __wargv                    000000018007f9f0     libucrt:argv_data.obj
 0003:000029f8       _acmdln                    000000018007f9f8     libucrt:argv_data.obj
 0003:00002a00       _wcmdln                    000000018007fa00     libucrt:argv_data.obj
 0003:00002a08       __acrt_heap                000000018007fa08     libucrt:heap_handle.obj
 0003:00002a1c       _commode                   000000018007fa1c     libucrt:ncommode.obj
 0003:00002a28       _umaskval                  000000018007fa28     libucrt:umask.obj
 0003:00002a38       _fmode                     000000018007fa38     libucrt:txtmode.obj
 0003:00002a40       ?DloadKernel32@@3PEAUHINSTANCE__@@EA 000000018007fa40     DelayImp:delayhlp.obj
 0003:00002a48       ?DloadAcquireSRWLockExclusive@@3P6AXPEA_K@ZEA 000000018007fa48     DelayImp:delayhlp.obj
 0003:00002a50       ?DloadReleaseSRWLockExclusive@@3P6AXPEA_K@ZEA 000000018007fa50     DelayImp:delayhlp.obj
 0003:00002a58       ?DloadSrwLock@@3_KA        000000018007fa58     DelayImp:delayhlp.obj
 0003:00002a60       ?DloadSectionLockCount@@3KA 000000018007fa60     DelayImp:delayhlp.obj
 0003:00002a64       ?DloadSectionOldProtection@@3KA 000000018007fa64     DelayImp:delayhlp.obj
 0003:00002a68       ?DloadSectionCommitPermanent@@3KA 000000018007fa68     DelayImp:delayhlp.obj
 0003:00002a70       ?_Psave@?$_Facetptr@V?$ctype@D@std@@@std@@2PEBVfacet@locale@2@EB 000000018007fa70     Canvas.obj
 0003:00002a78       ?pattern_repeat_key@@3PEBU_cairo_user_data_key@@EB 000000018007fa78     CanvasPattern.obj
 0003:00002a80       ?constructor@ImageBackend@@2V?$Persistent@VFunctionTemplate@v8@@V?$NonCopyablePersistentTraits@VFunctionTemplate@v8@@@2@@Nan@@A 000000018007fa80     ImageBackend.obj
 0003:00002a88       ?constructor@PdfBackend@@2V?$Persistent@VFunctionTemplate@v8@@V?$NonCopyablePersistentTraits@VFunctionTemplate@v8@@@2@@Nan@@A 000000018007fa88     PdfBackend.obj
 0003:00002a90       ?constructor@SvgBackend@@2V?$Persistent@VFunctionTemplate@v8@@V?$NonCopyablePersistentTraits@VFunctionTemplate@v8@@@2@@Nan@@A 000000018007fa90     SvgBackend.obj
 0003:00002a98       ?font_face_list@@3V?$vector@VFontFace@@V?$allocator@VFontFace@@@std@@@std@@A 000000018007fa98     Canvas.obj
 0003:00002ab0       ?constructor@Canvas@@2V?$Persistent@VFunctionTemplate@v8@@V?$NonCopyablePersistentTraits@VFunctionTemplate@v8@@@2@@Nan@@A 000000018007fab0     Canvas.obj
 0003:00002ab8       ?constructor@Gradient@@2V?$Persistent@VFunctionTemplate@v8@@V?$NonCopyablePersistentTraits@VFunctionTemplate@v8@@@2@@Nan@@A 000000018007fab8     CanvasGradient.obj
 0003:00002ac0       ?_DOMMatrix@Pattern@@2V?$Persistent@VFunction@v8@@V?$NonCopyablePersistentTraits@VFunction@v8@@@2@@Nan@@A 000000018007fac0     CanvasPattern.obj
 0003:00002ac8       ?constructor@Pattern@@2V?$Persistent@VFunctionTemplate@v8@@V?$NonCopyablePersistentTraits@VFunctionTemplate@v8@@@2@@Nan@@A 000000018007fac8     CanvasPattern.obj
 0003:00002ad0       ?_parseFont@Context2d@@2V?$Persistent@VFunction@v8@@V?$NonCopyablePersistentTraits@VFunction@v8@@@2@@Nan@@A 000000018007fad0     CanvasRenderingContext2d.obj
 0003:00002ad8       ?_DOMMatrix@Context2d@@2V?$Persistent@VFunction@v8@@V?$NonCopyablePersistentTraits@VFunction@v8@@@2@@Nan@@A 000000018007fad8     CanvasRenderingContext2d.obj
 0003:00002ae0       ?constructor@Context2d@@2V?$Persistent@VFunctionTemplate@v8@@V?$NonCopyablePersistentTraits@VFunctionTemplate@v8@@@2@@Nan@@A 000000018007fae0     CanvasRenderingContext2d.obj
 0003:00002af8       ?constructor@Image@@2V?$Persistent@VFunctionTemplate@v8@@V?$NonCopyablePersistentTraits@VFunctionTemplate@v8@@@2@@Nan@@A 000000018007faf8     Image.obj
 0003:00002b00       ?constructor@ImageData@@2V?$Persistent@VFunctionTemplate@v8@@V?$NonCopyablePersistentTraits@VFunctionTemplate@v8@@@2@@Nan@@A 000000018007fb00     ImageData.obj
 0003:00002b08       ?_OptionsStorage@?1??__local_stdio_printf_options@@9@4_KA 000000018007fb08     color.obj
 0003:00002b18       __dyn_tls_init_callback    000000018007fb18     <common>
 0003:00002b20       __scrt_ucrt_dll_is_in_use  000000018007fb20     <common>

 entry point at        0001:0002d7b0

 Static symbols

 0000:fff79000       .debug$S                   0000000180000000     canvas.exp
 0000:fff79000       .debug$S                   0000000180000000     gdi32:GDI32.dll
 0000:fff79000       .debug$S                   0000000180000000     gdi32:GDI32.dll
 0000:fff79000       .debug$S                   0000000180000000     kernel32:KERNEL32.dll
 0000:fff79000       .debug$S                   0000000180000000     kernel32:KERNEL32.dll
 0000:fff79000       .debug$S                   0000000180000000     kernel32:KERNEL32.dll
 0000:fff79000       .debug$S                   0000000180000000     kernel32:KERNEL32.dll
 0000:fff79000       .debug$S                   0000000180000000     kernel32:KERNEL32.dll
 0000:fff79000       .debug$S                   0000000180000000     kernel32:KERNEL32.dll
 0000:fff79000       .debug$S                   0000000180000000     kernel32:KERNEL32.dll
 0000:fff79000       .debug$S                   0000000180000000     kernel32:KERNEL32.dll
 0000:fff79000       .debug$S                   0000000180000000     kernel32:KERNEL32.dll
 0000:fff79000       .debug$S                   0000000180000000     kernel32:KERNEL32.dll
 0000:fff79000       .debug$S                   0000000180000000     kernel32:KERNEL32.dll
 0000:fff79000       .debug$S                   0000000180000000     kernel32:KERNEL32.dll
 0000:fff79000       .debug$S                   0000000180000000     kernel32:KERNEL32.dll
 0000:fff79000       .debug$S                   0000000180000000     kernel32:KERNEL32.dll
 0000:fff79000       .debug$S                   0000000180000000     kernel32:KERNEL32.dll
 0000:fff79000       .debug$S                   0000000180000000     kernel32:KERNEL32.dll
 0000:fff79000       .debug$S                   0000000180000000     kernel32:KERNEL32.dll
 0000:fff79000       .debug$S                   0000000180000000     kernel32:KERNEL32.dll
 0000:fff79000       .debug$S                   0000000180000000     kernel32:KERNEL32.dll
 0000:fff79000       .debug$S                   0000000180000000     kernel32:KERNEL32.dll
 0000:fff79000       .debug$S                   0000000180000000     kernel32:KERNEL32.dll
 0000:fff79000       .debug$S                   0000000180000000     kernel32:KERNEL32.dll
 0000:fff79000       .debug$S                   0000000180000000     kernel32:KERNEL32.dll
 0000:fff79000       .debug$S                   0000000180000000     kernel32:KERNEL32.dll
 0000:fff79000       .debug$S                   0000000180000000     kernel32:KERNEL32.dll
 0000:fff79000       .debug$S                   0000000180000000     kernel32:KERNEL32.dll
 0000:fff79000       .debug$S                   0000000180000000     kernel32:KERNEL32.dll
 0000:fff79000       .debug$S                   0000000180000000     kernel32:KERNEL32.dll
 0000:fff79000       .debug$S                   0000000180000000     kernel32:KERNEL32.dll
 0000:fff79000       .debug$S                   0000000180000000     kernel32:KERNEL32.dll
 0000:fff79000       .debug$S                   0000000180000000     kernel32:KERNEL32.dll
 0000:fff79000       .debug$S                   0000000180000000     kernel32:KERNEL32.dll
 0000:fff79000       .debug$S                   0000000180000000     kernel32:KERNEL32.dll
 0000:fff79000       .debug$S                   0000000180000000     kernel32:KERNEL32.dll
 0000:fff79000       .debug$S                   0000000180000000     kernel32:KERNEL32.dll
 0000:fff79000       .debug$S                   0000000180000000     kernel32:KERNEL32.dll
 0000:fff79000       .debug$S                   0000000180000000     kernel32:KERNEL32.dll
 0000:fff79000       .debug$S                   0000000180000000     kernel32:KERNEL32.dll
 0000:fff79000       .debug$S                   0000000180000000     kernel32:KERNEL32.dll
 0000:fff79000       .debug$S                   0000000180000000     kernel32:KERNEL32.dll
 0000:fff79000       .debug$S                   0000000180000000     kernel32:KERNEL32.dll
 0000:fff79000       .debug$S                   0000000180000000     kernel32:KERNEL32.dll
 0000:fff79000       .debug$S                   0000000180000000     kernel32:KERNEL32.dll
 0000:fff79000       .debug$S                   0000000180000000     kernel32:KERNEL32.dll
 0000:fff79000       .debug$S                   0000000180000000     kernel32:KERNEL32.dll
 0000:fff79000       .debug$S                   0000000180000000     kernel32:KERNEL32.dll
 0000:fff79000       .debug$S                   0000000180000000     kernel32:KERNEL32.dll
 0000:fff79000       .debug$S                   0000000180000000     kernel32:KERNEL32.dll
 0000:fff79000       .debug$S                   0000000180000000     kernel32:KERNEL32.dll
 0000:fff79000       .debug$S                   0000000180000000     kernel32:KERNEL32.dll
 0000:fff79000       .debug$S                   0000000180000000     kernel32:KERNEL32.dll
 0000:fff79000       .debug$S                   0000000180000000     kernel32:KERNEL32.dll
 0000:fff79000       .debug$S                   0000000180000000     kernel32:KERNEL32.dll
 0000:fff79000       .debug$S                   0000000180000000     kernel32:KERNEL32.dll
 0000:fff79000       .debug$S                   0000000180000000     kernel32:KERNEL32.dll
 0000:fff79000       .debug$S                   0000000180000000     kernel32:KERNEL32.dll
 0000:fff79000       .debug$S                   0000000180000000     kernel32:KERNEL32.dll
 0000:fff79000       .debug$S                   0000000180000000     kernel32:KERNEL32.dll
 0000:fff79000       .debug$S                   0000000180000000     kernel32:KERNEL32.dll
 0000:fff79000       .debug$S                   0000000180000000     kernel32:KERNEL32.dll
 0000:fff79000       .debug$S                   0000000180000000     kernel32:KERNEL32.dll
 0000:fff79000       .debug$S                   0000000180000000     kernel32:KERNEL32.dll
 0000:fff79000       .debug$S                   0000000180000000     kernel32:KERNEL32.dll
 0000:fff79000       .debug$S                   0000000180000000     kernel32:KERNEL32.dll
 0000:fff79000       .debug$S                   0000000180000000     kernel32:KERNEL32.dll
 0000:fff79000       .debug$S                   0000000180000000     kernel32:KERNEL32.dll
 0000:fff79000       .debug$S                   0000000180000000     kernel32:KERNEL32.dll
 0000:fff79000       .debug$S                   0000000180000000     kernel32:KERNEL32.dll
 0000:fff79000       .debug$S                   0000000180000000     kernel32:KERNEL32.dll
 0000:fff79000       .debug$S                   0000000180000000     kernel32:KERNEL32.dll
 0000:fff79000       .debug$S                   0000000180000000     kernel32:KERNEL32.dll
 0000:fff79000       .debug$S                   0000000180000000     kernel32:KERNEL32.dll
 0000:fff79000       .debug$S                   0000000180000000     kernel32:KERNEL32.dll
 0000:fff79000       .debug$S                   0000000180000000     kernel32:KERNEL32.dll
 0000:fff79000       .debug$S                   0000000180000000     kernel32:KERNEL32.dll
 0000:fff79000       .debug$S                   0000000180000000     kernel32:KERNEL32.dll
 0000:fff79000       .debug$S                   0000000180000000     kernel32:KERNEL32.dll
 0000:fff79000       .debug$S                   0000000180000000     kernel32:KERNEL32.dll
 0000:fff79000       .debug$S                   0000000180000000     kernel32:KERNEL32.dll
 0000:fff79000       .debug$S                   0000000180000000     kernel32:KERNEL32.dll
 0000:fff79000       .debug$S                   0000000180000000     kernel32:KERNEL32.dll
 0000:fff79000       .debug$S                   0000000180000000     kernel32:KERNEL32.dll
 0000:fff79000       .debug$S                   0000000180000000     kernel32:KERNEL32.dll
 0000:fff79000       .debug$S                   0000000180000000     kernel32:KERNEL32.dll
 0000:fff79000       .debug$S                   0000000180000000     kernel32:KERNEL32.dll
 0000:fff79000       .debug$S                   0000000180000000     kernel32:KERNEL32.dll
 0000:fff79000       .debug$S                   0000000180000000     kernel32:KERNEL32.dll
 0000:fff79000       .debug$S                   0000000180000000     kernel32:KERNEL32.dll
 0000:fff79000       .debug$S                   0000000180000000     kernel32:KERNEL32.dll
 0000:fff79000       .debug$S                   0000000180000000     kernel32:KERNEL32.dll
 0000:fff79000       .debug$S                   0000000180000000     kernel32:KERNEL32.dll
 0000:fff79000       .debug$S                   0000000180000000     kernel32:KERNEL32.dll
 0000:fff79000       .debug$S                   0000000180000000     kernel32:KERNEL32.dll
 0000:fff79000       .debug$S                   0000000180000000     kernel32:KERNEL32.dll
 0000:fff79000       .debug$S                   0000000180000000     kernel32:KERNEL32.dll
 0000:fff79000       .debug$S                   0000000180000000     kernel32:KERNEL32.dll
 0000:fff79000       .debug$S                   0000000180000000     kernel32:KERNEL32.dll
 0000:fff79000       .debug$S                   0000000180000000     kernel32:KERNEL32.dll
 0000:fff79000       .debug$S                   0000000180000000     kernel32:KERNEL32.dll
 0000:fff79000       .debug$S                   0000000180000000     kernel32:KERNEL32.dll
 0000:fff79000       .debug$S                   0000000180000000     kernel32:KERNEL32.dll
 0000:fff79000       .debug$S                   0000000180000000     kernel32:KERNEL32.dll
 0000:fff79000       .debug$S                   0000000180000000     kernel32:KERNEL32.dll
 0000:fff79000       .debug$S                   0000000180000000     kernel32:KERNEL32.dll
 0000:fff79000       .debug$S                   0000000180000000     kernel32:KERNEL32.dll
 0000:fff79000       .debug$S                   0000000180000000     kernel32:KERNEL32.dll
 0000:fff79000       .debug$S                   0000000180000000     kernel32:KERNEL32.dll
 0000:fff79000       .debug$S                   0000000180000000     kernel32:KERNEL32.dll
 0000:fff79000       .debug$S                   0000000180000000     kernel32:KERNEL32.dll
 0000:fff79000       .debug$S                   0000000180000000     kernel32:KERNEL32.dll
 0000:fff79000       .debug$S                   0000000180000000     node:node.exe
 0000:fff79000       .debug$S                   0000000180000000     node:node.exe
 0000:fff79000       .debug$S                   0000000180000000     node:node.exe
 0000:fff79000       .debug$S                   0000000180000000     node:node.exe
 0000:fff79000       .debug$S                   0000000180000000     node:node.exe
 0000:fff79000       .debug$S                   0000000180000000     node:node.exe
 0000:fff79000       .debug$S                   0000000180000000     node:node.exe
 0000:fff79000       .debug$S                   0000000180000000     node:node.exe
 0000:fff79000       .debug$S                   0000000180000000     node:node.exe
 0000:fff79000       .debug$S                   0000000180000000     node:node.exe
 0000:fff79000       .debug$S                   0000000180000000     node:node.exe
 0000:fff79000       .debug$S                   0000000180000000     node:node.exe
 0000:fff79000       .debug$S                   0000000180000000     node:node.exe
 0000:fff79000       .debug$S                   0000000180000000     node:node.exe
 0000:fff79000       .debug$S                   0000000180000000     node:node.exe
 0000:fff79000       .debug$S                   0000000180000000     node:node.exe
 0000:fff79000       .debug$S                   0000000180000000     node:node.exe
 0000:fff79000       .debug$S                   0000000180000000     node:node.exe
 0000:fff79000       .debug$S                   0000000180000000     node:node.exe
 0000:fff79000       .debug$S                   0000000180000000     node:node.exe
 0000:fff79000       .debug$S                   0000000180000000     node:node.exe
 0000:fff79000       .debug$S                   0000000180000000     node:node.exe
 0000:fff79000       .debug$S                   0000000180000000     node:node.exe
 0000:fff79000       .debug$S                   0000000180000000     node:node.exe
 0000:fff79000       .debug$S                   0000000180000000     node:node.exe
 0000:fff79000       .debug$S                   0000000180000000     node:node.exe
 0000:fff79000       .debug$S                   0000000180000000     node:node.exe
 0000:fff79000       .debug$S                   0000000180000000     node:node.exe
 0000:fff79000       .debug$S                   0000000180000000     node:node.exe
 0000:fff79000       .debug$S                   0000000180000000     node:node.exe
 0000:fff79000       .debug$S                   0000000180000000     node:node.exe
 0000:fff79000       .debug$S                   0000000180000000     node:node.exe
 0000:fff79000       .debug$S                   0000000180000000     node:node.exe
 0000:fff79000       .debug$S                   0000000180000000     node:node.exe
 0000:fff79000       .debug$S                   0000000180000000     node:node.exe
 0000:fff79000       .debug$S                   0000000180000000     node:node.exe
 0000:fff79000       .debug$S                   0000000180000000     node:node.exe
 0000:fff79000       .debug$S                   0000000180000000     node:node.exe
 0000:fff79000       .debug$S                   0000000180000000     node:node.exe
 0000:fff79000       .debug$S                   0000000180000000     node:node.exe
 0000:fff79000       .debug$S                   0000000180000000     node:node.exe
 0000:fff79000       .debug$S                   0000000180000000     node:node.exe
 0000:fff79000       .debug$S                   0000000180000000     node:node.exe
 0000:fff79000       .debug$S                   0000000180000000     node:node.exe
 0000:fff79000       .debug$S                   0000000180000000     node:node.exe
 0000:fff79000       .debug$S                   0000000180000000     node:node.exe
 0000:fff79000       .debug$S                   0000000180000000     node:node.exe
 0000:fff79000       .debug$S                   0000000180000000     node:node.exe
 0000:fff79000       .debug$S                   0000000180000000     node:node.exe
 0000:fff79000       .debug$S                   0000000180000000     node:node.exe
 0000:fff79000       .debug$S                   0000000180000000     node:node.exe
 0000:fff79000       .debug$S                   0000000180000000     node:node.exe
 0000:fff79000       .debug$S                   0000000180000000     node:node.exe
 0000:fff79000       .debug$S                   0000000180000000     node:node.exe
 0000:fff79000       .debug$S                   0000000180000000     node:node.exe
 0000:fff79000       .debug$S                   0000000180000000     node:node.exe
 0000:fff79000       .debug$S                   0000000180000000     node:node.exe
 0000:fff79000       .debug$S                   0000000180000000     node:node.exe
 0000:fff79000       .debug$S                   0000000180000000     node:node.exe
 0000:fff79000       .debug$S                   0000000180000000     node:node.exe
 0000:fff79000       .debug$S                   0000000180000000     node:node.exe
 0000:fff79000       .debug$S                   0000000180000000     node:node.exe
 0000:fff79000       .debug$S                   0000000180000000     node:node.exe
 0000:fff79000       .debug$S                   0000000180000000     node:node.exe
 0000:fff79000       .debug$S                   0000000180000000     node:node.exe
 0000:fff79000       .debug$S                   0000000180000000     node:node.exe
 0000:fff79000       .debug$S                   0000000180000000     node:node.exe
 0000:fff79000       .debug$S                   0000000180000000     node:node.exe
 0000:fff79000       .debug$S                   0000000180000000     node:node.exe
 0000:fff79000       .debug$S                   0000000180000000     node:node.exe
 0000:fff79000       .debug$S                   0000000180000000     node:node.exe
 0000:fff79000       .debug$S                   0000000180000000     node:node.exe
 0000:fff79000       .debug$S                   0000000180000000     node:node.exe
 0000:fff79000       .debug$S                   0000000180000000     node:node.exe
 0000:fff79000       .debug$S                   0000000180000000     node:node.exe
 0000:fff79000       .debug$S                   0000000180000000     node:node.exe
 0000:fff79000       .debug$S                   0000000180000000     node:node.exe
 0000:fff79000       .debug$S                   0000000180000000     node:node.exe
 0000:fff79000       .debug$S                   0000000180000000     node:node.exe
 0000:fff79000       .debug$S                   0000000180000000     node:node.exe
 0000:fff79000       .debug$S                   0000000180000000     node:node.exe
 0000:fff79000       .debug$S                   0000000180000000     node:node.exe
 0000:fff79000       .debug$S                   0000000180000000     node:node.exe
 0000:fff79000       .debug$S                   0000000180000000     node:node.exe
 0000:fff79000       .debug$S                   0000000180000000     node:node.exe
 0000:fff79000       .debug$S                   0000000180000000     node:node.exe
 0000:fff79000       .debug$S                   0000000180000000     node:node.exe
 0000:fff79000       .debug$S                   0000000180000000     node:node.exe
 0000:fff79000       .debug$S                   0000000180000000     node:node.exe
 0000:fff79000       .debug$S                   0000000180000000     node:node.exe
 0000:fff79000       .debug$S                   0000000180000000     node:node.exe
 0000:fff79000       .debug$S                   0000000180000000     node:node.exe
 0000:fff79000       .debug$S                   0000000180000000     node:node.exe
 0000:fff79000       .debug$S                   0000000180000000     node:node.exe
 0000:fff79000       .debug$S                   0000000180000000     node:node.exe
 0000:fff79000       .debug$S                   0000000180000000     node:node.exe
 0000:fff79000       .debug$S                   0000000180000000     node:node.exe
 0000:fff79000       .debug$S                   0000000180000000     node:node.exe
 0000:fff79000       .debug$S                   0000000180000000     node:node.exe
 0000:fff79000       .debug$S                   0000000180000000     node:node.exe
 0000:fff79000       .debug$S                   0000000180000000     node:node.exe
 0000:fff79000       .debug$S                   0000000180000000     node:node.exe
 0000:fff79000       .debug$S                   0000000180000000     node:node.exe
 0000:fff79000       .debug$S                   0000000180000000     node:node.exe
 0000:fff79000       .debug$S                   0000000180000000     node:node.exe
 0000:fff79000       .debug$S                   0000000180000000     node:node.exe
 0000:fff79000       .debug$S                   0000000180000000     node:node.exe
 0000:fff79000       .debug$S                   0000000180000000     node:node.exe
 0000:fff79000       .debug$S                   0000000180000000     node:node.exe
 0000:fff79000       .debug$S                   0000000180000000     node:node.exe
 0000:fff79000       .debug$S                   0000000180000000     node:node.exe
 0000:fff79000       .debug$S                   0000000180000000     node:node.exe
 0000:fff79000       .debug$S                   0000000180000000     node:node.exe
 0000:fff79000       .debug$S                   0000000180000000     node:node.exe
 0000:fff79000       .debug$S                   0000000180000000     node:node.exe
 0000:fff79000       .debug$S                   0000000180000000     node:node.exe
 0000:fff79000       .debug$S                   0000000180000000     node:node.exe
 0000:fff79000       .debug$S                   0000000180000000     node:node.exe
 0000:fff79000       .debug$S                   0000000180000000     node:node.exe
 0000:fff79000       .debug$S                   0000000180000000     node:node.exe
 0000:fff79000       .debug$S                   0000000180000000     node:node.exe
 0000:fff79000       .debug$S                   0000000180000000     node:node.exe
 0000:fff79000       .debug$S                   0000000180000000     node:node.exe
 0001:00000000       .text                      0000000180001000     libcairo-2:D__a__temp_msys64_mingw64_lib_libcairo_2_lib_s01412.o
 0001:00000008       .text                      0000000180001008     libcairo-2:D__a__temp_msys64_mingw64_lib_libcairo_2_lib_s01403.o
 0001:00000010       .text                      0000000180001010     libcairo-2:D__a__temp_msys64_mingw64_lib_libcairo_2_lib_s01445.o
 0001:00000018       .text                      0000000180001018     libcairo-2:D__a__temp_msys64_mingw64_lib_libcairo_2_lib_s01204.o
 0001:00000020       .text                      0000000180001020     libcairo-2:D__a__temp_msys64_mingw64_lib_libcairo_2_lib_s01211.o
 0001:00000028       .text                      0000000180001028     libcairo-2:D__a__temp_msys64_mingw64_lib_libcairo_2_lib_s01413.o
 0001:00000030       .text                      0000000180001030     libcairo-2:D__a__temp_msys64_mingw64_lib_libcairo_2_lib_s01208.o
 0001:00000038       .text                      0000000180001038     libcairo-2:D__a__temp_msys64_mingw64_lib_libcairo_2_lib_s01286.o
 0001:00000040       .text                      0000000180001040     libcairo-2:D__a__temp_msys64_mingw64_lib_libcairo_2_lib_s01281.o
 0001:00000048       .text                      0000000180001048     libcairo-2:D__a__temp_msys64_mingw64_lib_libcairo_2_lib_s01452.o
 0001:00000050       .text                      0000000180001050     libcairo-2:D__a__temp_msys64_mingw64_lib_libcairo_2_lib_s01209.o
 0001:00000058       .text                      0000000180001058     libcairo-2:D__a__temp_msys64_mingw64_lib_libcairo_2_lib_s01116.o
 0001:00000060       .text                      0000000180001060     libcairo-2:D__a__temp_msys64_mingw64_lib_libcairo_2_lib_s01210.o
 0001:00000068       .text                      0000000180001068     libcairo-2:D__a__temp_msys64_mingw64_lib_libcairo_2_lib_s01414.o
 0001:00000070       .text                      0000000180001070     libcairo-2:D__a__temp_msys64_mingw64_lib_libcairo_2_lib_s01284.o
 0001:00000078       .text                      0000000180001078     libcairo-2:D__a__temp_msys64_mingw64_lib_libcairo_2_lib_s01387.o
 0001:00000080       .text                      0000000180001080     libcairo-2:D__a__temp_msys64_mingw64_lib_libcairo_2_lib_s01212.o
 0001:00000088       .text                      0000000180001088     libcairo-2:D__a__temp_msys64_mingw64_lib_libcairo_2_lib_s01113.o
 0001:00000090       .text                      0000000180001090     libcairo-2:D__a__temp_msys64_mingw64_lib_libcairo_2_lib_s01251.o
 0001:00000098       .text                      0000000180001098     libcairo-2:D__a__temp_msys64_mingw64_lib_libcairo_2_lib_s01255.o
 0001:000000a0       .text                      00000001800010a0     libcairo-2:D__a__temp_msys64_mingw64_lib_libcairo_2_lib_s01253.o
 0001:000000a8       .text                      00000001800010a8     libcairo-2:D__a__temp_msys64_mingw64_lib_libcairo_2_lib_s01259.o
 0001:000000b0       .text                      00000001800010b0     libcairo-2:D__a__temp_msys64_mingw64_lib_libcairo_2_lib_s01276.o
 0001:000000b8       .text                      00000001800010b8     libcairo-2:D__a__temp_msys64_mingw64_lib_libcairo_2_lib_s01219.o
 0001:000000c0       .text                      00000001800010c0     libcairo-2:D__a__temp_msys64_mingw64_lib_libcairo_2_lib_s01275.o
 0001:000000c8       .text                      00000001800010c8     libcairo-2:D__a__temp_msys64_mingw64_lib_libcairo_2_lib_s01271.o
 0001:000000d0       .text                      00000001800010d0     libcairo-2:D__a__temp_msys64_mingw64_lib_libcairo_2_lib_s01252.o
 0001:000000d8       .text                      00000001800010d8     libcairo-2:D__a__temp_msys64_mingw64_lib_libcairo_2_lib_s01224.o
 0001:000000e0       .text                      00000001800010e0     libcairo-2:D__a__temp_msys64_mingw64_lib_libcairo_2_lib_s01248.o
 0001:000000e8       .text                      00000001800010e8     libcairo-2:D__a__temp_msys64_mingw64_lib_libcairo_2_lib_s01214.o
 0001:000000f0       .text                      00000001800010f0     libcairo-2:D__a__temp_msys64_mingw64_lib_libcairo_2_lib_s01390.o
 0001:000000f8       .text                      00000001800010f8     libcairo-2:D__a__temp_msys64_mingw64_lib_libcairo_2_lib_s01264.o
 0001:00000100       .text                      0000000180001100     libcairo-2:D__a__temp_msys64_mingw64_lib_libcairo_2_lib_s01428.o
 0001:00000108       .text                      0000000180001108     libcairo-2:D__a__temp_msys64_mingw64_lib_libcairo_2_lib_s01349.o
 0001:00000110       .text                      0000000180001110     libcairo-2:D__a__temp_msys64_mingw64_lib_libcairo_2_lib_s01189.o
 0001:00000118       .text                      0000000180001118     libcairo-2:D__a__temp_msys64_mingw64_lib_libcairo_2_lib_s01104.o
 0001:00000120       .text                      0000000180001120     libcairo-2:D__a__temp_msys64_mingw64_lib_libcairo_2_lib_s01406.o
 0001:00000128       .text                      0000000180001128     libcairo-2:D__a__temp_msys64_mingw64_lib_libcairo_2_lib_s01317.o
 0001:00000130       .text                      0000000180001130     libcairo-2:D__a__temp_msys64_mingw64_lib_libcairo_2_lib_s01386.o
 0001:00000138       .text                      0000000180001138     libcairo-2:D__a__temp_msys64_mingw64_lib_libcairo_2_lib_s01263.o
 0001:00000140       .text                      0000000180001140     libcairo-2:D__a__temp_msys64_mingw64_lib_libcairo_2_lib_s01395.o
 0001:00000148       .text                      0000000180001148     libcairo-2:D__a__temp_msys64_mingw64_lib_libcairo_2_lib_s01402.o
 0001:00000150       .text                      0000000180001150     libcairo-2:D__a__temp_msys64_mingw64_lib_libcairo_2_lib_s01139.o
 0001:00000158       .text                      0000000180001158     libcairo-2:D__a__temp_msys64_mingw64_lib_libcairo_2_lib_s01385.o
 0001:00000160       .text                      0000000180001160     libcairo-2:D__a__temp_msys64_mingw64_lib_libcairo_2_lib_s01194.o
 0001:00000168       .text                      0000000180001168     libcairo-2:D__a__temp_msys64_mingw64_lib_libcairo_2_lib_s01218.o
 0001:00000170       .text                      0000000180001170     libcairo-2:D__a__temp_msys64_mingw64_lib_libcairo_2_lib_s01274.o
 0001:00000178       .text                      0000000180001178     libcairo-2:D__a__temp_msys64_mingw64_lib_libcairo_2_lib_s01140.o
 0001:00000180       .text                      0000000180001180     libcairo-2:D__a__temp_msys64_mingw64_lib_libcairo_2_lib_s01399.o
 0001:00000188       .text                      0000000180001188     libcairo-2:D__a__temp_msys64_mingw64_lib_libcairo_2_lib_s01347.o
 0001:00000190       .text                      0000000180001190     libcairo-2:D__a__temp_msys64_mingw64_lib_libcairo_2_lib_s01216.o
 0001:00000198       .text                      0000000180001198     libcairo-2:D__a__temp_msys64_mingw64_lib_libcairo_2_lib_s01379.o
 0001:000001a0       .text                      00000001800011a0     libcairo-2:D__a__temp_msys64_mingw64_lib_libcairo_2_lib_s01246.o
 0001:000001a8       .text                      00000001800011a8     libcairo-2:D__a__temp_msys64_mingw64_lib_libcairo_2_lib_s01302.o
 0001:000001b0       .text                      00000001800011b0     libcairo-2:D__a__temp_msys64_mingw64_lib_libcairo_2_lib_s01404.o
 0001:000001b8       .text                      00000001800011b8     libcairo-2:D__a__temp_msys64_mingw64_lib_libcairo_2_lib_s01243.o
 0001:000001c0       .text                      00000001800011c0     libcairo-2:D__a__temp_msys64_mingw64_lib_libcairo_2_lib_s01186.o
 0001:000001c8       .text                      00000001800011c8     libcairo-2:D__a__temp_msys64_mingw64_lib_libcairo_2_lib_s01273.o
 0001:000001d0       .text                      00000001800011d0     libcairo-2:D__a__temp_msys64_mingw64_lib_libcairo_2_lib_s01191.o
 0001:000001d8       .text                      00000001800011d8     libcairo-2:D__a__temp_msys64_mingw64_lib_libcairo_2_lib_s01105.o
 0001:000001e0       .text                      00000001800011e0     libcairo-2:D__a__temp_msys64_mingw64_lib_libcairo_2_lib_s01176.o
 0001:000001e8       .text                      00000001800011e8     libcairo-2:D__a__temp_msys64_mingw64_lib_libcairo_2_lib_s01394.o
 0001:000001f0       .text                      00000001800011f0     libcairo-2:D__a__temp_msys64_mingw64_lib_libcairo_2_lib_s01112.o
 0001:000001f8       .text                      00000001800011f8     libcairo-2:D__a__temp_msys64_mingw64_lib_libcairo_2_lib_s01392.o
 0001:00000200       .text                      0000000180001200     libcairo-2:D__a__temp_msys64_mingw64_lib_libcairo_2_lib_s01350.o
 0001:00000208       .text                      0000000180001208     libcairo-2:D__a__temp_msys64_mingw64_lib_libcairo_2_lib_s01485.o
 0001:00000210       .text                      0000000180001210     libcairo-2:D__a__temp_msys64_mingw64_lib_libcairo_2_lib_s01260.o
 0001:00000218       .text                      0000000180001218     libcairo-2:D__a__temp_msys64_mingw64_lib_libcairo_2_lib_s01388.o
 0001:00000220       .text                      0000000180001220     libcairo-2:D__a__temp_msys64_mingw64_lib_libcairo_2_lib_s01427.o
 0001:00000228       .text                      0000000180001228     libcairo-2:D__a__temp_msys64_mingw64_lib_libcairo_2_lib_s01111.o
 0001:00000230       .text                      0000000180001230     libcairo-2:D__a__temp_msys64_mingw64_lib_libcairo_2_lib_s01141.o
 0001:00000238       .text                      0000000180001238     libcairo-2:D__a__temp_msys64_mingw64_lib_libcairo_2_lib_s01269.o
 0001:00000240       .text                      0000000180001240     libcairo-2:D__a__temp_msys64_mingw64_lib_libcairo_2_lib_s01348.o
 0001:00000248       .text                      0000000180001248     libcairo-2:D__a__temp_msys64_mingw64_lib_libcairo_2_lib_s01405.o
 0001:00000250       .text                      0000000180001250     libcairo-2:D__a__temp_msys64_mingw64_lib_libcairo_2_lib_s01290.o
 0001:00000258       .text                      0000000180001258     libcairo-2:D__a__temp_msys64_mingw64_lib_libcairo_2_lib_s01178.o
 0001:00000260       .text                      0000000180001260     libcairo-2:D__a__temp_msys64_mingw64_lib_libcairo_2_lib_s01190.o
 0001:00000268       .text                      0000000180001268     libcairo-2:D__a__temp_msys64_mingw64_lib_libcairo_2_lib_s01261.o
 0001:00000270       .text                      0000000180001270     libcairo-2:D__a__temp_msys64_mingw64_lib_libcairo_2_lib_s01102.o
 0001:00000278       .text                      0000000180001278     libcairo-2:D__a__temp_msys64_mingw64_lib_libcairo_2_lib_s01244.o
 0001:00000280       .text                      0000000180001280     libcairo-2:D__a__temp_msys64_mingw64_lib_libcairo_2_lib_s01203.o
 0001:00000288       .text                      0000000180001288     libcairo-2:D__a__temp_msys64_mingw64_lib_libcairo_2_lib_s01187.o
 0001:00000290       .text                      0000000180001290     libcairo-2:D__a__temp_msys64_mingw64_lib_libcairo_2_lib_s01215.o
 0001:00000298       .text                      0000000180001298     libcairo-2:D__a__temp_msys64_mingw64_lib_libcairo_2_lib_s01247.o
 0001:000002a0       .text                      00000001800012a0     libcairo-2:D__a__temp_msys64_mingw64_lib_libcairo_2_lib_s01377.o
 0001:000002a8       .text                      00000001800012a8     libcairo-2:D__a__temp_msys64_mingw64_lib_libcairo_2_lib_s01179.o
 0001:000002b0       .text                      00000001800012b0     libcairo-2:D__a__temp_msys64_mingw64_lib_libcairo_2_lib_s01378.o
 0001:000002b8       .text                      00000001800012b8     libcairo-2:D__a__temp_msys64_mingw64_lib_libcairo_2_lib_s01471.o
 0001:000002c0       .text                      00000001800012c0     libcairo-2:D__a__temp_msys64_mingw64_lib_libcairo_2_lib_s01108.o
 0001:000002c8       .text                      00000001800012c8     libcairo-2:D__a__temp_msys64_mingw64_lib_libcairo_2_lib_s01103.o
 0001:000002d0       .text                      00000001800012d0     libcairo-2:D__a__temp_msys64_mingw64_lib_libcairo_2_lib_s01188.o
 0001:000002d8       .text                      00000001800012d8     libcairo-2:D__a__temp_msys64_mingw64_lib_libcairo_2_lib_s01270.o
 0001:000002e0       .text                      00000001800012e0     libcairo-2:D__a__temp_msys64_mingw64_lib_libcairo_2_lib_s01107.o
 0001:000002e8       .text                      00000001800012e8     libcairo-2:D__a__temp_msys64_mingw64_lib_libcairo_2_lib_s01249.o
 0001:000002f0       .text                      00000001800012f0     libcairo-2:D__a__temp_msys64_mingw64_lib_libcairo_2_lib_s01389.o
 0001:000002f8       .text                      00000001800012f8     libcairo-2:D__a__temp_msys64_mingw64_lib_libcairo_2_lib_s01177.o
 0001:00000300       .text                      0000000180001300     libcairo-2:D__a__temp_msys64_mingw64_lib_libcairo_2_lib_s01472.o
 0001:00000308       .text                      0000000180001308     libcairo-2:D__a__temp_msys64_mingw64_lib_libcairo_2_lib_s01266.o
 0001:00000310       .text                      0000000180001310     libcairo-2:D__a__temp_msys64_mingw64_lib_libcairo_2_lib_s01114.o
 0001:00000318       .text                      0000000180001318     libcairo-2:D__a__temp_msys64_mingw64_lib_libcairo_2_lib_s01167.o
 0001:00000320       .text                      0000000180001320     libcairo-2:D__a__temp_msys64_mingw64_lib_libcairo_2_lib_s01206.o
 0001:00000328       .text                      0000000180001328     libcairo-2:D__a__temp_msys64_mingw64_lib_libcairo_2_lib_s01207.o
 0001:00000330       .text                      0000000180001330     libcairo-2:D__a__temp_msys64_mingw64_lib_libcairo_2_lib_s01205.o
 0001:00000338       .text                      0000000180001338     libcairo-2:D__a__temp_msys64_mingw64_lib_libcairo_2_lib_s01442.o
 0001:00000340       .text                      0000000180001340     libcairo-2:D__a__temp_msys64_mingw64_lib_libcairo_2_lib_s01487.o
 0001:00000350       .text                      0000000180001350     libpng16-16:D__a__temp_msys64_mingw64_lib_libpng16_16_lib_s00019.o
 0001:00000358       .text                      0000000180001358     libpng16-16:D__a__temp_msys64_mingw64_lib_libpng16_16_lib_s00155.o
 0001:00000360       .text                      0000000180001360     libpng16-16:D__a__temp_msys64_mingw64_lib_libpng16_16_lib_s00247.o
 0001:00000368       .text                      0000000180001368     libpng16-16:D__a__temp_msys64_mingw64_lib_libpng16_16_lib_s00233.o
 0001:00000370       .text                      0000000180001370     libpng16-16:D__a__temp_msys64_mingw64_lib_libpng16_16_lib_s00204.o
 0001:00000378       .text                      0000000180001378     libpng16-16:D__a__temp_msys64_mingw64_lib_libpng16_16_lib_s00198.o
 0001:00000380       .text                      0000000180001380     libpng16-16:D__a__temp_msys64_mingw64_lib_libpng16_16_lib_s00129.o
 0001:00000388       .text                      0000000180001388     libpng16-16:D__a__temp_msys64_mingw64_lib_libpng16_16_lib_s00058.o
 0001:00000390       .text                      0000000180001390     libpng16-16:D__a__temp_msys64_mingw64_lib_libpng16_16_lib_s00260.o
 0001:00000398       .text                      0000000180001398     libpng16-16:D__a__temp_msys64_mingw64_lib_libpng16_16_lib_s00206.o
 0001:000003a0       .text                      00000001800013a0     libpng16-16:D__a__temp_msys64_mingw64_lib_libpng16_16_lib_s00259.o
 0001:000003a8       .text                      00000001800013a8     libpng16-16:D__a__temp_msys64_mingw64_lib_libpng16_16_lib_s00044.o
 0001:000003b0       .text                      00000001800013b0     libpng16-16:D__a__temp_msys64_mingw64_lib_libpng16_16_lib_s00205.o
 0001:000003b8       .text                      00000001800013b8     libpng16-16:D__a__temp_msys64_mingw64_lib_libpng16_16_lib_s00150.o
 0001:000003c0       .text                      00000001800013c0     libpng16-16:D__a__temp_msys64_mingw64_lib_libpng16_16_lib_s00181.o
 0001:000003c8       .text                      00000001800013c8     libpng16-16:D__a__temp_msys64_mingw64_lib_libpng16_16_lib_s00016.o
 0001:000003d0       .text                      00000001800013d0     libpng16-16:D__a__temp_msys64_mingw64_lib_libpng16_16_lib_s00168.o
 0001:000003d8       .text                      00000001800013d8     libpng16-16:D__a__temp_msys64_mingw64_lib_libpng16_16_lib_s00149.o
 0001:000003e0       .text                      00000001800013e0     libpng16-16:D__a__temp_msys64_mingw64_lib_libpng16_16_lib_s00245.o
 0001:000003e8       .text                      00000001800013e8     libpng16-16:D__a__temp_msys64_mingw64_lib_libpng16_16_lib_s00011.o
 0001:000003f0       .text                      00000001800013f0     libpng16-16:D__a__temp_msys64_mingw64_lib_libpng16_16_lib_s00180.o
 0001:000003f8       .text                      00000001800013f8     libpng16-16:D__a__temp_msys64_mingw64_lib_libpng16_16_lib_s00255.o
 0001:00000400       .text                      0000000180001400     libpng16-16:D__a__temp_msys64_mingw64_lib_libpng16_16_lib_s00020.o
 0001:00000408       .text                      0000000180001408     libpng16-16:D__a__temp_msys64_mingw64_lib_libpng16_16_lib_s00015.o
 0001:00000410       .text                      0000000180001410     libjpeg-8:D__a__temp_msys64_mingw64_lib_libjpeg_8_lib_s00091.o
 0001:00000418       .text                      0000000180001418     libjpeg-8:D__a__temp_msys64_mingw64_lib_libjpeg_8_lib_s00090.o
 0001:00000420       .text                      0000000180001420     libjpeg-8:D__a__temp_msys64_mingw64_lib_libjpeg_8_lib_s00029.o
 0001:00000428       .text                      0000000180001428     libjpeg-8:D__a__temp_msys64_mingw64_lib_libjpeg_8_lib_s00096.o
 0001:00000430       .text                      0000000180001430     libjpeg-8:D__a__temp_msys64_mingw64_lib_libjpeg_8_lib_s00046.o
 0001:00000438       .text                      0000000180001438     libjpeg-8:D__a__temp_msys64_mingw64_lib_libjpeg_8_lib_s00087.o
 0001:00000440       .text                      0000000180001440     libjpeg-8:D__a__temp_msys64_mingw64_lib_libjpeg_8_lib_s00052.o
 0001:00000448       .text                      0000000180001448     libjpeg-8:D__a__temp_msys64_mingw64_lib_libjpeg_8_lib_s00106.o
 0001:00000450       .text                      0000000180001450     libjpeg-8:D__a__temp_msys64_mingw64_lib_libjpeg_8_lib_s00093.o
 0001:00000458       .text                      0000000180001458     libjpeg-8:D__a__temp_msys64_mingw64_lib_libjpeg_8_lib_s00030.o
 0001:00000460       .text                      0000000180001460     libjpeg-8:D__a__temp_msys64_mingw64_lib_libjpeg_8_lib_s00047.o
 0001:00000468       .text                      0000000180001468     libjpeg-8:D__a__temp_msys64_mingw64_lib_libjpeg_8_lib_s00080.o
 0001:00000470       .text                      0000000180001470     libjpeg-8:D__a__temp_msys64_mingw64_lib_libjpeg_8_lib_s00094.o
 0001:00000478       .text                      0000000180001478     libjpeg-8:D__a__temp_msys64_mingw64_lib_libjpeg_8_lib_s00098.o
 0001:00000480       .text                      0000000180001480     libjpeg-8:D__a__temp_msys64_mingw64_lib_libjpeg_8_lib_s00053.o
 0001:00000488       .text                      0000000180001488     libjpeg-8:D__a__temp_msys64_mingw64_lib_libjpeg_8_lib_s00033.o
 0001:00000490       .text                      0000000180001490     libjpeg-8:D__a__temp_msys64_mingw64_lib_libjpeg_8_lib_s00074.o
 0001:00000498       .text                      0000000180001498     libjpeg-8:D__a__temp_msys64_mingw64_lib_libjpeg_8_lib_s00083.o
 0001:000004a0       .text                      00000001800014a0     libpango-1.0-0:D__a__temp_msys64_mingw64_lib_libpango_1_0_0_lib_s00141.o
